ARM GAS  C:\Users\rosendo\AppData\Local\Temp\cculSpCg.s 			page 1


   1              		.cpu cortex-m4
   2              		.eabi_attribute 27, 1
   3              		.eabi_attribute 28, 1
   4              		.eabi_attribute 20, 1
   5              		.eabi_attribute 21, 1
   6              		.eabi_attribute 23, 3
   7              		.eabi_attribute 24, 1
   8              		.eabi_attribute 25, 1
   9              		.eabi_attribute 26, 1
  10              		.eabi_attribute 30, 2
  11              		.eabi_attribute 34, 1
  12              		.eabi_attribute 18, 4
  13              		.file	"bt_communication.c"
  14              		.text
  15              	.Ltext0:
  16              		.cfi_sections	.debug_frame
  17              		.section	.text.chprintf.constprop.1,"ax",%progbits
  18              		.align	1
  19              		.p2align 4,,15
  20              		.syntax unified
  21              		.thumb
  22              		.thumb_func
  23              		.fpu fpv4-sp-d16
  24              		.type	chprintf.constprop.1, %function
  25              	chprintf.constprop.1:
  26              	.LFB271:
  27              		.file 1 "../../lib/e-puck2_main-processor/ChibiOS//os/hal/lib/streams/chprintf.h"
  28              		.loc 1 69 0
  29              		.cfi_startproc
  30              		@ args = 4, pretend = 12, frame = 8
  31              		@ frame_needed = 0, uses_anonymous_args = 1
  32              	.LVL0:
  33 0000 0EB4     		push	{r1, r2, r3}
  34              		.cfi_def_cfa_offset 12
  35              		.cfi_offset 1, -12
  36              		.cfi_offset 2, -8
  37              		.cfi_offset 3, -4
  38 0002 10B5     		push	{r4, lr}
  39              		.cfi_def_cfa_offset 20
  40              		.cfi_offset 4, -20
  41              		.cfi_offset 14, -16
  42 0004 0A4C     		ldr	r4, .L6
  43              		.loc 1 74 0
  44 0006 0B49     		ldr	r1, .L6+4
  45              		.loc 1 69 0
  46 0008 2368     		ldr	r3, [r4]
  47              		.loc 1 74 0
  48 000a 0B48     		ldr	r0, .L6+8
  49              	.LVL1:
  50              		.loc 1 69 0
  51 000c 83B0     		sub	sp, sp, #12
  52              		.cfi_def_cfa_offset 32
  53              		.loc 1 69 0
  54 000e 0193     		str	r3, [sp, #4]
  55              	.LVL2:
  56              		.loc 1 73 0
  57 0010 06AB     		add	r3, sp, #24
ARM GAS  C:\Users\rosendo\AppData\Local\Temp\cculSpCg.s 			page 2


  58              		.loc 1 74 0
  59 0012 1A46     		mov	r2, r3
  60              		.loc 1 73 0
  61 0014 0093     		str	r3, [sp]
  62              		.loc 1 74 0
  63 0016 FFF7FEFF 		bl	chvprintf
  64              	.LVL3:
  65              		.loc 1 78 0
  66 001a 019A     		ldr	r2, [sp, #4]
  67 001c 2368     		ldr	r3, [r4]
  68 001e 9A42     		cmp	r2, r3
  69 0020 04D1     		bne	.L5
  70 0022 03B0     		add	sp, sp, #12
  71              		.cfi_remember_state
  72              		.cfi_def_cfa_offset 20
  73              		@ sp needed
  74 0024 BDE81040 		pop	{r4, lr}
  75              		.cfi_restore 14
  76              		.cfi_restore 4
  77              		.cfi_def_cfa_offset 12
  78 0028 03B0     		add	sp, sp, #12
  79              		.cfi_restore 3
  80              		.cfi_restore 2
  81              		.cfi_restore 1
  82              		.cfi_def_cfa_offset 0
  83 002a 7047     		bx	lr
  84              	.L5:
  85              		.cfi_restore_state
  86 002c FFF7FEFF 		bl	__stack_chk_fail
  87              	.LVL4:
  88              	.L7:
  89              		.align	2
  90              	.L6:
  91 0030 00000000 		.word	__stack_chk_guard
  92 0034 00000000 		.word	.LC0
  93 0038 00000000 		.word	SD3
  94              		.cfi_endproc
  95              	.LFE271:
  96              		.size	chprintf.constprop.1, .-chprintf.constprop.1
  97              		.section	.text.get_input_buffer,"ax",%progbits
  98              		.align	1
  99              		.p2align 4,,15
 100              		.global	get_input_buffer
 101              		.syntax unified
 102              		.thumb
 103              		.thumb_func
 104              		.fpu fpv4-sp-d16
 105              		.type	get_input_buffer, %function
 106              	get_input_buffer:
 107              	.LFB258:
 108              		.file 2 "bt_communication.c"
 109              		.loc 2 55 0
 110              		.cfi_startproc
 111              		@ args = 0, pretend = 0, frame = 8
 112              		@ frame_needed = 0, uses_anonymous_args = 0
 113              	.LVL5:
 114 0000 2DE9F041 		push	{r4, r5, r6, r7, r8, lr}
ARM GAS  C:\Users\rosendo\AppData\Local\Temp\cculSpCg.s 			page 3


 115              		.cfi_def_cfa_offset 24
 116              		.cfi_offset 4, -24
 117              		.cfi_offset 5, -20
 118              		.cfi_offset 6, -16
 119              		.cfi_offset 7, -12
 120              		.cfi_offset 8, -8
 121              		.cfi_offset 14, -4
 122 0004 104F     		ldr	r7, .L19
 123 0006 114E     		ldr	r6, .L19+4
 124 0008 3B68     		ldr	r3, [r7]
 125 000a 82B0     		sub	sp, sp, #8
 126              		.cfi_def_cfa_offset 32
 127              		.loc 2 55 0
 128 000c 0546     		mov	r5, r0
 129              		.loc 2 58 0
 130 000e 3022     		movs	r2, #48
 131 0010 2021     		movs	r1, #32
 132              		.loc 2 55 0
 133 0012 0193     		str	r3, [sp, #4]
 134              	.LVL6:
 135 0014 6C1E     		subs	r4, r5, #1
 136              		.loc 2 58 0
 137 0016 FFF7FEFF 		bl	memset
 138              	.LVL7:
 139 001a 2F35     		adds	r5, r5, #47
 140              	.LVL8:
 141              		.loc 2 62 0
 142 001c B046     		mov	r8, r6
 143 001e 01E0     		b	.L10
 144              	.LVL9:
 145              	.L17:
 146              		.loc 2 65 0 discriminator 1
 147 0020 AC42     		cmp	r4, r5
 148 0022 08D0     		beq	.L8
 149              	.LVL10:
 150              	.L10:
 151              		.loc 2 62 0 discriminator 2
 152 0024 3368     		ldr	r3, [r6]
 153 0026 4046     		mov	r0, r8
 154 0028 DB68     		ldr	r3, [r3, #12]
 155 002a 9847     		blx	r3
 156              	.LVL11:
 157 002c C0B2     		uxtb	r0, r0
 158              	.LVL12:
 159              		.loc 2 65 0 discriminator 2
 160 002e 2D28     		cmp	r0, #45
 161              		.loc 2 63 0 discriminator 2
 162 0030 04F8010F 		strb	r0, [r4, #1]!
 163              	.LVL13:
 164              		.loc 2 65 0 discriminator 2
 165 0034 F4D1     		bne	.L17
 166              	.L8:
 167              		.loc 2 66 0
 168 0036 019A     		ldr	r2, [sp, #4]
 169 0038 3B68     		ldr	r3, [r7]
 170 003a 9A42     		cmp	r2, r3
 171 003c 02D1     		bne	.L18
ARM GAS  C:\Users\rosendo\AppData\Local\Temp\cculSpCg.s 			page 4


 172 003e 02B0     		add	sp, sp, #8
 173              		.cfi_remember_state
 174              		.cfi_def_cfa_offset 24
 175              		@ sp needed
 176 0040 BDE8F081 		pop	{r4, r5, r6, r7, r8, pc}
 177              	.LVL14:
 178              	.L18:
 179              		.cfi_restore_state
 180 0044 FFF7FEFF 		bl	__stack_chk_fail
 181              	.LVL15:
 182              	.L20:
 183              		.align	2
 184              	.L19:
 185 0048 00000000 		.word	__stack_chk_guard
 186 004c 00000000 		.word	SD3
 187              		.cfi_endproc
 188              	.LFE258:
 189              		.size	get_input_buffer, .-get_input_buffer
 190              		.section	.text.send_position,"ax",%progbits
 191              		.align	1
 192              		.p2align 4,,15
 193              		.global	send_position
 194              		.syntax unified
 195              		.thumb
 196              		.thumb_func
 197              		.fpu fpv4-sp-d16
 198              		.type	send_position, %function
 199              	send_position:
 200              	.LFB260:
 201              		.loc 2 117 0
 202              		.cfi_startproc
 203              		@ args = 0, pretend = 0, frame = 8
 204              		@ frame_needed = 0, uses_anonymous_args = 0
 205 0000 30B5     		push	{r4, r5, lr}
 206              		.cfi_def_cfa_offset 12
 207              		.cfi_offset 4, -12
 208              		.cfi_offset 5, -8
 209              		.cfi_offset 14, -4
 210 0002 0C4C     		ldr	r4, .L26
 211 0004 83B0     		sub	sp, sp, #12
 212              		.cfi_def_cfa_offset 24
 213              		.loc 2 117 0
 214 0006 2368     		ldr	r3, [r4]
 215 0008 0193     		str	r3, [sp, #4]
 216              		.loc 2 118 0
 217 000a FFF7FEFF 		bl	get_self_position
 218              	.LVL16:
 219 000e 0588     		ldrh	r5, [r0]
 220 0010 FFF7FEFF 		bl	get_self_position
 221              	.LVL17:
 222 0014 0199     		ldr	r1, [sp, #4]
 223 0016 2368     		ldr	r3, [r4]
 224 0018 9942     		cmp	r1, r3
 225 001a 08D1     		bne	.L25
 226 001c 4388     		ldrh	r3, [r0, #2]
 227 001e 0649     		ldr	r1, .L26+4
 228 0020 0648     		ldr	r0, .L26+8
ARM GAS  C:\Users\rosendo\AppData\Local\Temp\cculSpCg.s 			page 5


 229 0022 2A46     		mov	r2, r5
 230              		.loc 2 120 0
 231 0024 03B0     		add	sp, sp, #12
 232              		.cfi_remember_state
 233              		.cfi_def_cfa_offset 12
 234              		@ sp needed
 235 0026 BDE83040 		pop	{r4, r5, lr}
 236              		.cfi_restore 14
 237              		.cfi_restore 5
 238              		.cfi_restore 4
 239              		.cfi_def_cfa_offset 0
 240              		.loc 2 118 0
 241 002a FFF7FEBF 		b	chprintf.constprop.1
 242              	.LVL18:
 243              	.L25:
 244              		.cfi_restore_state
 245 002e FFF7FEFF 		bl	__stack_chk_fail
 246              	.LVL19:
 247              	.L27:
 248 0032 00BF     		.align	2
 249              	.L26:
 250 0034 00000000 		.word	__stack_chk_guard
 251 0038 00000000 		.word	.LC0
 252 003c 00000000 		.word	SD3
 253              		.cfi_endproc
 254              	.LFE260:
 255              		.size	send_position, .-send_position
 256              		.section	.text.valid_command,"ax",%progbits
 257              		.align	1
 258              		.p2align 4,,15
 259              		.global	valid_command
 260              		.syntax unified
 261              		.thumb
 262              		.thumb_func
 263              		.fpu fpv4-sp-d16
 264              		.type	valid_command, %function
 265              	valid_command:
 266              	.LFB261:
 267              		.loc 2 123 0
 268              		.cfi_startproc
 269              		@ args = 0, pretend = 0, frame = 8
 270              		@ frame_needed = 0, uses_anonymous_args = 0
 271              	.LVL20:
 272 0000 00B5     		push	{lr}
 273              		.cfi_def_cfa_offset 4
 274              		.cfi_offset 14, -4
 275              		.loc 2 124 0
 276 0002 6138     		subs	r0, r0, #97
 277              	.LVL21:
 278 0004 C3B2     		uxtb	r3, r0
 279              		.loc 2 123 0
 280 0006 0B4A     		ldr	r2, .L34
 281              		.loc 2 124 0
 282 0008 152B     		cmp	r3, #21
 283              		.loc 2 123 0
 284 000a 83B0     		sub	sp, sp, #12
 285              		.cfi_def_cfa_offset 16
ARM GAS  C:\Users\rosendo\AppData\Local\Temp\cculSpCg.s 			page 6


 286              		.loc 2 123 0
 287 000c 1168     		ldr	r1, [r2]
 288              		.loc 2 124 0
 289 000e 98BF     		it	ls
 290 0010 0948     		ldrls	r0, .L34+4
 291              		.loc 2 123 0
 292 0012 0191     		str	r1, [sp, #4]
 293              		.loc 2 124 0
 294 0014 98BF     		it	ls
 295 0016 D840     		lsrls	r0, r0, r3
 296              		.loc 2 130 0
 297 0018 0199     		ldr	r1, [sp, #4]
 298 001a 1368     		ldr	r3, [r2]
 299 001c 94BF     		ite	ls
 300 001e 00F00100 		andls	r0, r0, #1
 301              		.loc 2 124 0
 302 0022 0020     		movhi	r0, #0
 303              		.loc 2 130 0
 304 0024 9942     		cmp	r1, r3
 305 0026 02D1     		bne	.L33
 306 0028 03B0     		add	sp, sp, #12
 307              		.cfi_remember_state
 308              		.cfi_def_cfa_offset 4
 309              		@ sp needed
 310 002a 5DF804FB 		ldr	pc, [sp], #4
 311              	.L33:
 312              		.cfi_restore_state
 313 002e FFF7FEFF 		bl	__stack_chk_fail
 314              	.LVL22:
 315              	.L35:
 316 0032 00BF     		.align	2
 317              	.L34:
 318 0034 00000000 		.word	__stack_chk_guard
 319 0038 8D003000 		.word	3145869
 320              		.cfi_endproc
 321              	.LFE261:
 322              		.size	valid_command, .-valid_command
 323              		.section	.text.process_input_bfr,"ax",%progbits
 324              		.align	1
 325              		.p2align 4,,15
 326              		.global	process_input_bfr
 327              		.syntax unified
 328              		.thumb
 329              		.thumb_func
 330              		.fpu fpv4-sp-d16
 331              		.type	process_input_bfr, %function
 332              	process_input_bfr:
 333              	.LFB259:
 334              		.loc 2 68 0
 335              		.cfi_startproc
 336              		@ args = 0, pretend = 0, frame = 16
 337              		@ frame_needed = 0, uses_anonymous_args = 0
 338              	.LVL23:
 339 0000 2DE9F04F 		push	{r4, r5, r6, r7, r8, r9, r10, fp, lr}
 340              		.cfi_def_cfa_offset 36
 341              		.cfi_offset 4, -36
 342              		.cfi_offset 5, -32
ARM GAS  C:\Users\rosendo\AppData\Local\Temp\cculSpCg.s 			page 7


 343              		.cfi_offset 6, -28
 344              		.cfi_offset 7, -24
 345              		.cfi_offset 8, -20
 346              		.cfi_offset 9, -16
 347              		.cfi_offset 10, -12
 348              		.cfi_offset 11, -8
 349              		.cfi_offset 14, -4
 350 0004 474E     		ldr	r6, .L82
 351 0006 DFF83091 		ldr	r9, .L82+20
 352 000a 3368     		ldr	r3, [r6]
 353 000c 85B0     		sub	sp, sp, #20
 354              		.cfi_def_cfa_offset 56
 355              	.LBB16:
 356              	.LBB17:
 357              		.loc 2 106 0
 358 000e 4FF00008 		mov	r8, #0
 359              	.LBE17:
 360              	.LBE16:
 361              		.loc 2 68 0
 362 0012 0393     		str	r3, [sp, #12]
 363              	.LVL24:
 364 0014 99F80030 		ldrb	r3, [r9]	@ zero_extendqisi2
 365 0018 0093     		str	r3, [sp]
 366 001a 434B     		ldr	r3, .L82+4
 367 001c 1B78     		ldrb	r3, [r3]	@ zero_extendqisi2
 368 001e 0193     		str	r3, [sp, #4]
 369 0020 8346     		mov	fp, r0
 370 0022 00F13005 		add	r5, r0, #48
 371              	.LBB38:
 372              	.LBB26:
 373              		.loc 2 106 0
 374 0026 4746     		mov	r7, r8
 375              	.LVL25:
 376              	.L37:
 377              	.LBE26:
 378              		.loc 2 70 0 discriminator 3
 379 0028 5C46     		mov	r4, fp
 380 002a 14F801AB 		ldrb	r10, [r4], #1	@ zero_extendqisi2
 381 002e BAF12D0F 		cmp	r10, #45
 382 0032 1ED0     		beq	.L76
 383              		.loc 2 71 0
 384 0034 5046     		mov	r0, r10
 385 0036 FFF7FEFF 		bl	valid_command
 386              	.LVL26:
 387 003a B8B1     		cbz	r0, .L38
 388              	.LVL27:
 389              	.LBB27:
 390              		.loc 2 76 0
 391 003c 2378     		ldrb	r3, [r4]	@ zero_extendqisi2
 392 003e 3A2B     		cmp	r3, #58
 393 0040 23D0     		beq	.L78
 394              		.loc 2 74 0
 395 0042 0022     		movs	r2, #0
 396              	.LVL28:
 397              	.L39:
 398              		.loc 2 84 0
 399 0044 AAF1610A 		sub	r10, r10, #97
ARM GAS  C:\Users\rosendo\AppData\Local\Temp\cculSpCg.s 			page 8


 400 0048 BAF1150F 		cmp	r10, #21
 401 004c 0ED8     		bhi	.L38
 402 004e DFE80AF0 		tbb	[pc, r10]
 403              	.L45:
 404 0052 49       		.byte	(.L44-.L45)/2
 405 0053 0D       		.byte	(.L38-.L45)/2
 406 0054 43       		.byte	(.L46-.L45)/2
 407 0055 3D       		.byte	(.L47-.L45)/2
 408 0056 0D       		.byte	(.L38-.L45)/2
 409 0057 0D       		.byte	(.L38-.L45)/2
 410 0058 0D       		.byte	(.L38-.L45)/2
 411 0059 37       		.byte	(.L58-.L45)/2
 412 005a 0D       		.byte	(.L38-.L45)/2
 413 005b 0D       		.byte	(.L38-.L45)/2
 414 005c 0D       		.byte	(.L38-.L45)/2
 415 005d 0D       		.byte	(.L38-.L45)/2
 416 005e 0D       		.byte	(.L38-.L45)/2
 417 005f 0D       		.byte	(.L38-.L45)/2
 418 0060 0D       		.byte	(.L38-.L45)/2
 419 0061 0D       		.byte	(.L38-.L45)/2
 420 0062 0D       		.byte	(.L38-.L45)/2
 421 0063 0D       		.byte	(.L38-.L45)/2
 422 0064 0D       		.byte	(.L38-.L45)/2
 423 0065 0D       		.byte	(.L38-.L45)/2
 424 0066 4F       		.byte	(.L48-.L45)/2
 425 0067 0B       		.byte	(.L49-.L45)/2
 426              		.p2align 1
 427              	.L49:
 428              		.loc 2 98 0
 429 0068 304B     		ldr	r3, .L82+8
 430 006a 5A80     		strh	r2, [r3, #2]	@ movhi
 431              	.L38:
 432              	.LVL29:
 433              	.LBE27:
 434              		.loc 2 70 0 discriminator 2
 435 006c AC42     		cmp	r4, r5
 436 006e A346     		mov	fp, r4
 437 0070 DAD1     		bne	.L37
 438              	.LVL30:
 439              	.L76:
 440 0072 002F     		cmp	r7, #0
 441 0074 50D1     		bne	.L79
 442              	.L54:
 443 0076 B8F1000F 		cmp	r8, #0
 444 007a 48D1     		bne	.L80
 445              	.L36:
 446              	.LBE38:
 447              		.loc 2 115 0
 448 007c 039A     		ldr	r2, [sp, #12]
 449 007e 3368     		ldr	r3, [r6]
 450 0080 9A42     		cmp	r2, r3
 451 0082 42D1     		bne	.L81
 452 0084 05B0     		add	sp, sp, #20
 453              		.cfi_remember_state
 454              		.cfi_def_cfa_offset 36
 455              		@ sp needed
 456 0086 BDE8F08F 		pop	{r4, r5, r6, r7, r8, r9, r10, fp, pc}
ARM GAS  C:\Users\rosendo\AppData\Local\Temp\cculSpCg.s 			page 9


 457              	.LVL31:
 458              	.L78:
 459              		.cfi_restore_state
 460 008a 0BF10601 		add	r1, fp, #6
 461              	.LBB39:
 462              	.LBB28:
 463              		.loc 2 76 0
 464 008e A446     		mov	ip, r4
 465              	.LBB18:
 466              	.LBB19:
 467              		.loc 2 142 0
 468 0090 0022     		movs	r2, #0
 469              	.LVL32:
 470              	.L41:
 471              	.LBB20:
 472              		.loc 2 144 0
 473 0092 1CF801EF 		ldrb	lr, [ip, #1]!	@ zero_extendqisi2
 474              	.LVL33:
 475              	.LBB21:
 476              	.LBB22:
 477              		.loc 2 133 0
 478 0096 AEF13003 		sub	r3, lr, #48
 479 009a 5FFA83FB 		uxtb	fp, r3
 480 009e BBF1090F 		cmp	fp, #9
 481 00a2 2BD8     		bhi	.L40
 482              	.LVL34:
 483              	.LBE22:
 484              	.LBE21:
 485              		.loc 2 145 0
 486 00a4 1A44     		add	r2, r2, r3
 487              	.LVL35:
 488 00a6 92B2     		uxth	r2, r2
 489              	.LVL36:
 490              		.loc 2 151 0
 491 00a8 02EB8202 		add	r2, r2, r2, lsl #2
 492              	.LVL37:
 493 00ac 5200     		lsls	r2, r2, #1
 494              		.loc 2 143 0
 495 00ae 6145     		cmp	r1, ip
 496              		.loc 2 151 0
 497 00b0 92B2     		uxth	r2, r2
 498              	.LVL38:
 499              		.loc 2 143 0
 500 00b2 EED1     		bne	.L41
 501              	.LVL39:
 502              	.L42:
 503              	.LBE20:
 504              		.loc 2 153 0
 505 00b4 1E4B     		ldr	r3, .L82+12
 506 00b6 A3FB0232 		umull	r3, r2, r3, r2
 507              	.LVL40:
 508              		.loc 2 154 0
 509 00ba 42F3CF02 		sbfx	r2, r2, #3, #16
 510              	.LVL41:
 511 00be C1E7     		b	.L39
 512              	.LVL42:
 513              	.L58:
ARM GAS  C:\Users\rosendo\AppData\Local\Temp\cculSpCg.s 			page 10


 514              	.LBE19:
 515              	.LBE18:
 516              	.LBE28:
 517              		.loc 2 70 0
 518 00c0 AC42     		cmp	r4, r5
 519              	.LBB29:
 520              		.loc 2 84 0
 521 00c2 0746     		mov	r7, r0
 522              		.loc 2 102 0
 523 00c4 0090     		str	r0, [sp]
 524              	.LVL43:
 525 00c6 A346     		mov	fp, r4
 526              	.LBE29:
 527              		.loc 2 70 0
 528 00c8 AED1     		bne	.L37
 529 00ca D2E7     		b	.L76
 530              	.LVL44:
 531              	.L47:
 532              	.LBB30:
 533              		.loc 2 90 0
 534 00cc 194B     		ldr	r3, .L82+16
 535              	.LBE30:
 536              		.loc 2 70 0
 537 00ce AC42     		cmp	r4, r5
 538              	.LBB31:
 539              		.loc 2 90 0
 540 00d0 1A80     		strh	r2, [r3]	@ movhi
 541              	.LVL45:
 542 00d2 A346     		mov	fp, r4
 543              	.LBE31:
 544              		.loc 2 70 0
 545 00d4 A8D1     		bne	.L37
 546 00d6 CCE7     		b	.L76
 547              	.LVL46:
 548              	.L46:
 549 00d8 AC42     		cmp	r4, r5
 550              	.LBB32:
 551              		.loc 2 107 0
 552 00da 8046     		mov	r8, r0
 553              		.loc 2 106 0
 554 00dc 0190     		str	r0, [sp, #4]
 555              	.LVL47:
 556 00de A346     		mov	fp, r4
 557              	.LBE32:
 558              		.loc 2 70 0
 559 00e0 A2D1     		bne	.L37
 560 00e2 C6E7     		b	.L76
 561              	.LVL48:
 562              	.L44:
 563              	.LBB33:
 564              		.loc 2 86 0
 565 00e4 134B     		ldr	r3, .L82+16
 566              	.LBE33:
 567              		.loc 2 70 0
 568 00e6 AC42     		cmp	r4, r5
 569              	.LBB34:
 570              		.loc 2 86 0
ARM GAS  C:\Users\rosendo\AppData\Local\Temp\cculSpCg.s 			page 11


 571 00e8 5A80     		strh	r2, [r3, #2]	@ movhi
 572              	.LVL49:
 573 00ea A346     		mov	fp, r4
 574              	.LBE34:
 575              		.loc 2 70 0
 576 00ec 9CD1     		bne	.L37
 577 00ee C0E7     		b	.L76
 578              	.LVL50:
 579              	.L48:
 580              	.LBB35:
 581              		.loc 2 94 0
 582 00f0 0E4B     		ldr	r3, .L82+8
 583              	.LBE35:
 584              		.loc 2 70 0
 585 00f2 AC42     		cmp	r4, r5
 586              	.LBB36:
 587              		.loc 2 94 0
 588 00f4 1A80     		strh	r2, [r3]	@ movhi
 589              	.LVL51:
 590 00f6 A346     		mov	fp, r4
 591              	.LBE36:
 592              		.loc 2 70 0
 593 00f8 96D1     		bne	.L37
 594 00fa BAE7     		b	.L76
 595              	.LVL52:
 596              	.L40:
 597              	.LBB37:
 598              	.LBB25:
 599              	.LBB24:
 600              	.LBB23:
 601              		.loc 2 146 0
 602 00fc BEF1200F 		cmp	lr, #32
 603 0100 D8D0     		beq	.L42
 604              	.LVL53:
 605              	.LBE23:
 606              	.LBE24:
 607              	.LBE25:
 608              	.LBE37:
 609              		.loc 2 70 0
 610 0102 AC42     		cmp	r4, r5
 611 0104 A346     		mov	fp, r4
 612 0106 8FD1     		bne	.L37
 613 0108 B3E7     		b	.L76
 614              	.LVL54:
 615              	.L81:
 616              	.LBE39:
 617              		.loc 2 115 0
 618 010a FFF7FEFF 		bl	__stack_chk_fail
 619              	.LVL55:
 620              	.L80:
 621 010e 064B     		ldr	r3, .L82+4
 622 0110 9DF80420 		ldrb	r2, [sp, #4]	@ zero_extendqisi2
 623 0114 1A70     		strb	r2, [r3]
 624 0116 B1E7     		b	.L36
 625              	.L79:
 626 0118 9DF80030 		ldrb	r3, [sp]	@ zero_extendqisi2
 627 011c 89F80030 		strb	r3, [r9]
ARM GAS  C:\Users\rosendo\AppData\Local\Temp\cculSpCg.s 			page 12


 628 0120 A9E7     		b	.L54
 629              	.L83:
 630 0122 00BF     		.align	2
 631              	.L82:
 632 0124 00000000 		.word	__stack_chk_guard
 633 0128 00000000 		.word	.LANCHOR1
 634 012c 00000000 		.word	.LANCHOR3
 635 0130 CDCCCCCC 		.word	-858993459
 636 0134 00000000 		.word	.LANCHOR2
 637 0138 00000000 		.word	.LANCHOR0
 638              		.cfi_endproc
 639              	.LFE259:
 640              		.size	process_input_bfr, .-process_input_bfr
 641              		.section	.text.BluetoothComm,"ax",%progbits
 642              		.align	1
 643              		.p2align 4,,15
 644              		.syntax unified
 645              		.thumb
 646              		.thumb_func
 647              		.fpu fpv4-sp-d16
 648              		.type	BluetoothComm, %function
 649              	BluetoothComm:
 650              	.LFB257:
 651              		.loc 2 40 0
 652              		.cfi_startproc
 653              		@ Volatile: function does not return.
 654              		@ args = 0, pretend = 0, frame = 8
 655              		@ frame_needed = 0, uses_anonymous_args = 0
 656              	.LVL56:
 657 0000 00B5     		push	{lr}
 658              		.cfi_def_cfa_offset 4
 659              		.cfi_offset 14, -4
 660              	.LBB40:
 661              	.LBB41:
 662              		.file 3 "../../lib/e-puck2_main-processor/ChibiOS//os/rt/include/chregistry.h"
 663              		.loc 3 135 0
 664 0002 0A4A     		ldr	r2, .L88
 665              	.LBE41:
 666              	.LBE40:
 667              		.loc 2 40 0
 668 0004 0A4B     		ldr	r3, .L88+4
 669              	.LBB44:
 670              	.LBB42:
 671              		.loc 3 135 0
 672 0006 9269     		ldr	r2, [r2, #24]
 673 0008 0A49     		ldr	r1, .L88+8
 674              	.LBE42:
 675              	.LBE44:
 676              		.loc 2 40 0
 677 000a 1B68     		ldr	r3, [r3]
 678              		.loc 2 48 0
 679 000c 0A4C     		ldr	r4, .L88+12
 680              	.LBB45:
 681              	.LBB43:
 682              		.loc 3 135 0
 683 000e 9161     		str	r1, [r2, #24]
 684              	.LBE43:
ARM GAS  C:\Users\rosendo\AppData\Local\Temp\cculSpCg.s 			page 13


 685              	.LBE45:
 686              		.loc 2 40 0
 687 0010 83B0     		sub	sp, sp, #12
 688              		.cfi_def_cfa_offset 16
 689              		.loc 2 40 0
 690 0012 0193     		str	r3, [sp, #4]
 691              	.LVL57:
 692              	.L85:
 693              		.loc 2 48 0 discriminator 1
 694 0014 2046     		mov	r0, r4
 695 0016 FFF7FEFF 		bl	get_input_buffer
 696              	.LVL58:
 697              		.loc 2 49 0 discriminator 1
 698 001a 2046     		mov	r0, r4
 699 001c FFF7FEFF 		bl	process_input_bfr
 700              	.LVL59:
 701              		.loc 2 50 0 discriminator 1
 702 0020 FFF7FEFF 		bl	send_position
 703              	.LVL60:
 704              		.loc 2 51 0 discriminator 1
 705 0024 3220     		movs	r0, #50
 706 0026 FFF7FEFF 		bl	chThdSleep
 707              	.LVL61:
 708 002a F3E7     		b	.L85
 709              	.L89:
 710              		.align	2
 711              	.L88:
 712 002c 00000000 		.word	ch
 713 0030 00000000 		.word	__stack_chk_guard
 714 0034 00000000 		.word	.LANCHOR4
 715 0038 00000000 		.word	.LANCHOR5
 716              		.cfi_endproc
 717              	.LFE257:
 718              		.size	BluetoothComm, .-BluetoothComm
 719              		.section	.text.is_number,"ax",%progbits
 720              		.align	1
 721              		.p2align 4,,15
 722              		.global	is_number
 723              		.syntax unified
 724              		.thumb
 725              		.thumb_func
 726              		.fpu fpv4-sp-d16
 727              		.type	is_number, %function
 728              	is_number:
 729              	.LFB262:
 730              		.loc 2 132 0
 731              		.cfi_startproc
 732              		@ args = 0, pretend = 0, frame = 8
 733              		@ frame_needed = 0, uses_anonymous_args = 0
 734              	.LVL62:
 735 0000 00B5     		push	{lr}
 736              		.cfi_def_cfa_offset 4
 737              		.cfi_offset 14, -4
 738 0002 094B     		ldr	r3, .L94
 739 0004 83B0     		sub	sp, sp, #12
 740              		.cfi_def_cfa_offset 16
 741              		.loc 2 132 0
ARM GAS  C:\Users\rosendo\AppData\Local\Temp\cculSpCg.s 			page 14


 742 0006 1A68     		ldr	r2, [r3]
 743 0008 0192     		str	r2, [sp, #4]
 744              		.loc 2 133 0
 745 000a 3038     		subs	r0, r0, #48
 746              	.LVL63:
 747              		.loc 2 138 0
 748 000c 019A     		ldr	r2, [sp, #4]
 749 000e 1B68     		ldr	r3, [r3]
 750 0010 0928     		cmp	r0, #9
 751 0012 8CBF     		ite	hi
 752 0014 0020     		movhi	r0, #0
 753 0016 0120     		movls	r0, #1
 754 0018 9A42     		cmp	r2, r3
 755 001a 02D1     		bne	.L93
 756 001c 03B0     		add	sp, sp, #12
 757              		.cfi_remember_state
 758              		.cfi_def_cfa_offset 4
 759              		@ sp needed
 760 001e 5DF804FB 		ldr	pc, [sp], #4
 761              	.L93:
 762              		.cfi_restore_state
 763 0022 FFF7FEFF 		bl	__stack_chk_fail
 764              	.LVL64:
 765              	.L95:
 766 0026 00BF     		.align	2
 767              	.L94:
 768 0028 00000000 		.word	__stack_chk_guard
 769              		.cfi_endproc
 770              	.LFE262:
 771              		.size	is_number, .-is_number
 772              		.section	.text.get_recieved_integer,"ax",%progbits
 773              		.align	1
 774              		.p2align 4,,15
 775              		.global	get_recieved_integer
 776              		.syntax unified
 777              		.thumb
 778              		.thumb_func
 779              		.fpu fpv4-sp-d16
 780              		.type	get_recieved_integer, %function
 781              	get_recieved_integer:
 782              	.LFB263:
 783              		.loc 2 140 0
 784              		.cfi_startproc
 785              		@ args = 0, pretend = 0, frame = 8
 786              		@ frame_needed = 0, uses_anonymous_args = 0
 787              	.LVL65:
 788 0000 70B5     		push	{r4, r5, r6, lr}
 789              		.cfi_def_cfa_offset 16
 790              		.cfi_offset 4, -16
 791              		.cfi_offset 5, -12
 792              		.cfi_offset 6, -8
 793              		.cfi_offset 14, -4
 794 0002 144D     		ldr	r5, .L106
 795 0004 82B0     		sub	sp, sp, #8
 796              		.cfi_def_cfa_offset 24
 797              		.loc 2 140 0
 798 0006 2B68     		ldr	r3, [r5]
ARM GAS  C:\Users\rosendo\AppData\Local\Temp\cculSpCg.s 			page 15


 799 0008 0193     		str	r3, [sp, #4]
 800              	.LVL66:
 801 000a 421E     		subs	r2, r0, #1
 802              		.loc 2 142 0
 803 000c 0023     		movs	r3, #0
 804 000e 0430     		adds	r0, r0, #4
 805              	.LVL67:
 806              	.L98:
 807              	.LBB46:
 808              		.loc 2 144 0
 809 0010 12F8014F 		ldrb	r4, [r2, #1]!	@ zero_extendqisi2
 810              	.LVL68:
 811              	.LBB47:
 812              	.LBB48:
 813              		.loc 2 133 0
 814 0014 A4F13001 		sub	r1, r4, #48
 815 0018 CEB2     		uxtb	r6, r1
 816 001a 092E     		cmp	r6, #9
 817 001c 12D8     		bhi	.L97
 818              	.LVL69:
 819              	.LBE48:
 820              	.LBE47:
 821              		.loc 2 145 0
 822 001e 0B44     		add	r3, r3, r1
 823              	.LVL70:
 824 0020 9BB2     		uxth	r3, r3
 825              	.LVL71:
 826              		.loc 2 151 0
 827 0022 03EB8303 		add	r3, r3, r3, lsl #2
 828              	.LVL72:
 829 0026 5B00     		lsls	r3, r3, #1
 830              		.loc 2 143 0
 831 0028 9042     		cmp	r0, r2
 832              		.loc 2 151 0
 833 002a 9BB2     		uxth	r3, r3
 834              	.LVL73:
 835              		.loc 2 143 0
 836 002c F0D1     		bne	.L98
 837              	.LVL74:
 838              	.L99:
 839              	.LBE46:
 840              		.loc 2 153 0
 841 002e 0A48     		ldr	r0, .L106+4
 842              	.LVL75:
 843 0030 A0FB0323 		umull	r2, r3, r0, r3
 844              	.LVL76:
 845              		.loc 2 154 0
 846 0034 43F3CF00 		sbfx	r0, r3, #3, #16
 847              	.L100:
 848              		.loc 2 155 0
 849 0038 019A     		ldr	r2, [sp, #4]
 850 003a 2B68     		ldr	r3, [r5]
 851 003c 9A42     		cmp	r2, r3
 852 003e 06D1     		bne	.L105
 853 0040 02B0     		add	sp, sp, #8
 854              		.cfi_remember_state
 855              		.cfi_def_cfa_offset 16
ARM GAS  C:\Users\rosendo\AppData\Local\Temp\cculSpCg.s 			page 16


 856              		@ sp needed
 857 0042 70BD     		pop	{r4, r5, r6, pc}
 858              	.LVL77:
 859              	.L97:
 860              		.cfi_restore_state
 861              	.LBB49:
 862              		.loc 2 146 0
 863 0044 202C     		cmp	r4, #32
 864 0046 F2D0     		beq	.L99
 865              		.loc 2 149 0
 866 0048 4FF0FF30 		mov	r0, #-1
 867 004c F4E7     		b	.L100
 868              	.LVL78:
 869              	.L105:
 870              	.LBE49:
 871              		.loc 2 155 0
 872 004e FFF7FEFF 		bl	__stack_chk_fail
 873              	.LVL79:
 874              	.L107:
 875 0052 00BF     		.align	2
 876              	.L106:
 877 0054 00000000 		.word	__stack_chk_guard
 878 0058 CDCCCCCC 		.word	-858993459
 879              		.cfi_endproc
 880              	.LFE263:
 881              		.size	get_recieved_integer, .-get_recieved_integer
 882              		.section	.text.get_BT_enemy_position,"ax",%progbits
 883              		.align	1
 884              		.p2align 4,,15
 885              		.global	get_BT_enemy_position
 886              		.syntax unified
 887              		.thumb
 888              		.thumb_func
 889              		.fpu fpv4-sp-d16
 890              		.type	get_BT_enemy_position, %function
 891              	get_BT_enemy_position:
 892              	.LFB264:
 893              		.loc 2 157 0
 894              		.cfi_startproc
 895              		@ args = 0, pretend = 0, frame = 8
 896              		@ frame_needed = 0, uses_anonymous_args = 0
 897 0000 00B5     		push	{lr}
 898              		.cfi_def_cfa_offset 4
 899              		.cfi_offset 14, -4
 900 0002 074B     		ldr	r3, .L112
 901 0004 83B0     		sub	sp, sp, #12
 902              		.cfi_def_cfa_offset 16
 903              		.loc 2 157 0
 904 0006 1A68     		ldr	r2, [r3]
 905 0008 0192     		str	r2, [sp, #4]
 906 000a 019A     		ldr	r2, [sp, #4]
 907 000c 1B68     		ldr	r3, [r3]
 908 000e 9A42     		cmp	r2, r3
 909 0010 03D1     		bne	.L111
 910 0012 0448     		ldr	r0, .L112+4
 911 0014 03B0     		add	sp, sp, #12
 912              		.cfi_remember_state
ARM GAS  C:\Users\rosendo\AppData\Local\Temp\cculSpCg.s 			page 17


 913              		.cfi_def_cfa_offset 4
 914              		@ sp needed
 915 0016 5DF804FB 		ldr	pc, [sp], #4
 916              	.L111:
 917              		.cfi_restore_state
 918 001a FFF7FEFF 		bl	__stack_chk_fail
 919              	.LVL80:
 920              	.L113:
 921 001e 00BF     		.align	2
 922              	.L112:
 923 0020 00000000 		.word	__stack_chk_guard
 924 0024 00000000 		.word	.LANCHOR3
 925              		.cfi_endproc
 926              	.LFE264:
 927              		.size	get_BT_enemy_position, .-get_BT_enemy_position
 928              		.section	.text.get_BT_controller_joystick_polar,"ax",%progbits
 929              		.align	1
 930              		.p2align 4,,15
 931              		.global	get_BT_controller_joystick_polar
 932              		.syntax unified
 933              		.thumb
 934              		.thumb_func
 935              		.fpu fpv4-sp-d16
 936              		.type	get_BT_controller_joystick_polar, %function
 937              	get_BT_controller_joystick_polar:
 938              	.LFB265:
 939              		.loc 2 159 0
 940              		.cfi_startproc
 941              		@ args = 0, pretend = 0, frame = 8
 942              		@ frame_needed = 0, uses_anonymous_args = 0
 943 0000 00B5     		push	{lr}
 944              		.cfi_def_cfa_offset 4
 945              		.cfi_offset 14, -4
 946 0002 074B     		ldr	r3, .L118
 947 0004 83B0     		sub	sp, sp, #12
 948              		.cfi_def_cfa_offset 16
 949              		.loc 2 159 0
 950 0006 1A68     		ldr	r2, [r3]
 951 0008 0192     		str	r2, [sp, #4]
 952 000a 019A     		ldr	r2, [sp, #4]
 953 000c 1B68     		ldr	r3, [r3]
 954 000e 9A42     		cmp	r2, r3
 955 0010 03D1     		bne	.L117
 956 0012 0448     		ldr	r0, .L118+4
 957 0014 03B0     		add	sp, sp, #12
 958              		.cfi_remember_state
 959              		.cfi_def_cfa_offset 4
 960              		@ sp needed
 961 0016 5DF804FB 		ldr	pc, [sp], #4
 962              	.L117:
 963              		.cfi_restore_state
 964 001a FFF7FEFF 		bl	__stack_chk_fail
 965              	.LVL81:
 966              	.L119:
 967 001e 00BF     		.align	2
 968              	.L118:
 969 0020 00000000 		.word	__stack_chk_guard
ARM GAS  C:\Users\rosendo\AppData\Local\Temp\cculSpCg.s 			page 18


 970 0024 00000000 		.word	.LANCHOR2
 971              		.cfi_endproc
 972              	.LFE265:
 973              		.size	get_BT_controller_joystick_polar, .-get_BT_controller_joystick_polar
 974              		.section	.text.get_BT_controller_shoot,"ax",%progbits
 975              		.align	1
 976              		.p2align 4,,15
 977              		.global	get_BT_controller_shoot
 978              		.syntax unified
 979              		.thumb
 980              		.thumb_func
 981              		.fpu fpv4-sp-d16
 982              		.type	get_BT_controller_shoot, %function
 983              	get_BT_controller_shoot:
 984              	.LFB266:
 985              		.loc 2 161 0
 986              		.cfi_startproc
 987              		@ args = 0, pretend = 0, frame = 8
 988              		@ frame_needed = 0, uses_anonymous_args = 0
 989 0000 00B5     		push	{lr}
 990              		.cfi_def_cfa_offset 4
 991              		.cfi_offset 14, -4
 992 0002 074B     		ldr	r3, .L124
 993 0004 0749     		ldr	r1, .L124+4
 994 0006 1A68     		ldr	r2, [r3]
 995 0008 0878     		ldrb	r0, [r1]	@ zero_extendqisi2
 996 000a 83B0     		sub	sp, sp, #12
 997              		.cfi_def_cfa_offset 16
 998              		.loc 2 161 0
 999 000c 0192     		str	r2, [sp, #4]
 1000 000e 019A     		ldr	r2, [sp, #4]
 1001 0010 1B68     		ldr	r3, [r3]
 1002 0012 9A42     		cmp	r2, r3
 1003 0014 02D1     		bne	.L123
 1004 0016 03B0     		add	sp, sp, #12
 1005              		.cfi_remember_state
 1006              		.cfi_def_cfa_offset 4
 1007              		@ sp needed
 1008 0018 5DF804FB 		ldr	pc, [sp], #4
 1009              	.L123:
 1010              		.cfi_restore_state
 1011 001c FFF7FEFF 		bl	__stack_chk_fail
 1012              	.LVL82:
 1013              	.L125:
 1014              		.align	2
 1015              	.L124:
 1016 0020 00000000 		.word	__stack_chk_guard
 1017 0024 00000000 		.word	.LANCHOR0
 1018              		.cfi_endproc
 1019              	.LFE266:
 1020              		.size	get_BT_controller_shoot, .-get_BT_controller_shoot
 1021              		.section	.text.get_BT_calibrate,"ax",%progbits
 1022              		.align	1
 1023              		.p2align 4,,15
 1024              		.global	get_BT_calibrate
 1025              		.syntax unified
 1026              		.thumb
ARM GAS  C:\Users\rosendo\AppData\Local\Temp\cculSpCg.s 			page 19


 1027              		.thumb_func
 1028              		.fpu fpv4-sp-d16
 1029              		.type	get_BT_calibrate, %function
 1030              	get_BT_calibrate:
 1031              	.LFB267:
 1032              		.loc 2 163 0
 1033              		.cfi_startproc
 1034              		@ args = 0, pretend = 0, frame = 8
 1035              		@ frame_needed = 0, uses_anonymous_args = 0
 1036 0000 00B5     		push	{lr}
 1037              		.cfi_def_cfa_offset 4
 1038              		.cfi_offset 14, -4
 1039 0002 074B     		ldr	r3, .L130
 1040 0004 0749     		ldr	r1, .L130+4
 1041 0006 1A68     		ldr	r2, [r3]
 1042 0008 0878     		ldrb	r0, [r1]	@ zero_extendqisi2
 1043 000a 83B0     		sub	sp, sp, #12
 1044              		.cfi_def_cfa_offset 16
 1045              		.loc 2 163 0
 1046 000c 0192     		str	r2, [sp, #4]
 1047 000e 019A     		ldr	r2, [sp, #4]
 1048 0010 1B68     		ldr	r3, [r3]
 1049 0012 9A42     		cmp	r2, r3
 1050 0014 02D1     		bne	.L129
 1051 0016 03B0     		add	sp, sp, #12
 1052              		.cfi_remember_state
 1053              		.cfi_def_cfa_offset 4
 1054              		@ sp needed
 1055 0018 5DF804FB 		ldr	pc, [sp], #4
 1056              	.L129:
 1057              		.cfi_restore_state
 1058 001c FFF7FEFF 		bl	__stack_chk_fail
 1059              	.LVL83:
 1060              	.L131:
 1061              		.align	2
 1062              	.L130:
 1063 0020 00000000 		.word	__stack_chk_guard
 1064 0024 00000000 		.word	.LANCHOR1
 1065              		.cfi_endproc
 1066              	.LFE267:
 1067              		.size	get_BT_calibrate, .-get_BT_calibrate
 1068              		.section	.text.reset_BT_shoot,"ax",%progbits
 1069              		.align	1
 1070              		.p2align 4,,15
 1071              		.global	reset_BT_shoot
 1072              		.syntax unified
 1073              		.thumb
 1074              		.thumb_func
 1075              		.fpu fpv4-sp-d16
 1076              		.type	reset_BT_shoot, %function
 1077              	reset_BT_shoot:
 1078              	.LFB268:
 1079              		.loc 2 165 0
 1080              		.cfi_startproc
 1081              		@ args = 0, pretend = 0, frame = 8
 1082              		@ frame_needed = 0, uses_anonymous_args = 0
 1083 0000 00B5     		push	{lr}
ARM GAS  C:\Users\rosendo\AppData\Local\Temp\cculSpCg.s 			page 20


 1084              		.cfi_def_cfa_offset 4
 1085              		.cfi_offset 14, -4
 1086 0002 084B     		ldr	r3, .L136
 1087 0004 0849     		ldr	r1, .L136+4
 1088 0006 1A68     		ldr	r2, [r3]
 1089 0008 83B0     		sub	sp, sp, #12
 1090              		.cfi_def_cfa_offset 16
 1091              		.loc 2 165 0
 1092 000a 0020     		movs	r0, #0
 1093 000c 0192     		str	r2, [sp, #4]
 1094 000e 019A     		ldr	r2, [sp, #4]
 1095 0010 1B68     		ldr	r3, [r3]
 1096 0012 0870     		strb	r0, [r1]
 1097 0014 9A42     		cmp	r2, r3
 1098 0016 02D1     		bne	.L135
 1099 0018 03B0     		add	sp, sp, #12
 1100              		.cfi_remember_state
 1101              		.cfi_def_cfa_offset 4
 1102              		@ sp needed
 1103 001a 5DF804FB 		ldr	pc, [sp], #4
 1104              	.L135:
 1105              		.cfi_restore_state
 1106 001e FFF7FEFF 		bl	__stack_chk_fail
 1107              	.LVL84:
 1108              	.L137:
 1109 0022 00BF     		.align	2
 1110              	.L136:
 1111 0024 00000000 		.word	__stack_chk_guard
 1112 0028 00000000 		.word	.LANCHOR0
 1113              		.cfi_endproc
 1114              	.LFE268:
 1115              		.size	reset_BT_shoot, .-reset_BT_shoot
 1116              		.section	.text.bt_communication_start,"ax",%progbits
 1117              		.align	1
 1118              		.p2align 4,,15
 1119              		.global	bt_communication_start
 1120              		.syntax unified
 1121              		.thumb
 1122              		.thumb_func
 1123              		.fpu fpv4-sp-d16
 1124              		.type	bt_communication_start, %function
 1125              	bt_communication_start:
 1126              	.LFB269:
 1127              		.loc 2 167 0
 1128              		.cfi_startproc
 1129              		@ args = 0, pretend = 0, frame = 8
 1130              		@ frame_needed = 0, uses_anonymous_args = 0
 1131 0000 10B5     		push	{r4, lr}
 1132              		.cfi_def_cfa_offset 8
 1133              		.cfi_offset 4, -8
 1134              		.cfi_offset 14, -4
 1135 0002 0A4C     		ldr	r4, .L142
 1136              		.loc 2 168 0
 1137 0004 0A4B     		ldr	r3, .L142+4
 1138              		.loc 2 167 0
 1139 0006 2268     		ldr	r2, [r4]
 1140              		.loc 2 168 0
ARM GAS  C:\Users\rosendo\AppData\Local\Temp\cculSpCg.s 			page 21


 1141 0008 0A48     		ldr	r0, .L142+8
 1142              		.loc 2 167 0
 1143 000a 84B0     		sub	sp, sp, #16
 1144              		.cfi_def_cfa_offset 24
 1145              		.loc 2 168 0
 1146 000c 4FF45E71 		mov	r1, #888
 1147              		.loc 2 167 0
 1148 0010 0392     		str	r2, [sp, #12]
 1149              		.loc 2 168 0
 1150 0012 0022     		movs	r2, #0
 1151 0014 0092     		str	r2, [sp]
 1152 0016 4022     		movs	r2, #64
 1153 0018 FFF7FEFF 		bl	chThdCreateStatic
 1154              	.LVL85:
 1155              		.loc 2 169 0
 1156 001c 039A     		ldr	r2, [sp, #12]
 1157 001e 2368     		ldr	r3, [r4]
 1158 0020 9A42     		cmp	r2, r3
 1159 0022 01D1     		bne	.L141
 1160 0024 04B0     		add	sp, sp, #16
 1161              		.cfi_remember_state
 1162              		.cfi_def_cfa_offset 8
 1163              		@ sp needed
 1164 0026 10BD     		pop	{r4, pc}
 1165              	.L141:
 1166              		.cfi_restore_state
 1167 0028 FFF7FEFF 		bl	__stack_chk_fail
 1168              	.LVL86:
 1169              	.L143:
 1170              		.align	2
 1171              	.L142:
 1172 002c 00000000 		.word	__stack_chk_guard
 1173 0030 00000000 		.word	BluetoothComm
 1174 0034 00000000 		.word	.LANCHOR6
 1175              		.cfi_endproc
 1176              	.LFE269:
 1177              		.size	bt_communication_start, .-bt_communication_start
 1178              		.section	.bss.calibrate,"aw",%nobits
 1179              		.set	.LANCHOR1,. + 0
 1180              		.type	calibrate, %object
 1181              		.size	calibrate, 1
 1182              	calibrate:
 1183 0000 00       		.space	1
 1184              		.section	.bss.ctrl_joystick_polar,"aw",%nobits
 1185              		.align	2
 1186              		.set	.LANCHOR2,. + 0
 1187              		.type	ctrl_joystick_polar, %object
 1188              		.size	ctrl_joystick_polar, 4
 1189              	ctrl_joystick_polar:
 1190 0000 00000000 		.space	4
 1191              		.section	.bss.ctrl_shoot,"aw",%nobits
 1192              		.set	.LANCHOR0,. + 0
 1193              		.type	ctrl_shoot, %object
 1194              		.size	ctrl_shoot, 1
 1195              	ctrl_shoot:
 1196 0000 00       		.space	1
 1197              		.section	.bss.enemy_position,"aw",%nobits
ARM GAS  C:\Users\rosendo\AppData\Local\Temp\cculSpCg.s 			page 22


 1198              		.align	2
 1199              		.set	.LANCHOR3,. + 0
 1200              		.type	enemy_position, %object
 1201              		.size	enemy_position, 4
 1202              	enemy_position:
 1203 0000 00000000 		.space	4
 1204              		.section	.bss.incoming_message_bfr.10892,"aw",%nobits
 1205              		.align	2
 1206              		.set	.LANCHOR5,. + 0
 1207              		.type	incoming_message_bfr.10892, %object
 1208              		.size	incoming_message_bfr.10892, 48
 1209              	incoming_message_bfr.10892:
 1210 0000 00000000 		.space	48
 1210      00000000 
 1210      00000000 
 1210      00000000 
 1210      00000000 
 1211              		.section	.bss.waBluetoothComm,"aw",%nobits
 1212              		.align	3
 1213              		.set	.LANCHOR6,. + 0
 1214              		.type	waBluetoothComm, %object
 1215              		.size	waBluetoothComm, 888
 1216              	waBluetoothComm:
 1217 0000 00000000 		.space	888
 1217      00000000 
 1217      00000000 
 1217      00000000 
 1217      00000000 
 1218              		.section	.rodata.__FUNCTION__.10891,"a",%progbits
 1219              		.align	2
 1220              		.set	.LANCHOR4,. + 0
 1221              		.type	__FUNCTION__.10891, %object
 1222              		.size	__FUNCTION__.10891, 14
 1223              	__FUNCTION__.10891:
 1224 0000 426C7565 		.ascii	"BluetoothComm\000"
 1224      746F6F74 
 1224      68436F6D 
 1224      6D00
 1225              		.section	.rodata.chprintf.constprop.1.str1.4,"aMS",%progbits,1
 1226              		.align	2
 1227              	.LC0:
 1228 0000 783A2564 		.ascii	"x:%d y:%d -\000"
 1228      20793A25 
 1228      64202D00 
 1229              		.text
 1230              	.Letext0:
 1231              		.file 4 "c:\\users\\rosendo\\desktop\\eclipse_e-puck2_win32_29_jan_2020\\eclipse_e-puck2\\tools\\g
 1232              		.file 5 "c:\\users\\rosendo\\desktop\\eclipse_e-puck2_win32_29_jan_2020\\eclipse_e-puck2\\tools\\g
 1233              		.file 6 "c:\\users\\rosendo\\desktop\\eclipse_e-puck2_win32_29_jan_2020\\eclipse_e-puck2\\tools\\g
 1234              		.file 7 "../../lib/e-puck2_main-processor/ChibiOS//os/rt/ports/ARMCMx/compilers/GCC/chtypes.h"
 1235              		.file 8 "../../lib/e-puck2_main-processor/ChibiOS//os/rt/include/chsystypes.h"
 1236              		.file 9 "../../lib/e-puck2_main-processor/ChibiOS//os/rt/include/chschd.h"
 1237              		.file 10 "../../lib/e-puck2_main-processor/ChibiOS//os/ext/CMSIS/include/core_cm4.h"
 1238              		.file 11 "../../lib/e-puck2_main-processor/ChibiOS//os/ext/CMSIS/ST/system_stm32f4xx.h"
 1239              		.file 12 "../../lib/e-puck2_main-processor/ChibiOS//os/ext/CMSIS/ST/stm32f407xx.h"
 1240              		.file 13 "../../lib/e-puck2_main-processor/ChibiOS//os/rt/ports/ARMCMx/chcore.h"
 1241              		.file 14 "../../lib/e-puck2_main-processor/ChibiOS//os/rt/ports/ARMCMx/chcore_v7m.h"
ARM GAS  C:\Users\rosendo\AppData\Local\Temp\cculSpCg.s 			page 23


 1242              		.file 15 "../../lib/e-puck2_main-processor/ChibiOS//os/rt/include/chdebug.h"
 1243              		.file 16 "../../lib/e-puck2_main-processor/ChibiOS//os/rt/include/chtm.h"
 1244              		.file 17 "../../lib/e-puck2_main-processor/ChibiOS//os/rt/include/chstats.h"
 1245              		.file 18 "../../lib/e-puck2_main-processor/ChibiOS//os/rt/include/chsem.h"
 1246              		.file 19 "../../lib/e-puck2_main-processor/ChibiOS//os/rt/include/chmtx.h"
 1247              		.file 20 "../../lib/e-puck2_main-processor/ChibiOS//os/rt/include/chevents.h"
 1248              		.file 21 "../../lib/e-puck2_main-processor/ChibiOS//os/rt/include/chqueues.h"
 1249              		.file 22 "../../lib/e-puck2_main-processor/ChibiOS//os/rt/include/chstreams.h"
 1250              		.file 23 "../../lib/e-puck2_main-processor/ChibiOS//os/hal/ports/STM32/STM32F4xx/stm32_dma.h"
 1251              		.file 24 "../../lib/e-puck2_main-processor/ChibiOS//os/hal/include/hal_ioblock.h"
 1252              		.file 25 "../../lib/e-puck2_main-processor/ChibiOS//os/hal/ports/STM32/LLD/GPIOv2/pal_lld.h"
 1253              		.file 26 "../../lib/e-puck2_main-processor/ChibiOS//os/hal/include/adc.h"
 1254              		.file 27 "../../lib/e-puck2_main-processor/ChibiOS//os/hal/ports/STM32/STM32F4xx/adc_lld.h"
 1255              		.file 28 "../../lib/e-puck2_main-processor/ChibiOS//os/hal/include/can.h"
 1256              		.file 29 "../../lib/e-puck2_main-processor/ChibiOS//os/hal/ports/STM32/LLD/can_lld.h"
 1257              		.file 30 "../../lib/e-puck2_main-processor/ChibiOS//os/hal/include/dac.h"
 1258              		.file 31 "../../lib/e-puck2_main-processor/ChibiOS//os/hal/ports/STM32/LLD/DACv1/dac_lld.h"
 1259              		.file 32 "../../lib/e-puck2_main-processor/ChibiOS//os/hal/include/ext.h"
 1260              		.file 33 "../../lib/e-puck2_main-processor/ChibiOS//os/hal/ports/STM32/LLD/ext_lld.h"
 1261              		.file 34 "../../lib/e-puck2_main-processor/ChibiOS//os/hal/include/gpt.h"
 1262              		.file 35 "../../lib/e-puck2_main-processor/ChibiOS//os/hal/ports/STM32/LLD/TIMv1/gpt_lld.h"
 1263              		.file 36 "../../lib/e-puck2_main-processor/ChibiOS//os/hal/ports/STM32/LLD/TIMv1/stm32_tim.h"
 1264              		.file 37 "../../lib/e-puck2_main-processor/ChibiOS//os/hal/include/i2c.h"
 1265              		.file 38 "../../lib/e-puck2_main-processor/ChibiOS//os/hal/ports/STM32/LLD/I2Cv1/i2c_lld.h"
 1266              		.file 39 "../../lib/e-puck2_main-processor/ChibiOS//os/hal/include/i2s.h"
 1267              		.file 40 "../../lib/e-puck2_main-processor/ChibiOS//os/hal/ports/STM32/LLD/SPIv1/i2s_lld.h"
 1268              		.file 41 "../../lib/e-puck2_main-processor/ChibiOS//os/hal/include/pwm.h"
 1269              		.file 42 "../../lib/e-puck2_main-processor/ChibiOS//os/hal/ports/STM32/LLD/TIMv1/pwm_lld.h"
 1270              		.file 43 "../../lib/e-puck2_main-processor/ChibiOS//os/hal/include/serial.h"
 1271              		.file 44 "../../lib/e-puck2_main-processor/ChibiOS//os/hal/ports/STM32/LLD/USARTv1/serial_lld.h"
 1272              		.file 45 "../../lib/e-puck2_main-processor/ChibiOS//os/hal/include/sdc.h"
 1273              		.file 46 "../../lib/e-puck2_main-processor/ChibiOS//os/hal/ports/STM32/LLD/sdc_lld.h"
 1274              		.file 47 "../../lib/e-puck2_main-processor/ChibiOS//os/hal/include/spi.h"
 1275              		.file 48 "../../lib/e-puck2_main-processor/ChibiOS//os/hal/ports/STM32/LLD/SPIv1/spi_lld.h"
 1276              		.file 49 "../../lib/e-puck2_main-processor/ChibiOS//os/hal/include/usb.h"
 1277              		.file 50 "../../lib/e-puck2_main-processor/ChibiOS//os/hal/ports/STM32/LLD/OTGv1/usb_lld.h"
 1278              		.file 51 "../../lib/e-puck2_main-processor/ChibiOS//os/hal/ports/STM32/LLD/OTGv1/stm32_otg.h"
 1279              		.file 52 "../../lib/e-puck2_main-processor/ChibiOS//os/hal/include/serial_usb.h"
 1280              		.file 53 "c:\\users\\rosendo\\desktop\\eclipse_e-puck2_win32_29_jan_2020\\eclipse_e-puck2\\tools\\
 1281              		.file 54 "<built-in>"
 1282              		.file 55 "c:\\users\\rosendo\\desktop\\eclipse_e-puck2_win32_29_jan_2020\\eclipse_e-puck2\\tools\\
 1283              		.file 56 "c:\\users\\rosendo\\desktop\\eclipse_e-puck2_win32_29_jan_2020\\eclipse_e-puck2\\tools\\
 1284              		.file 57 "c:\\users\\rosendo\\desktop\\eclipse_e-puck2_win32_29_jan_2020\\eclipse_e-puck2\\tools\\
 1285              		.file 58 "c:\\users\\rosendo\\desktop\\eclipse_e-puck2_win32_29_jan_2020\\eclipse_e-puck2\\tools\\
 1286              		.file 59 "../../lib/e-puck2_main-processor/src/usbcfg.h"
 1287              		.file 60 "../../lib/e-puck2_main-processor/ChibiOS//os/rt/include/chthreads.h"
 1288              		.file 61 "motors_controller.h"
 1289              		.file 62 "c:\\users\\rosendo\\desktop\\eclipse_e-puck2_win32_29_jan_2020\\eclipse_e-puck2\\tools\\