ARM GAS  C:\Users\rosendo\AppData\Local\Temp\cc7e3neq.s 			page 1


   1              		.cpu cortex-m4
   2              		.eabi_attribute 27, 1
   3              		.eabi_attribute 28, 1
   4              		.eabi_attribute 20, 1
   5              		.eabi_attribute 21, 1
   6              		.eabi_attribute 23, 3
   7              		.eabi_attribute 24, 1
   8              		.eabi_attribute 25, 1
   9              		.eabi_attribute 26, 1
  10              		.eabi_attribute 30, 2
  11              		.eabi_attribute 34, 1
  12              		.eabi_attribute 18, 4
  13              		.file	"motors_controller.c"
  14              		.text
  15              	.Ltext0:
  16              		.cfi_sections	.debug_frame
  17              		.section	.text.get_self_position,"ax",%progbits
  18              		.align	1
  19              		.p2align 4,,15
  20              		.global	get_self_position
  21              		.syntax unified
  22              		.thumb
  23              		.thumb_func
  24              		.fpu fpv4-sp-d16
  25              		.type	get_self_position, %function
  26              	get_self_position:
  27              	.LFB258:
  28              		.file 1 "motors_controller.c"
  29              		.loc 1 177 0
  30              		.cfi_startproc
  31              		@ args = 0, pretend = 0, frame = 8
  32              		@ frame_needed = 0, uses_anonymous_args = 0
  33 0000 00B5     		push	{lr}
  34              		.cfi_def_cfa_offset 4
  35              		.cfi_offset 14, -4
  36              		.loc 1 179 0
  37 0002 0E4A     		ldr	r2, .L6
  38              		.loc 1 177 0
  39 0004 0E4B     		ldr	r3, .L6+4
  40              		.loc 1 179 0
  41 0006 92ED007A 		vldr.32	s14, [r2]
  42              		.loc 1 180 0
  43 000a D2ED017A 		vldr.32	s15, [r2, #4]
  44              		.loc 1 177 0
  45 000e 1968     		ldr	r1, [r3]
  46              		.loc 1 179 0
  47 0010 0C48     		ldr	r0, .L6+8
  48              		.loc 1 177 0
  49 0012 83B0     		sub	sp, sp, #12
  50              		.cfi_def_cfa_offset 16
  51              		.loc 1 179 0
  52 0014 BDEEC77A 		vcvt.s32.f32	s14, s14
  53              		.loc 1 177 0
  54 0018 0191     		str	r1, [sp, #4]
  55              		.loc 1 180 0
  56 001a FDEEE77A 		vcvt.s32.f32	s15, s15
  57              		.loc 1 179 0
ARM GAS  C:\Users\rosendo\AppData\Local\Temp\cc7e3neq.s 			page 2


  58 001e 17EE101A 		vmov	r1, s14	@ int
  59              		.loc 1 182 0
  60 0022 019A     		ldr	r2, [sp, #4]
  61 0024 1B68     		ldr	r3, [r3]
  62              		.loc 1 179 0
  63 0026 0180     		strh	r1, [r0]	@ movhi
  64              		.loc 1 180 0
  65 0028 17EE901A 		vmov	r1, s15	@ int
  66              		.loc 1 182 0
  67 002c 9A42     		cmp	r2, r3
  68              		.loc 1 180 0
  69 002e 4180     		strh	r1, [r0, #2]	@ movhi
  70              		.loc 1 182 0
  71 0030 02D1     		bne	.L5
  72 0032 03B0     		add	sp, sp, #12
  73              		.cfi_remember_state
  74              		.cfi_def_cfa_offset 4
  75              		@ sp needed
  76 0034 5DF804FB 		ldr	pc, [sp], #4
  77              	.L5:
  78              		.cfi_restore_state
  79 0038 FFF7FEFF 		bl	__stack_chk_fail
  80              	.LVL0:
  81              	.L7:
  82              		.align	2
  83              	.L6:
  84 003c 00000000 		.word	.LANCHOR1
  85 0040 00000000 		.word	__stack_chk_guard
  86 0044 00000000 		.word	.LANCHOR0
  87              		.cfi_endproc
  88              	.LFE258:
  89              		.size	get_self_position, .-get_self_position
  90              		.section	.text.get_self_angle,"ax",%progbits
  91              		.align	1
  92              		.p2align 4,,15
  93              		.global	get_self_angle
  94              		.syntax unified
  95              		.thumb
  96              		.thumb_func
  97              		.fpu fpv4-sp-d16
  98              		.type	get_self_angle, %function
  99              	get_self_angle:
 100              	.LFB259:
 101              		.loc 1 184 0
 102              		.cfi_startproc
 103              		@ args = 0, pretend = 0, frame = 8
 104              		@ frame_needed = 0, uses_anonymous_args = 0
 105 0000 00B5     		push	{lr}
 106              		.cfi_def_cfa_offset 4
 107              		.cfi_offset 14, -4
 108 0002 0A4B     		ldr	r3, .L12
 109              		.loc 1 185 0
 110 0004 0A49     		ldr	r1, .L12+4
 111              		.loc 1 184 0
 112 0006 1A68     		ldr	r2, [r3]
 113              		.loc 1 185 0
 114 0008 D1ED007A 		vldr.32	s15, [r1]
ARM GAS  C:\Users\rosendo\AppData\Local\Temp\cc7e3neq.s 			page 3


 115              		.loc 1 184 0
 116 000c 83B0     		sub	sp, sp, #12
 117              		.cfi_def_cfa_offset 16
 118              		.loc 1 184 0
 119 000e 0192     		str	r2, [sp, #4]
 120              		.loc 1 186 0
 121 0010 019A     		ldr	r2, [sp, #4]
 122 0012 1B68     		ldr	r3, [r3]
 123 0014 9A42     		cmp	r2, r3
 124 0016 07D1     		bne	.L11
 125 0018 FDEEE77A 		vcvt.s32.f32	s15, s15
 126 001c 17EE901A 		vmov	r1, s15	@ int
 127 0020 08B2     		sxth	r0, r1
 128 0022 03B0     		add	sp, sp, #12
 129              		.cfi_remember_state
 130              		.cfi_def_cfa_offset 4
 131              		@ sp needed
 132 0024 5DF804FB 		ldr	pc, [sp], #4
 133              	.L11:
 134              		.cfi_restore_state
 135 0028 FFF7FEFF 		bl	__stack_chk_fail
 136              	.LVL1:
 137              	.L13:
 138              		.align	2
 139              	.L12:
 140 002c 00000000 		.word	__stack_chk_guard
 141 0030 00000000 		.word	.LANCHOR2
 142              		.cfi_endproc
 143              	.LFE259:
 144              		.size	get_self_angle, .-get_self_angle
 145              		.section	.text.shoot,"ax",%progbits
 146              		.align	1
 147              		.p2align 4,,15
 148              		.global	shoot
 149              		.syntax unified
 150              		.thumb
 151              		.thumb_func
 152              		.fpu fpv4-sp-d16
 153              		.type	shoot, %function
 154              	shoot:
 155              	.LFB260:
 156              		.loc 1 188 0
 157              		.cfi_startproc
 158              		@ args = 0, pretend = 0, frame = 8
 159              		@ frame_needed = 0, uses_anonymous_args = 0
 160 0000 10B5     		push	{r4, lr}
 161              		.cfi_def_cfa_offset 8
 162              		.cfi_offset 4, -8
 163              		.cfi_offset 14, -4
 164 0002 0A4C     		ldr	r4, .L19
 165 0004 82B0     		sub	sp, sp, #8
 166              		.cfi_def_cfa_offset 16
 167              		.loc 1 188 0
 168 0006 2368     		ldr	r3, [r4]
 169 0008 0193     		str	r3, [sp, #4]
 170              		.loc 1 189 0
 171 000a 40F24C40 		movw	r0, #1100
ARM GAS  C:\Users\rosendo\AppData\Local\Temp\cc7e3neq.s 			page 4


 172 000e FFF7FEFF 		bl	left_motor_set_speed
 173              	.LVL2:
 174              		.loc 1 190 0
 175 0012 019A     		ldr	r2, [sp, #4]
 176 0014 2368     		ldr	r3, [r4]
 177 0016 9A42     		cmp	r2, r3
 178 0018 06D1     		bne	.L18
 179 001a 40F24C40 		movw	r0, #1100
 180              		.loc 1 191 0
 181 001e 02B0     		add	sp, sp, #8
 182              		.cfi_remember_state
 183              		.cfi_def_cfa_offset 8
 184              		@ sp needed
 185 0020 BDE81040 		pop	{r4, lr}
 186              		.cfi_restore 14
 187              		.cfi_restore 4
 188              		.cfi_def_cfa_offset 0
 189              		.loc 1 190 0
 190 0024 FFF7FEBF 		b	right_motor_set_speed
 191              	.LVL3:
 192              	.L18:
 193              		.cfi_restore_state
 194 0028 FFF7FEFF 		bl	__stack_chk_fail
 195              	.LVL4:
 196              	.L20:
 197              		.align	2
 198              	.L19:
 199 002c 00000000 		.word	__stack_chk_guard
 200              		.cfi_endproc
 201              	.LFE260:
 202              		.size	shoot, .-shoot
 203              		.section	.text.set_angle_obj,"ax",%progbits
 204              		.align	1
 205              		.p2align 4,,15
 206              		.global	set_angle_obj
 207              		.syntax unified
 208              		.thumb
 209              		.thumb_func
 210              		.fpu fpv4-sp-d16
 211              		.type	set_angle_obj, %function
 212              	set_angle_obj:
 213              	.LFB261:
 214              		.loc 1 193 0
 215              		.cfi_startproc
 216              		@ args = 0, pretend = 0, frame = 8
 217              		@ frame_needed = 0, uses_anonymous_args = 0
 218              	.LVL5:
 219 0000 10B5     		push	{r4, lr}
 220              		.cfi_def_cfa_offset 8
 221              		.cfi_offset 4, -8
 222              		.cfi_offset 14, -4
 223 0002 0B4B     		ldr	r3, .L25
 224              		.loc 1 194 0
 225 0004 0B4C     		ldr	r4, .L25+4
 226              		.loc 1 193 0
 227 0006 1A68     		ldr	r2, [r3]
 228              		.loc 1 195 0
ARM GAS  C:\Users\rosendo\AppData\Local\Temp\cc7e3neq.s 			page 5


 229 0008 0B49     		ldr	r1, .L25+8
 230              		.loc 1 193 0
 231 000a 82B0     		sub	sp, sp, #8
 232              		.cfi_def_cfa_offset 16
 233              		.loc 1 195 0
 234 000c 07EE900A 		vmov	s15, r0	@ int
 235              		.loc 1 193 0
 236 0010 0192     		str	r2, [sp, #4]
 237              		.loc 1 196 0
 238 0012 019A     		ldr	r2, [sp, #4]
 239 0014 1B68     		ldr	r3, [r3]
 240              		.loc 1 195 0
 241 0016 F8EE677A 		vcvt.f32.u32	s15, s15
 242              		.loc 1 194 0
 243 001a 0020     		movs	r0, #0
 244              	.LVL6:
 245              		.loc 1 196 0
 246 001c 9A42     		cmp	r2, r3
 247              		.loc 1 194 0
 248 001e 2070     		strb	r0, [r4]
 249              		.loc 1 195 0
 250 0020 C1ED007A 		vstr.32	s15, [r1]
 251              		.loc 1 196 0
 252 0024 01D1     		bne	.L24
 253 0026 02B0     		add	sp, sp, #8
 254              		.cfi_remember_state
 255              		.cfi_def_cfa_offset 8
 256              		@ sp needed
 257 0028 10BD     		pop	{r4, pc}
 258              	.L24:
 259              		.cfi_restore_state
 260 002a FFF7FEFF 		bl	__stack_chk_fail
 261              	.LVL7:
 262              	.L26:
 263 002e 00BF     		.align	2
 264              	.L25:
 265 0030 00000000 		.word	__stack_chk_guard
 266 0034 00000000 		.word	.LANCHOR3
 267 0038 00000000 		.word	.LANCHOR4
 268              		.cfi_endproc
 269              	.LFE261:
 270              		.size	set_angle_obj, .-set_angle_obj
 271              		.section	.text.set_distance_forward,"ax",%progbits
 272              		.align	1
 273              		.p2align 4,,15
 274              		.global	set_distance_forward
 275              		.syntax unified
 276              		.thumb
 277              		.thumb_func
 278              		.fpu fpv4-sp-d16
 279              		.type	set_distance_forward, %function
 280              	set_distance_forward:
 281              	.LFB262:
 282              		.loc 1 198 0
 283              		.cfi_startproc
 284              		@ args = 0, pretend = 0, frame = 8
 285              		@ frame_needed = 0, uses_anonymous_args = 0
ARM GAS  C:\Users\rosendo\AppData\Local\Temp\cc7e3neq.s 			page 6


 286              	.LVL8:
 287 0000 70B5     		push	{r4, r5, r6, lr}
 288              		.cfi_def_cfa_offset 16
 289              		.cfi_offset 4, -16
 290              		.cfi_offset 5, -12
 291              		.cfi_offset 6, -8
 292              		.cfi_offset 14, -4
 293 0002 2DED028B 		vpush.64	{d8}
 294              		.cfi_def_cfa_offset 24
 295              		.cfi_offset 80, -24
 296              		.cfi_offset 81, -20
 297              		.loc 1 200 0
 298 0006 1A4B     		ldr	r3, .L31
 299 0008 DFED1A6A 		vldr.32	s13, .L31+4
 300 000c D3ED007A 		vldr.32	s15, [r3]
 301 0010 9FED197A 		vldr.32	s14, .L31+8
 302              		.loc 1 198 0
 303 0014 194D     		ldr	r5, .L31+12
 304              		.loc 1 199 0
 305 0016 1A4B     		ldr	r3, .L31+16
 306              		.loc 1 198 0
 307 0018 2A68     		ldr	r2, [r5]
 308              		.loc 1 200 0
 309 001a 1A4E     		ldr	r6, .L31+20
 310 001c 1A4C     		ldr	r4, .L31+24
 311 001e 67EEA67A 		vmul.f32	s15, s15, s13
 312              		.loc 1 198 0
 313 0022 82B0     		sub	sp, sp, #8
 314              		.cfi_def_cfa_offset 32
 315              		.loc 1 200 0
 316 0024 C7EE878A 		vdiv.f32	s17, s15, s14
 317              		.loc 1 198 0
 318 0028 0192     		str	r2, [sp, #4]
 319              		.loc 1 199 0
 320 002a 0022     		movs	r2, #0
 321 002c 1A70     		strb	r2, [r3]
 322              		.loc 1 198 0
 323 002e B0EE408A 		vmov.f32	s16, s0
 324              		.loc 1 200 0
 325 0032 B0EE680A 		vmov.f32	s0, s17
 326              	.LVL9:
 327 0036 FFF7FEFF 		bl	cosf
 328              	.LVL10:
 329 003a D6ED007A 		vldr.32	s15, [r6]
 330 003e E0EE087A 		vfma.f32	s15, s0, s16
 331              		.loc 1 201 0
 332 0042 B0EE680A 		vmov.f32	s0, s17
 333              		.loc 1 200 0
 334 0046 C4ED007A 		vstr.32	s15, [r4]
 335              		.loc 1 201 0
 336 004a FFF7FEFF 		bl	sinf
 337              	.LVL11:
 338 004e D6ED017A 		vldr.32	s15, [r6, #4]
 339              		.loc 1 202 0
 340 0052 019A     		ldr	r2, [sp, #4]
 341 0054 2B68     		ldr	r3, [r5]
 342              		.loc 1 201 0
ARM GAS  C:\Users\rosendo\AppData\Local\Temp\cc7e3neq.s 			page 7


 343 0056 E0EE087A 		vfma.f32	s15, s0, s16
 344              		.loc 1 202 0
 345 005a 9A42     		cmp	r2, r3
 346              		.loc 1 201 0
 347 005c C4ED017A 		vstr.32	s15, [r4, #4]
 348              		.loc 1 202 0
 349 0060 03D1     		bne	.L30
 350 0062 02B0     		add	sp, sp, #8
 351              		.cfi_remember_state
 352              		.cfi_def_cfa_offset 24
 353              		@ sp needed
 354 0064 BDEC028B 		vldm	sp!, {d8}
 355              		.cfi_restore 80
 356              		.cfi_restore 81
 357              		.cfi_def_cfa_offset 16
 358              	.LVL12:
 359 0068 70BD     		pop	{r4, r5, r6, pc}
 360              	.LVL13:
 361              	.L30:
 362              		.cfi_restore_state
 363 006a FFF7FEFF 		bl	__stack_chk_fail
 364              	.LVL14:
 365              	.L32:
 366 006e 00BF     		.align	2
 367              	.L31:
 368 0070 00000000 		.word	.LANCHOR2
 369 0074 DB0F4940 		.word	1078530011
 370 0078 00003443 		.word	1127481344
 371 007c 00000000 		.word	__stack_chk_guard
 372 0080 00000000 		.word	.LANCHOR5
 373 0084 00000000 		.word	.LANCHOR1
 374 0088 00000000 		.word	.LANCHOR6
 375              		.cfi_endproc
 376              	.LFE262:
 377              		.size	set_distance_forward, .-set_distance_forward
 378              		.section	.text.set_position_obj,"ax",%progbits
 379              		.align	1
 380              		.p2align 4,,15
 381              		.global	set_position_obj
 382              		.syntax unified
 383              		.thumb
 384              		.thumb_func
 385              		.fpu fpv4-sp-d16
 386              		.type	set_position_obj, %function
 387              	set_position_obj:
 388              	.LFB263:
 389              		.loc 1 204 0
 390              		.cfi_startproc
 391              		@ args = 0, pretend = 0, frame = 8
 392              		@ frame_needed = 0, uses_anonymous_args = 0
 393              	.LVL15:
 394 0000 30B5     		push	{r4, r5, lr}
 395              		.cfi_def_cfa_offset 12
 396              		.cfi_offset 4, -12
 397              		.cfi_offset 5, -8
 398              		.cfi_offset 14, -4
 399              		.loc 1 207 0
ARM GAS  C:\Users\rosendo\AppData\Local\Temp\cc7e3neq.s 			page 8


 400 0002 B0F90020 		ldrsh	r2, [r0]
 401 0006 214B     		ldr	r3, .L37
 402              		.loc 1 204 0
 403 0008 214D     		ldr	r5, .L37+4
 404              		.loc 1 207 0
 405 000a 93ED007A 		vldr.32	s14, [r3]
 406 000e D3ED017A 		vldr.32	s15, [r3, #4]
 407              		.loc 1 205 0
 408 0012 2049     		ldr	r1, .L37+8
 409              		.loc 1 204 0
 410 0014 2B68     		ldr	r3, [r5]
 411              		.loc 1 207 0
 412 0016 00EE902A 		vmov	s1, r2	@ int
 413 001a B0F90220 		ldrsh	r2, [r0, #2]
 414 001e 00EE102A 		vmov	s0, r2	@ int
 415              		.loc 1 204 0
 416 0022 83B0     		sub	sp, sp, #12
 417              		.cfi_def_cfa_offset 24
 418              		.loc 1 207 0
 419 0024 F8EEE00A 		vcvt.f32.s32	s1, s1
 420 0028 B8EEC00A 		vcvt.f32.s32	s0, s0
 421              		.loc 1 206 0
 422 002c 1A4A     		ldr	r2, .L37+12
 423              		.loc 1 204 0
 424 002e 0193     		str	r3, [sp, #4]
 425              		.loc 1 207 0
 426 0030 70EEC70A 		vsub.f32	s1, s1, s14
 427              		.loc 1 205 0
 428 0034 0023     		movs	r3, #0
 429              		.loc 1 207 0
 430 0036 30EE670A 		vsub.f32	s0, s0, s15
 431              		.loc 1 204 0
 432 003a 0446     		mov	r4, r0
 433              		.loc 1 205 0
 434 003c 0B70     		strb	r3, [r1]
 435              		.loc 1 206 0
 436 003e 1370     		strb	r3, [r2]
 437              		.loc 1 207 0
 438 0040 FFF7FEFF 		bl	atan2f
 439              	.LVL16:
 440 0044 9FED157A 		vldr.32	s14, .L37+16
 441 0048 DFED156A 		vldr.32	s13, .L37+20
 442              		.loc 1 208 0
 443 004c B4F90030 		ldrsh	r3, [r4]
 444              		.loc 1 210 0
 445 0050 0199     		ldr	r1, [sp, #4]
 446 0052 2A68     		ldr	r2, [r5]
 447              		.loc 1 207 0
 448 0054 1348     		ldr	r0, .L37+24
 449 0056 20EE070A 		vmul.f32	s0, s0, s14
 450              		.loc 1 208 0
 451 005a 07EE903A 		vmov	s15, r3	@ int
 452              		.loc 1 207 0
 453 005e 80EE267A 		vdiv.f32	s14, s0, s13
 454              		.loc 1 208 0
 455 0062 114B     		ldr	r3, .L37+28
 456              		.loc 1 210 0
ARM GAS  C:\Users\rosendo\AppData\Local\Temp\cc7e3neq.s 			page 9


 457 0064 9142     		cmp	r1, r2
 458              		.loc 1 208 0
 459 0066 F8EEE77A 		vcvt.f32.s32	s15, s15
 460              		.loc 1 207 0
 461 006a 80ED007A 		vstr.32	s14, [r0]
 462              		.loc 1 208 0
 463 006e C3ED007A 		vstr.32	s15, [r3]
 464              		.loc 1 209 0
 465 0072 B4F90240 		ldrsh	r4, [r4, #2]
 466              	.LVL17:
 467 0076 07EE904A 		vmov	s15, r4	@ int
 468 007a F8EEE77A 		vcvt.f32.s32	s15, s15
 469 007e C3ED017A 		vstr.32	s15, [r3, #4]
 470              		.loc 1 210 0
 471 0082 01D1     		bne	.L36
 472 0084 03B0     		add	sp, sp, #12
 473              		.cfi_remember_state
 474              		.cfi_def_cfa_offset 12
 475              		@ sp needed
 476 0086 30BD     		pop	{r4, r5, pc}
 477              	.L36:
 478              		.cfi_restore_state
 479 0088 FFF7FEFF 		bl	__stack_chk_fail
 480              	.LVL18:
 481              	.L38:
 482              		.align	2
 483              	.L37:
 484 008c 00000000 		.word	.LANCHOR1
 485 0090 00000000 		.word	__stack_chk_guard
 486 0094 00000000 		.word	.LANCHOR3
 487 0098 00000000 		.word	.LANCHOR5
 488 009c 00003443 		.word	1127481344
 489 00a0 DB0F4940 		.word	1078530011
 490 00a4 00000000 		.word	.LANCHOR4
 491 00a8 00000000 		.word	.LANCHOR6
 492              		.cfi_endproc
 493              	.LFE263:
 494              		.size	set_position_obj, .-set_position_obj
 495              		.section	.text.set_rotation_speed,"ax",%progbits
 496              		.align	1
 497              		.p2align 4,,15
 498              		.global	set_rotation_speed
 499              		.syntax unified
 500              		.thumb
 501              		.thumb_func
 502              		.fpu fpv4-sp-d16
 503              		.type	set_rotation_speed, %function
 504              	set_rotation_speed:
 505              	.LFB264:
 506              		.loc 1 212 0
 507              		.cfi_startproc
 508              		@ args = 0, pretend = 0, frame = 8
 509              		@ frame_needed = 0, uses_anonymous_args = 0
 510              	.LVL19:
 511 0000 70B5     		push	{r4, r5, r6, lr}
 512              		.cfi_def_cfa_offset 16
 513              		.cfi_offset 4, -16
ARM GAS  C:\Users\rosendo\AppData\Local\Temp\cc7e3neq.s 			page 10


 514              		.cfi_offset 5, -12
 515              		.cfi_offset 6, -8
 516              		.cfi_offset 14, -4
 517 0002 124C     		ldr	r4, .L48
 518              		.loc 1 213 0
 519 0004 124D     		ldr	r5, .L48+4
 520              		.loc 1 212 0
 521 0006 2368     		ldr	r3, [r4]
 522              		.loc 1 214 0
 523 0008 124A     		ldr	r2, .L48+8
 524              		.loc 1 212 0
 525 000a 82B0     		sub	sp, sp, #8
 526              		.cfi_def_cfa_offset 24
 527 000c 4642     		negs	r6, r0
 528              		.loc 1 212 0
 529 000e 0193     		str	r3, [sp, #4]
 530              		.loc 1 213 0
 531 0010 0123     		movs	r3, #1
 532 0012 2B70     		strb	r3, [r5]
 533              		.loc 1 214 0
 534 0014 1370     		strb	r3, [r2]
 535              		.loc 1 215 0
 536 0016 71B9     		cbnz	r1, .L47
 537 0018 0546     		mov	r5, r0
 538              		.loc 1 219 0
 539 001a 3046     		mov	r0, r6
 540              	.LVL20:
 541 001c FFF7FEFF 		bl	left_motor_set_speed
 542              	.LVL21:
 543              		.loc 1 220 0
 544 0020 019A     		ldr	r2, [sp, #4]
 545 0022 2368     		ldr	r3, [r4]
 546 0024 9A42     		cmp	r2, r3
 547 0026 08BF     		it	eq
 548 0028 2846     		moveq	r0, r5
 549 002a 0CD1     		bne	.L46
 550              	.L45:
 551              		.loc 1 222 0
 552 002c 02B0     		add	sp, sp, #8
 553              		.cfi_remember_state
 554              		.cfi_def_cfa_offset 16
 555              		@ sp needed
 556 002e BDE87040 		pop	{r4, r5, r6, lr}
 557              		.cfi_restore 14
 558              		.cfi_restore 6
 559              		.cfi_restore 5
 560              		.cfi_restore 4
 561              		.cfi_def_cfa_offset 0
 562              		.loc 1 220 0
 563 0032 FFF7FEBF 		b	right_motor_set_speed
 564              	.LVL22:
 565              	.L47:
 566              		.cfi_restore_state
 567              		.loc 1 216 0
 568 0036 FFF7FEFF 		bl	left_motor_set_speed
 569              	.LVL23:
 570              		.loc 1 217 0
ARM GAS  C:\Users\rosendo\AppData\Local\Temp\cc7e3neq.s 			page 11


 571 003a 019A     		ldr	r2, [sp, #4]
 572 003c 2368     		ldr	r3, [r4]
 573 003e 9A42     		cmp	r2, r3
 574 0040 08BF     		it	eq
 575 0042 3046     		moveq	r0, r6
 576 0044 F2D0     		beq	.L45
 577              	.L46:
 578              		.loc 1 220 0
 579 0046 FFF7FEFF 		bl	__stack_chk_fail
 580              	.LVL24:
 581              	.L49:
 582 004a 00BF     		.align	2
 583              	.L48:
 584 004c 00000000 		.word	__stack_chk_guard
 585 0050 00000000 		.word	.LANCHOR3
 586 0054 00000000 		.word	.LANCHOR5
 587              		.cfi_endproc
 588              	.LFE264:
 589              		.size	set_rotation_speed, .-set_rotation_speed
 590              		.section	.text.set_intermediate_point,"ax",%progbits
 591              		.align	1
 592              		.p2align 4,,15
 593              		.global	set_intermediate_point
 594              		.syntax unified
 595              		.thumb
 596              		.thumb_func
 597              		.fpu fpv4-sp-d16
 598              		.type	set_intermediate_point, %function
 599              	set_intermediate_point:
 600              	.LFB265:
 601              		.loc 1 224 0
 602              		.cfi_startproc
 603              		@ args = 0, pretend = 0, frame = 8
 604              		@ frame_needed = 0, uses_anonymous_args = 0
 605              	.LVL25:
 606 0000 30B5     		push	{r4, r5, lr}
 607              		.cfi_def_cfa_offset 12
 608              		.cfi_offset 4, -12
 609              		.cfi_offset 5, -8
 610              		.cfi_offset 14, -4
 611              		.loc 1 227 0
 612 0002 B0F90020 		ldrsh	r2, [r0]
 613 0006 214B     		ldr	r3, .L54
 614              		.loc 1 224 0
 615 0008 214D     		ldr	r5, .L54+4
 616              		.loc 1 227 0
 617 000a 93ED007A 		vldr.32	s14, [r3]
 618 000e D3ED017A 		vldr.32	s15, [r3, #4]
 619              		.loc 1 225 0
 620 0012 2049     		ldr	r1, .L54+8
 621              		.loc 1 224 0
 622 0014 2B68     		ldr	r3, [r5]
 623              		.loc 1 227 0
 624 0016 00EE902A 		vmov	s1, r2	@ int
 625 001a B0F90220 		ldrsh	r2, [r0, #2]
 626 001e 00EE102A 		vmov	s0, r2	@ int
 627              		.loc 1 224 0
ARM GAS  C:\Users\rosendo\AppData\Local\Temp\cc7e3neq.s 			page 12


 628 0022 83B0     		sub	sp, sp, #12
 629              		.cfi_def_cfa_offset 24
 630              		.loc 1 227 0
 631 0024 F8EEE00A 		vcvt.f32.s32	s1, s1
 632 0028 B8EEC00A 		vcvt.f32.s32	s0, s0
 633              		.loc 1 226 0
 634 002c 1A4A     		ldr	r2, .L54+12
 635              		.loc 1 224 0
 636 002e 0193     		str	r3, [sp, #4]
 637              		.loc 1 227 0
 638 0030 70EEC70A 		vsub.f32	s1, s1, s14
 639              		.loc 1 225 0
 640 0034 0023     		movs	r3, #0
 641              		.loc 1 227 0
 642 0036 30EE670A 		vsub.f32	s0, s0, s15
 643              		.loc 1 224 0
 644 003a 0446     		mov	r4, r0
 645              		.loc 1 225 0
 646 003c 0B70     		strb	r3, [r1]
 647              		.loc 1 226 0
 648 003e 1370     		strb	r3, [r2]
 649              		.loc 1 227 0
 650 0040 FFF7FEFF 		bl	atan2f
 651              	.LVL26:
 652 0044 9FED157A 		vldr.32	s14, .L54+16
 653 0048 DFED156A 		vldr.32	s13, .L54+20
 654              		.loc 1 228 0
 655 004c B4F90030 		ldrsh	r3, [r4]
 656              		.loc 1 230 0
 657 0050 0199     		ldr	r1, [sp, #4]
 658 0052 2A68     		ldr	r2, [r5]
 659              		.loc 1 227 0
 660 0054 1348     		ldr	r0, .L54+24
 661 0056 20EE070A 		vmul.f32	s0, s0, s14
 662              		.loc 1 228 0
 663 005a 07EE903A 		vmov	s15, r3	@ int
 664              		.loc 1 227 0
 665 005e 80EE267A 		vdiv.f32	s14, s0, s13
 666              		.loc 1 228 0
 667 0062 114B     		ldr	r3, .L54+28
 668              		.loc 1 230 0
 669 0064 9142     		cmp	r1, r2
 670              		.loc 1 228 0
 671 0066 F8EEE77A 		vcvt.f32.s32	s15, s15
 672              		.loc 1 227 0
 673 006a 80ED007A 		vstr.32	s14, [r0]
 674              		.loc 1 228 0
 675 006e C3ED007A 		vstr.32	s15, [r3]
 676              		.loc 1 229 0
 677 0072 B4F90240 		ldrsh	r4, [r4, #2]
 678              	.LVL27:
 679 0076 07EE904A 		vmov	s15, r4	@ int
 680 007a F8EEE77A 		vcvt.f32.s32	s15, s15
 681 007e C3ED017A 		vstr.32	s15, [r3, #4]
 682              		.loc 1 230 0
 683 0082 01D1     		bne	.L53
 684 0084 03B0     		add	sp, sp, #12
ARM GAS  C:\Users\rosendo\AppData\Local\Temp\cc7e3neq.s 			page 13


 685              		.cfi_remember_state
 686              		.cfi_def_cfa_offset 12
 687              		@ sp needed
 688 0086 30BD     		pop	{r4, r5, pc}
 689              	.L53:
 690              		.cfi_restore_state
 691 0088 FFF7FEFF 		bl	__stack_chk_fail
 692              	.LVL28:
 693              	.L55:
 694              		.align	2
 695              	.L54:
 696 008c 00000000 		.word	.LANCHOR1
 697 0090 00000000 		.word	__stack_chk_guard
 698 0094 00000000 		.word	.LANCHOR7
 699 0098 00000000 		.word	.LANCHOR3
 700 009c 00003443 		.word	1127481344
 701 00a0 DB0F4940 		.word	1078530011
 702 00a4 00000000 		.word	.LANCHOR4
 703 00a8 00000000 		.word	.LANCHOR8
 704              		.cfi_endproc
 705              	.LFE265:
 706              		.size	set_intermediate_point, .-set_intermediate_point
 707              		.section	.text.continue_main_obj,"ax",%progbits
 708              		.align	1
 709              		.p2align 4,,15
 710              		.global	continue_main_obj
 711              		.syntax unified
 712              		.thumb
 713              		.thumb_func
 714              		.fpu fpv4-sp-d16
 715              		.type	continue_main_obj, %function
 716              	continue_main_obj:
 717              	.LFB266:
 718              		.loc 1 232 0
 719              		.cfi_startproc
 720              		@ args = 0, pretend = 0, frame = 8
 721              		@ frame_needed = 0, uses_anonymous_args = 0
 722 0000 10B5     		push	{r4, lr}
 723              		.cfi_def_cfa_offset 8
 724              		.cfi_offset 4, -8
 725              		.cfi_offset 14, -4
 726              		.loc 1 234 0
 727 0002 104B     		ldr	r3, .L60
 728              		.loc 1 232 0
 729 0004 104C     		ldr	r4, .L60+4
 730              		.loc 1 234 0
 731 0006 93ED007A 		vldr.32	s14, [r3]
 732              		.loc 1 235 0
 733 000a D3ED017A 		vldr.32	s15, [r3, #4]
 734              		.loc 1 232 0
 735 000e 2368     		ldr	r3, [r4]
 736 0010 82B0     		sub	sp, sp, #8
 737              		.cfi_def_cfa_offset 16
 738              		.loc 1 234 0
 739 0012 BDEEC77A 		vcvt.s32.f32	s14, s14
 740              		.loc 1 232 0
 741 0016 0193     		str	r3, [sp, #4]
ARM GAS  C:\Users\rosendo\AppData\Local\Temp\cc7e3neq.s 			page 14


 742              		.loc 1 235 0
 743 0018 FDEEE77A 		vcvt.s32.f32	s15, s15
 744              		.loc 1 234 0
 745 001c 17EE103A 		vmov	r3, s14	@ int
 746 0020 ADF80030 		strh	r3, [sp]	@ movhi
 747              		.loc 1 235 0
 748 0024 17EE903A 		vmov	r3, s15	@ int
 749              		.loc 1 236 0
 750 0028 6846     		mov	r0, sp
 751              		.loc 1 235 0
 752 002a ADF80230 		strh	r3, [sp, #2]	@ movhi
 753              		.loc 1 236 0
 754 002e FFF7FEFF 		bl	set_position_obj
 755              	.LVL29:
 756              		.loc 1 237 0
 757 0032 019A     		ldr	r2, [sp, #4]
 758 0034 2368     		ldr	r3, [r4]
 759 0036 9A42     		cmp	r2, r3
 760 0038 01D1     		bne	.L59
 761 003a 02B0     		add	sp, sp, #8
 762              		.cfi_remember_state
 763              		.cfi_def_cfa_offset 8
 764              		@ sp needed
 765 003c 10BD     		pop	{r4, pc}
 766              	.L59:
 767              		.cfi_restore_state
 768 003e FFF7FEFF 		bl	__stack_chk_fail
 769              	.LVL30:
 770              	.L61:
 771 0042 00BF     		.align	2
 772              	.L60:
 773 0044 00000000 		.word	.LANCHOR6
 774 0048 00000000 		.word	__stack_chk_guard
 775              		.cfi_endproc
 776              	.LFE266:
 777              		.size	continue_main_obj, .-continue_main_obj
 778              		.global	__aeabi_f2d
 779              		.global	__aeabi_dsub
 780              		.global	__aeabi_d2iz
 781              		.global	__aeabi_d2f
 782              		.section	.text.get_angle_difference,"ax",%progbits
 783              		.align	1
 784              		.p2align 4,,15
 785              		.global	get_angle_difference
 786              		.syntax unified
 787              		.thumb
 788              		.thumb_func
 789              		.fpu fpv4-sp-d16
 790              		.type	get_angle_difference, %function
 791              	get_angle_difference:
 792              	.LFB267:
 793              		.loc 1 239 0
 794              		.cfi_startproc
 795              		@ args = 0, pretend = 0, frame = 16
 796              		@ frame_needed = 0, uses_anonymous_args = 0
 797              	.LVL31:
 798 0000 F0B5     		push	{r4, r5, r6, r7, lr}
ARM GAS  C:\Users\rosendo\AppData\Local\Temp\cc7e3neq.s 			page 15


 799              		.cfi_def_cfa_offset 20
 800              		.cfi_offset 4, -20
 801              		.cfi_offset 5, -16
 802              		.cfi_offset 6, -12
 803              		.cfi_offset 7, -8
 804              		.cfi_offset 14, -4
 805              		.loc 1 240 0
 806 0002 F5EEC00A 		vcmpe.f32	s1, #0
 807 0006 F1EE10FA 		vmrs	APSR_nzcv, FPSCR
 808              		.loc 1 241 0
 809 000a 48BF     		it	mi
 810 000c DFED3E7A 		vldrmi.32	s15, .L73+8
 811              		.loc 1 239 0
 812 0010 3E4D     		ldr	r5, .L73+12
 813              		.loc 1 243 0
 814 0012 B5EEC00A 		vcmpe.f32	s0, #0
 815              		.loc 1 239 0
 816 0016 2DED068B 		vpush.64	{d8, d9, d10}
 817              		.cfi_def_cfa_offset 44
 818              		.cfi_offset 80, -44
 819              		.cfi_offset 81, -40
 820              		.cfi_offset 82, -36
 821              		.cfi_offset 83, -32
 822              		.cfi_offset 84, -28
 823              		.cfi_offset 85, -24
 824 001a F0EE608A 		vmov.f32	s17, s1
 825              		.loc 1 241 0
 826 001e 48BF     		it	mi
 827 0020 70EEA78A 		vaddmi.f32	s17, s1, s15
 828              	.LVL32:
 829              		.loc 1 243 0
 830 0024 F1EE10FA 		vmrs	APSR_nzcv, FPSCR
 831              		.loc 1 244 0
 832 0028 48BF     		it	mi
 833 002a DFED377A 		vldrmi.32	s15, .L73+8
 834              		.loc 1 246 0
 835 002e 9FED389A 		vldr.32	s18, .L73+16
 836              		.loc 1 239 0
 837 0032 2B68     		ldr	r3, [r5]
 838              		.loc 1 244 0
 839 0034 48BF     		it	mi
 840 0036 30EE270A 		vaddmi.f32	s0, s0, s15
 841              	.LVL33:
 842              		.loc 1 239 0
 843 003a 85B0     		sub	sp, sp, #20
 844              		.cfi_def_cfa_offset 64
 845              		.loc 1 246 0
 846 003c 70EE097A 		vadd.f32	s15, s0, s18
 847              		.loc 1 239 0
 848 0040 0393     		str	r3, [sp, #12]
 849              		.loc 1 246 0
 850 0042 17EE900A 		vmov	r0, s15
 851 0046 30EE688A 		vsub.f32	s16, s0, s17
 852 004a FFF7FEFF 		bl	__aeabi_f2d
 853              	.LVL34:
 854 004e 9FED2C1B 		vldr.64	d1, .L73
 855 0052 41EC100B 		vmov	d0, r0, r1
ARM GAS  C:\Users\rosendo\AppData\Local\Temp\cc7e3neq.s 			page 16


 856 0056 41EC1A0B 		vmov	d10, r0, r1
 857 005a FFF7FEFF 		bl	fmod
 858              	.LVL35:
 859 005e 78EE897A 		vadd.f32	s15, s17, s18
 860 0062 57EC106B 		vmov	r6, r7, d0
 861 0066 17EE900A 		vmov	r0, s15
 862 006a FFF7FEFF 		bl	__aeabi_f2d
 863              	.LVL36:
 864 006e 9FED241B 		vldr.64	d1, .L73
 865 0072 41EC100B 		vmov	d0, r0, r1
 866 0076 41EC190B 		vmov	d9, r0, r1
 867 007a FFF7FEFF 		bl	fmod
 868              	.LVL37:
 869 007e FDEEC87A 		vcvt.s32.f32	s15, s16
 870 0082 53EC102B 		vmov	r2, r3, d0
 871 0086 17EE904A 		vmov	r4, s15	@ int
 872 008a 3046     		mov	r0, r6
 873 008c 002C     		cmp	r4, #0
 874 008e 3946     		mov	r1, r7
 875 0090 B8BF     		it	lt
 876 0092 6442     		rsblt	r4, r4, #0
 877 0094 FFF7FEFF 		bl	__aeabi_dsub
 878              	.LVL38:
 879 0098 FFF7FEFF 		bl	__aeabi_d2iz
 880              	.LVL39:
 881 009c 0028     		cmp	r0, #0
 882 009e B8BF     		it	lt
 883 00a0 4042     		rsblt	r0, r0, #0
 884 00a2 8442     		cmp	r4, r0
 885 00a4 1DDB     		blt	.L62
 886              		.loc 1 249 0
 887 00a6 B0EE4A0A 		vmov.f32	s0, s20
 888 00aa F0EE6A0A 		vmov.f32	s1, s21
 889 00ae 9FED141B 		vldr.64	d1, .L73
 890 00b2 FFF7FEFF 		bl	fmod
 891              	.LVL40:
 892 00b6 51EC100B 		vmov	r0, r1, d0
 893 00ba B0EE490A 		vmov.f32	s0, s18
 894 00be F0EE690A 		vmov.f32	s1, s19
 895 00c2 9FED0F1B 		vldr.64	d1, .L73
 896 00c6 CDE90001 		strd	r0, [sp]
 897 00ca FFF7FEFF 		bl	fmod
 898              	.LVL41:
 899 00ce DDE90001 		ldrd	r0, [sp]
 900 00d2 53EC102B 		vmov	r2, r3, d0
 901 00d6 FFF7FEFF 		bl	__aeabi_dsub
 902              	.LVL42:
 903 00da FFF7FEFF 		bl	__aeabi_d2f
 904              	.LVL43:
 905 00de 08EE100A 		vmov	s16, r0
 906              	.L62:
 907              		.loc 1 251 0
 908 00e2 039A     		ldr	r2, [sp, #12]
 909 00e4 2B68     		ldr	r3, [r5]
 910 00e6 9A42     		cmp	r2, r3
 911 00e8 B0EE480A 		vmov.f32	s0, s16
 912 00ec 03D1     		bne	.L72
ARM GAS  C:\Users\rosendo\AppData\Local\Temp\cc7e3neq.s 			page 17


 913 00ee 05B0     		add	sp, sp, #20
 914              		.cfi_remember_state
 915              		.cfi_def_cfa_offset 44
 916              		@ sp needed
 917 00f0 BDEC068B 		vldm	sp!, {d8-d10}
 918              		.cfi_restore 84
 919              		.cfi_restore 85
 920              		.cfi_restore 82
 921              		.cfi_restore 83
 922              		.cfi_restore 80
 923              		.cfi_restore 81
 924              		.cfi_def_cfa_offset 20
 925 00f4 F0BD     		pop	{r4, r5, r6, r7, pc}
 926              	.L72:
 927              		.cfi_restore_state
 928 00f6 FFF7FEFF 		bl	__stack_chk_fail
 929              	.LVL44:
 930              	.L74:
 931 00fa 00BFAFF3 		.align	3
 931      0080
 932              	.L73:
 933 0100 00000000 		.word	0
 934 0104 00807640 		.word	1081507840
 935 0108 0000B443 		.word	1135869952
 936 010c 00000000 		.word	__stack_chk_guard
 937 0110 00003443 		.word	1127481344
 938              		.cfi_endproc
 939              	.LFE267:
 940              		.size	get_angle_difference, .-get_angle_difference
 941              		.section	.text.get_position_difference,"ax",%progbits
 942              		.align	1
 943              		.p2align 4,,15
 944              		.global	get_position_difference
 945              		.syntax unified
 946              		.thumb
 947              		.thumb_func
 948              		.fpu fpv4-sp-d16
 949              		.type	get_position_difference, %function
 950              	get_position_difference:
 951              	.LFB268:
 952              		.loc 1 253 0
 953              		.cfi_startproc
 954              		@ args = 0, pretend = 0, frame = 8
 955              		@ frame_needed = 0, uses_anonymous_args = 0
 956              	.LVL45:
 957 0000 70B5     		push	{r4, r5, r6, lr}
 958              		.cfi_def_cfa_offset 16
 959              		.cfi_offset 4, -16
 960              		.cfi_offset 5, -12
 961              		.cfi_offset 6, -8
 962              		.cfi_offset 14, -4
 963 0002 2DED028B 		vpush.64	{d8}
 964              		.cfi_def_cfa_offset 24
 965              		.cfi_offset 80, -24
 966              		.cfi_offset 81, -20
 967 0006 404E     		ldr	r6, .L86
 968              		.loc 1 256 0
ARM GAS  C:\Users\rosendo\AppData\Local\Temp\cc7e3neq.s 			page 18


 969 0008 90ED007A 		vldr.32	s14, [r0]
 970 000c D0ED017A 		vldr.32	s15, [r0, #4]
 971 0010 D1ED000A 		vldr.32	s1, [r1]
 972 0014 91ED010A 		vldr.32	s0, [r1, #4]
 973              		.loc 1 253 0
 974 0018 3368     		ldr	r3, [r6]
 975 001a 82B0     		sub	sp, sp, #8
 976              		.cfi_def_cfa_offset 32
 977              		.loc 1 256 0
 978 001c 70EEC70A 		vsub.f32	s1, s1, s14
 979 0020 30EE670A 		vsub.f32	s0, s0, s15
 980              		.loc 1 253 0
 981 0024 0446     		mov	r4, r0
 982 0026 0D46     		mov	r5, r1
 983 0028 0193     		str	r3, [sp, #4]
 984              	.LVL46:
 985              		.loc 1 256 0
 986 002a FFF7FEFF 		bl	atan2f
 987              	.LVL47:
 988 002e DFED377A 		vldr.32	s15, .L86+4
 989 0032 9FED377A 		vldr.32	s14, .L86+8
 990              		.loc 1 258 0
 991 0036 374B     		ldr	r3, .L86+12
 992              		.loc 1 256 0
 993 0038 20EE270A 		vmul.f32	s0, s0, s15
 994              		.loc 1 258 0
 995 003c 93ED008A 		vldr.32	s16, [r3]
 996              		.loc 1 256 0
 997 0040 C0EE078A 		vdiv.f32	s17, s0, s14
 998              	.LVL48:
 999              		.loc 1 258 0
 1000 0044 B0EE480A 		vmov.f32	s0, s16
 1001 0048 F0EE680A 		vmov.f32	s1, s17
 1002 004c FFF7FEFF 		bl	get_angle_difference
 1003              	.LVL49:
 1004 0050 DFED317A 		vldr.32	s15, .L86+16
 1005 0054 B4EEE70A 		vcmpe.f32	s0, s15
 1006 0058 F1EE10FA 		vmrs	APSR_nzcv, FPSCR
 1007 005c 0CD5     		bpl	.L76
 1008              		.loc 1 258 0 is_stmt 0 discriminator 1
 1009 005e F0EE680A 		vmov.f32	s1, s17
 1010 0062 B0EE480A 		vmov.f32	s0, s16
 1011 0066 FFF7FEFF 		bl	get_angle_difference
 1012              	.LVL50:
 1013 006a DFED2C7A 		vldr.32	s15, .L86+20
 1014 006e B4EEE70A 		vcmpe.f32	s0, s15
 1015 0072 F1EE10FA 		vmrs	APSR_nzcv, FPSCR
 1016 0076 27DC     		bgt	.L84
 1017              	.L76:
 1018              		.loc 1 261 0 is_stmt 1
 1019 0078 94ED016A 		vldr.32	s12, [r4, #4]
 1020 007c D5ED017A 		vldr.32	s15, [r5, #4]
 1021 0080 D4ED006A 		vldr.32	s13, [r4]
 1022 0084 95ED007A 		vldr.32	s14, [r5]
 1023 0088 77EEC67A 		vsub.f32	s15, s15, s12
 1024 008c 37EE667A 		vsub.f32	s14, s14, s13
 1025 0090 67EEA77A 		vmul.f32	s15, s15, s15
ARM GAS  C:\Users\rosendo\AppData\Local\Temp\cc7e3neq.s 			page 19


 1026 0094 E7EE077A 		vfma.f32	s15, s14, s14
 1027 0098 17EE900A 		vmov	r0, s15
 1028 009c FFF7FEFF 		bl	__aeabi_f2d
 1029              	.LVL51:
 1030 00a0 41EC100B 		vmov	d0, r0, r1
 1031 00a4 FFF7FEFF 		bl	sqrt
 1032              	.LVL52:
 1033 00a8 51EC100B 		vmov	r0, r1, d0
 1034 00ac FFF7FEFF 		bl	__aeabi_d2f
 1035              	.LVL53:
 1036 00b0 80F00040 		eor	r0, r0, #-2147483648
 1037              	.L75:
 1038              		.loc 1 263 0
 1039 00b4 019A     		ldr	r2, [sp, #4]
 1040 00b6 3368     		ldr	r3, [r6]
 1041 00b8 9A42     		cmp	r2, r3
 1042 00ba 00EE100A 		vmov	s0, r0
 1043 00be 20D1     		bne	.L85
 1044 00c0 02B0     		add	sp, sp, #8
 1045              		.cfi_remember_state
 1046              		.cfi_def_cfa_offset 24
 1047              		@ sp needed
 1048 00c2 BDEC028B 		vldm	sp!, {d8}
 1049              		.cfi_restore 80
 1050              		.cfi_restore 81
 1051              		.cfi_def_cfa_offset 16
 1052 00c6 70BD     		pop	{r4, r5, r6, pc}
 1053              	.LVL54:
 1054              	.L84:
 1055              		.cfi_restore_state
 1056              		.loc 1 259 0
 1057 00c8 94ED016A 		vldr.32	s12, [r4, #4]
 1058 00cc D5ED017A 		vldr.32	s15, [r5, #4]
 1059 00d0 D4ED006A 		vldr.32	s13, [r4]
 1060 00d4 95ED007A 		vldr.32	s14, [r5]
 1061 00d8 77EEC67A 		vsub.f32	s15, s15, s12
 1062 00dc 37EE667A 		vsub.f32	s14, s14, s13
 1063 00e0 67EEA77A 		vmul.f32	s15, s15, s15
 1064 00e4 E7EE077A 		vfma.f32	s15, s14, s14
 1065 00e8 17EE900A 		vmov	r0, s15
 1066 00ec FFF7FEFF 		bl	__aeabi_f2d
 1067              	.LVL55:
 1068 00f0 41EC100B 		vmov	d0, r0, r1
 1069 00f4 FFF7FEFF 		bl	sqrt
 1070              	.LVL56:
 1071 00f8 51EC100B 		vmov	r0, r1, d0
 1072 00fc FFF7FEFF 		bl	__aeabi_d2f
 1073              	.LVL57:
 1074 0100 D8E7     		b	.L75
 1075              	.L85:
 1076              		.loc 1 263 0
 1077 0102 FFF7FEFF 		bl	__stack_chk_fail
 1078              	.LVL58:
 1079              	.L87:
 1080 0106 00BF     		.align	2
 1081              	.L86:
 1082 0108 00000000 		.word	__stack_chk_guard
ARM GAS  C:\Users\rosendo\AppData\Local\Temp\cc7e3neq.s 			page 20


 1083 010c 00003443 		.word	1127481344
 1084 0110 DB0F4940 		.word	1078530011
 1085 0114 00000000 		.word	.LANCHOR2
 1086 0118 0000B442 		.word	1119092736
 1087 011c 0000B4C2 		.word	-1028390912
 1088              		.cfi_endproc
 1089              	.LFE268:
 1090              		.size	get_position_difference, .-get_position_difference
 1091              		.section	.text.MotorsControl,"ax",%progbits
 1092              		.align	1
 1093              		.p2align 4,,15
 1094              		.syntax unified
 1095              		.thumb
 1096              		.thumb_func
 1097              		.fpu fpv4-sp-d16
 1098              		.type	MotorsControl, %function
 1099              	MotorsControl:
 1100              	.LFB257:
 1101              		.loc 1 52 0
 1102              		.cfi_startproc
 1103              		@ args = 0, pretend = 0, frame = 8
 1104              		@ frame_needed = 0, uses_anonymous_args = 0
 1105              	.LVL59:
 1106 0000 2DE9F04F 		push	{r4, r5, r6, r7, r8, r9, r10, fp, lr}
 1107              		.cfi_def_cfa_offset 36
 1108              		.cfi_offset 4, -36
 1109              		.cfi_offset 5, -32
 1110              		.cfi_offset 6, -28
 1111              		.cfi_offset 7, -24
 1112              		.cfi_offset 8, -20
 1113              		.cfi_offset 9, -16
 1114              		.cfi_offset 10, -12
 1115              		.cfi_offset 11, -8
 1116              		.cfi_offset 14, -4
 1117 0004 2DED0A8B 		vpush.64	{d8, d9, d10, d11, d12}
 1118              		.cfi_def_cfa_offset 76
 1119              		.cfi_offset 80, -76
 1120              		.cfi_offset 81, -72
 1121              		.cfi_offset 82, -68
 1122              		.cfi_offset 83, -64
 1123              		.cfi_offset 84, -60
 1124              		.cfi_offset 85, -56
 1125              		.cfi_offset 86, -52
 1126              		.cfi_offset 87, -48
 1127              		.cfi_offset 88, -44
 1128              		.cfi_offset 89, -40
 1129              	.LBB4:
 1130              	.LBB5:
 1131              		.file 2 "../../lib/e-puck2_main-processor/ChibiOS//os/rt/include/chregistry.h"
 1132              		.loc 2 135 0
 1133 0008 E14A     		ldr	r2, .L157
 1134              	.LBE5:
 1135              	.LBE4:
 1136              		.loc 1 52 0
 1137 000a E24B     		ldr	r3, .L157+4
 1138              	.LBB8:
 1139              	.LBB6:
ARM GAS  C:\Users\rosendo\AppData\Local\Temp\cc7e3neq.s 			page 21


 1140              		.loc 2 135 0
 1141 000c 9269     		ldr	r2, [r2, #24]
 1142 000e E249     		ldr	r1, .L157+8
 1143              	.LBE6:
 1144              	.LBE8:
 1145              		.loc 1 52 0
 1146 0010 1B68     		ldr	r3, [r3]
 1147              	.LBB9:
 1148              	.LBB7:
 1149              		.loc 2 135 0
 1150 0012 9161     		str	r1, [r2, #24]
 1151              	.LBE7:
 1152              	.LBE9:
 1153              		.loc 1 52 0
 1154 0014 83B0     		sub	sp, sp, #12
 1155              		.cfi_def_cfa_offset 88
 1156              		.loc 1 57 0
 1157 0016 0020     		movs	r0, #0
 1158              	.LVL60:
 1159              		.loc 1 52 0
 1160 0018 0193     		str	r3, [sp, #4]
 1161              		.loc 1 63 0
 1162 001a 0027     		movs	r7, #0
 1163              		.loc 1 57 0
 1164 001c FFF7FEFF 		bl	left_motor_set_pos
 1165              	.LVL61:
 1166              		.loc 1 58 0
 1167 0020 0020     		movs	r0, #0
 1168 0022 FFF7FEFF 		bl	right_motor_set_pos
 1169              	.LVL62:
 1170 0026 DD4E     		ldr	r6, .L157+12
 1171 0028 DD4D     		ldr	r5, .L157+16
 1172 002a DFF8B083 		ldr	r8, .L157+76
 1173 002e DFF8B093 		ldr	r9, .L157+80
 1174 0032 DFF8B0A3 		ldr	r10, .L157+84
 1175              		.loc 1 77 0
 1176 0036 DFEDDB8A 		vldr.32	s17, .L157+20
 1177 003a 9FEDDBAA 		vldr.32	s20, .L157+24
 1178 003e DFEDDB9A 		vldr.32	s19, .L157+28
 1179 0042 9FEDDB9A 		vldr.32	s18, .L157+32
 1180              		.loc 1 79 0
 1181 0046 9FEDDBBA 		vldr.32	s22, .L157+36
 1182              		.loc 1 82 0
 1183 004a DFEDDBAA 		vldr.32	s21, .L157+40
 1184              		.loc 1 62 0
 1185 004e 3C46     		mov	r4, r7
 1186 0050 BB46     		mov	fp, r7
 1187 0052 1FE0     		b	.L119
 1188              	.LVL63:
 1189              	.L133:
 1190              		.loc 1 82 0
 1191 0054 F4EEEA7A 		vcmpe.f32	s15, s21
 1192 0058 F1EE10FA 		vmrs	APSR_nzcv, FPSCR
 1193              		.loc 1 83 0
 1194 005c C8BF     		it	gt
 1195 005e 77EEEA7A 		vsubgt.f32	s15, s15, s21
 1196              		.loc 1 85 0
ARM GAS  C:\Users\rosendo\AppData\Local\Temp\cc7e3neq.s 			page 22


 1197 0062 C6ED007A 		vstr.32	s15, [r6]
 1198              	.L91:
 1199              		.loc 1 87 0
 1200 0066 FFF7FEFF 		bl	left_motor_get_pos
 1201              	.LVL64:
 1202 006a 8346     		mov	fp, r0
 1203              	.LVL65:
 1204              		.loc 1 88 0
 1205 006c FFF7FEFF 		bl	right_motor_get_pos
 1206              	.LVL66:
 1207              		.loc 1 91 0
 1208 0070 98F80070 		ldrb	r7, [r8]	@ zero_extendqisi2
 1209              		.loc 1 88 0
 1210 0074 0446     		mov	r4, r0
 1211              	.LVL67:
 1212              		.loc 1 91 0
 1213 0076 002F     		cmp	r7, #0
 1214 0078 60D0     		beq	.L153
 1215              		.loc 1 117 0
 1216 007a 99F80070 		ldrb	r7, [r9]	@ zero_extendqisi2
 1217 007e 002F     		cmp	r7, #0
 1218 0080 00F08C80 		beq	.L154
 1219              		.loc 1 143 0
 1220 0084 9AF80070 		ldrb	r7, [r10]	@ zero_extendqisi2
 1221 0088 002F     		cmp	r7, #0
 1222 008a 00F09E80 		beq	.L155
 1223              	.LVL68:
 1224              	.L97:
 1225              		.loc 1 173 0
 1226 008e 1420     		movs	r0, #20
 1227 0090 FFF7FEFF 		bl	chThdSleep
 1228              	.LVL69:
 1229              	.L119:
 1230              		.loc 1 74 0
 1231 0094 FFF7FEFF 		bl	left_motor_get_pos
 1232              	.LVL70:
 1233 0098 0746     		mov	r7, r0
 1234              	.LVL71:
 1235              		.loc 1 75 0
 1236 009a FFF7FEFF 		bl	right_motor_get_pos
 1237              	.LVL72:
 1238              		.loc 1 74 0
 1239 009e A7EB0B07 		sub	r7, r7, fp
 1240              	.LVL73:
 1241              		.loc 1 75 0
 1242 00a2 041B     		subs	r4, r0, r4
 1243              	.LVL74:
 1244              		.loc 1 77 0
 1245 00a4 7FB2     		sxtb	r7, r7
 1246 00a6 64B2     		sxtb	r4, r4
 1247 00a8 3B19     		adds	r3, r7, r4
 1248 00aa 07EE903A 		vmov	s15, r3	@ int
 1249 00ae 96ED008A 		vldr.32	s16, [r6]
 1250 00b2 F8EEE77A 		vcvt.f32.s32	s15, s15
 1251 00b6 28EE287A 		vmul.f32	s14, s16, s17
 1252 00ba 67EEA87A 		vmul.f32	s15, s15, s17
 1253 00be C7EE09CA 		vdiv.f32	s25, s14, s18
ARM GAS  C:\Users\rosendo\AppData\Local\Temp\cc7e3neq.s 			page 23


 1254 00c2 67EE8A7A 		vmul.f32	s15, s15, s20
 1255 00c6 B0EE6C0A 		vmov.f32	s0, s25
 1256 00ca C7EEA9BA 		vdiv.f32	s23, s15, s19
 1257 00ce FFF7FEFF 		bl	cosf
 1258              	.LVL75:
 1259 00d2 D5ED007A 		vldr.32	s15, [r5]
 1260 00d6 2BEE800A 		vmul.f32	s0, s23, s0
 1261 00da B6EE00CA 		vmov.f32	s24, #5.0e-1
 1262 00de E0EE0C7A 		vfma.f32	s15, s0, s24
 1263              		.loc 1 78 0
 1264 00e2 B0EE6C0A 		vmov.f32	s0, s25
 1265              		.loc 1 77 0
 1266 00e6 C5ED007A 		vstr.32	s15, [r5]
 1267              		.loc 1 78 0
 1268 00ea FFF7FEFF 		bl	sinf
 1269              	.LVL76:
 1270              		.loc 1 79 0
 1271 00ee E31B     		subs	r3, r4, r7
 1272 00f0 07EE903A 		vmov	s15, r3	@ int
 1273 00f4 F8EEE77A 		vcvt.f32.s32	s15, s15
 1274              		.loc 1 78 0
 1275 00f8 2BEE800A 		vmul.f32	s0, s23, s0
 1276              		.loc 1 79 0
 1277 00fc 67EEA87A 		vmul.f32	s15, s15, s17
 1278              		.loc 1 78 0
 1279 0100 95ED017A 		vldr.32	s14, [r5, #4]
 1280              		.loc 1 79 0
 1281 0104 67EE8A7A 		vmul.f32	s15, s15, s20
 1282              		.loc 1 78 0
 1283 0108 A0EE0C7A 		vfma.f32	s14, s0, s24
 1284              		.loc 1 79 0
 1285 010c 87EEA90A 		vdiv.f32	s0, s15, s19
 1286              		.loc 1 78 0
 1287 0110 85ED017A 		vstr.32	s14, [r5, #4]
 1288              		.loc 1 79 0
 1289 0114 80EE0B0A 		vdiv.f32	s0, s0, s22
 1290 0118 FFF7FEFF 		bl	atanf
 1291              	.LVL77:
 1292 011c 20EE090A 		vmul.f32	s0, s0, s18
 1293              	.LVL78:
 1294 0120 C0EE287A 		vdiv.f32	s15, s0, s17
 1295              		.loc 1 80 0
 1296 0124 77EE887A 		vadd.f32	s15, s15, s16
 1297 0128 F5EEC07A 		vcmpe.f32	s15, #0
 1298 012c F1EE10FA 		vmrs	APSR_nzcv, FPSCR
 1299 0130 90D5     		bpl	.L133
 1300              		.loc 1 81 0
 1301 0132 77EEAA7A 		vadd.f32	s15, s15, s21
 1302 0136 C6ED007A 		vstr.32	s15, [r6]
 1303 013a 94E7     		b	.L91
 1304              	.LVL79:
 1305              	.L153:
 1306              		.loc 1 92 0
 1307 013c 9F4B     		ldr	r3, .L157+44
 1308 013e 96ED000A 		vldr.32	s0, [r6]
 1309 0142 D3ED000A 		vldr.32	s1, [r3]
 1310 0146 FFF7FEFF 		bl	get_angle_difference
ARM GAS  C:\Users\rosendo\AppData\Local\Temp\cc7e3neq.s 			page 24


 1311              	.LVL80:
 1312              		.loc 1 94 0
 1313 014a FDEEC07A 		vcvt.s32.f32	s15, s0
 1314 014e 9FED9C7A 		vldr.32	s14, .L157+48
 1315 0152 17EE903A 		vmov	r3, s15	@ int
 1316 0156 002B     		cmp	r3, #0
 1317 0158 B8BF     		it	lt
 1318 015a 5B42     		rsblt	r3, r3, #0
 1319 015c 07EE903A 		vmov	s15, r3	@ int
 1320 0160 F8EEE77A 		vcvt.f32.s32	s15, s15
 1321 0164 F4EEC77A 		vcmpe.f32	s15, s14
 1322 0168 F1EE10FA 		vmrs	APSR_nzcv, FPSCR
 1323 016c 00F18280 		bmi	.L156
 1324              		.loc 1 99 0
 1325 0170 B5EEC00A 		vcmpe.f32	s0, #0
 1326 0174 F1EE10FA 		vmrs	APSR_nzcv, FPSCR
 1327 0178 40F38680 		ble	.L136
 1328              		.loc 1 100 0
 1329 017c B1EE047A 		vmov.f32	s14, #5.0e+0
 1330 0180 B4EEC70A 		vcmpe.f32	s0, s14
 1331 0184 F1EE10FA 		vmrs	APSR_nzcv, FPSCR
 1332 0188 40F38F80 		ble	.L137
 1333              		.loc 1 101 0
 1334 018c 4FF4C870 		mov	r0, #400
 1335 0190 FFF7FEFF 		bl	left_motor_set_speed
 1336              	.LVL81:
 1337              		.loc 1 102 0
 1338 0194 8B48     		ldr	r0, .L157+52
 1339 0196 FFF7FEFF 		bl	right_motor_set_speed
 1340              	.LVL82:
 1341 019a 78E7     		b	.L97
 1342              	.LVL83:
 1343              	.L154:
 1344              		.loc 1 118 0
 1345 019c 8A49     		ldr	r1, .L157+56
 1346 019e 8048     		ldr	r0, .L157+16
 1347              	.LVL84:
 1348 01a0 FFF7FEFF 		bl	get_position_difference
 1349              	.LVL85:
 1350              		.loc 1 119 0
 1351 01a4 FDEEC07A 		vcvt.s32.f32	s15, s0
 1352              		.loc 1 118 0
 1353 01a8 B0EE408A 		vmov.f32	s16, s0
 1354              	.LVL86:
 1355              		.loc 1 119 0
 1356 01ac 17EE903A 		vmov	r3, s15	@ int
 1357 01b0 0233     		adds	r3, r3, #2
 1358 01b2 042B     		cmp	r3, #4
 1359 01b4 20D8     		bhi	.L105
 1360              		.loc 1 120 0
 1361 01b6 0123     		movs	r3, #1
 1362              		.loc 1 121 0
 1363 01b8 3846     		mov	r0, r7
 1364              		.loc 1 120 0
 1365 01ba 89F80030 		strb	r3, [r9]
 1366              		.loc 1 121 0
 1367 01be FFF7FEFF 		bl	left_motor_set_speed
ARM GAS  C:\Users\rosendo\AppData\Local\Temp\cc7e3neq.s 			page 25


 1368              	.LVL87:
 1369              		.loc 1 122 0
 1370 01c2 3846     		mov	r0, r7
 1371 01c4 FFF7FEFF 		bl	right_motor_set_speed
 1372              	.LVL88:
 1373 01c8 61E7     		b	.L97
 1374              	.LVL89:
 1375              	.L155:
 1376              		.loc 1 144 0
 1377 01ca 8049     		ldr	r1, .L157+60
 1378 01cc 7448     		ldr	r0, .L157+16
 1379              	.LVL90:
 1380 01ce FFF7FEFF 		bl	get_position_difference
 1381              	.LVL91:
 1382              		.loc 1 146 0
 1383 01d2 FDEEC07A 		vcvt.s32.f32	s15, s0
 1384              		.loc 1 144 0
 1385 01d6 B0EE408A 		vmov.f32	s16, s0
 1386              	.LVL92:
 1387              		.loc 1 146 0
 1388 01da 17EE903A 		vmov	r3, s15	@ int
 1389 01de 0233     		adds	r3, r3, #2
 1390 01e0 042B     		cmp	r3, #4
 1391 01e2 60D8     		bhi	.L112
 1392              		.loc 1 147 0
 1393 01e4 0123     		movs	r3, #1
 1394              		.loc 1 148 0
 1395 01e6 3846     		mov	r0, r7
 1396              		.loc 1 147 0
 1397 01e8 8AF80030 		strb	r3, [r10]
 1398              		.loc 1 148 0
 1399 01ec FFF7FEFF 		bl	left_motor_set_speed
 1400              	.LVL93:
 1401              		.loc 1 149 0
 1402 01f0 3846     		mov	r0, r7
 1403 01f2 FFF7FEFF 		bl	right_motor_set_speed
 1404              	.LVL94:
 1405 01f6 4AE7     		b	.L97
 1406              	.LVL95:
 1407              	.L105:
 1408              		.loc 1 124 0
 1409 01f8 734B     		ldr	r3, .L157+56
 1410              	.L152:
 1411              		.loc 1 152 0
 1412 01fa D3ED000A 		vldr.32	s1, [r3]
 1413 01fe 95ED007A 		vldr.32	s14, [r5]
 1414 0202 93ED010A 		vldr.32	s0, [r3, #4]
 1415              	.LVL96:
 1416 0206 D5ED017A 		vldr.32	s15, [r5, #4]
 1417 020a D6ED00BA 		vldr.32	s23, [r6]
 1418 020e 70EEC70A 		vsub.f32	s1, s1, s14
 1419 0212 30EE670A 		vsub.f32	s0, s0, s15
 1420 0216 FFF7FEFF 		bl	atan2f
 1421              	.LVL97:
 1422 021a 60EE090A 		vmul.f32	s1, s0, s18
 1423 021e B0EE6B0A 		vmov.f32	s0, s23
 1424 0222 C0EEA80A 		vdiv.f32	s1, s1, s17
ARM GAS  C:\Users\rosendo\AppData\Local\Temp\cc7e3neq.s 			page 26


 1425 0226 FFF7FEFF 		bl	get_angle_difference
 1426              	.LVL98:
 1427              		.loc 1 153 0
 1428 022a B5EEC08A 		vcmpe.f32	s16, #0
 1429 022e F1EE10FA 		vmrs	APSR_nzcv, FPSCR
 1430              		.loc 1 152 0
 1431 0232 F0EE40BA 		vmov.f32	s23, s0
 1432              	.LVL99:
 1433              		.loc 1 153 0
 1434 0236 4CDD     		ble	.L142
 1435              		.loc 1 154 0
 1436 0238 B1EE047A 		vmov.f32	s14, #5.0e+0
 1437 023c B4EEC78A 		vcmpe.f32	s16, s14
 1438 0240 F1EE10FA 		vmrs	APSR_nzcv, FPSCR
 1439 0244 63DD     		ble	.L143
 1440              		.loc 1 155 0
 1441 0246 9FED628A 		vldr.32	s16, .L157+64
 1442              	.LVL100:
 1443 024a B2EE04CA 		vmov.f32	s24, #1.0e+1
 1444 024e F0EE487A 		vmov.f32	s15, s16
 1445 0252 E0EE0C7A 		vfma.f32	s15, s0, s24
 1446 0256 FDEEE77A 		vcvt.s32.f32	s15, s15
 1447 025a 17EE900A 		vmov	r0, s15	@ int
 1448 025e FFF7FEFF 		bl	left_motor_set_speed
 1449              	.LVL101:
 1450              		.loc 1 156 0
 1451 0262 ABEECC8A 		vfms.f32	s16, s23, s24
 1452 0266 FDEEC87A 		vcvt.s32.f32	s15, s16
 1453 026a 17EE900A 		vmov	r0, s15	@ int
 1454 026e FFF7FEFF 		bl	right_motor_set_speed
 1455              	.LVL102:
 1456 0272 0CE7     		b	.L97
 1457              	.LVL103:
 1458              	.L156:
 1459              		.loc 1 95 0
 1460 0274 0123     		movs	r3, #1
 1461              		.loc 1 96 0
 1462 0276 3846     		mov	r0, r7
 1463              		.loc 1 95 0
 1464 0278 88F80030 		strb	r3, [r8]
 1465              		.loc 1 96 0
 1466 027c FFF7FEFF 		bl	left_motor_set_speed
 1467              	.LVL104:
 1468              		.loc 1 97 0
 1469 0280 3846     		mov	r0, r7
 1470 0282 FFF7FEFF 		bl	right_motor_set_speed
 1471              	.LVL105:
 1472 0286 02E7     		b	.L97
 1473              	.LVL106:
 1474              	.L136:
 1475              		.loc 1 108 0
 1476 0288 F9EE047A 		vmov.f32	s15, #-5.0e+0
 1477 028c B4EEE70A 		vcmpe.f32	s0, s15
 1478 0290 F1EE10FA 		vmrs	APSR_nzcv, FPSCR
 1479 0294 4FD5     		bpl	.L138
 1480              		.loc 1 109 0
 1481 0296 4B48     		ldr	r0, .L157+52
ARM GAS  C:\Users\rosendo\AppData\Local\Temp\cc7e3neq.s 			page 27


 1482 0298 FFF7FEFF 		bl	left_motor_set_speed
 1483              	.LVL107:
 1484              		.loc 1 110 0
 1485 029c 4FF4C870 		mov	r0, #400
 1486 02a0 FFF7FEFF 		bl	right_motor_set_speed
 1487              	.LVL108:
 1488 02a4 F3E6     		b	.L97
 1489              	.LVL109:
 1490              	.L112:
 1491              		.loc 1 152 0
 1492 02a6 494B     		ldr	r3, .L157+60
 1493 02a8 A7E7     		b	.L152
 1494              	.LVL110:
 1495              	.L137:
 1496              		.loc 1 104 0
 1497 02aa C0EE077A 		vdiv.f32	s15, s0, s14
 1498 02ae 9FED497A 		vldr.32	s14, .L157+68
 1499 02b2 27EE877A 		vmul.f32	s14, s15, s14
 1500 02b6 67EE277A 		vmul.f32	s15, s14, s15
 1501 02ba FDEEE77A 		vcvt.s32.f32	s15, s15
 1502 02be 17EE903A 		vmov	r3, s15	@ int
 1503 02c2 1FB2     		sxth	r7, r3
 1504 02c4 3846     		mov	r0, r7
 1505 02c6 FFF7FEFF 		bl	left_motor_set_speed
 1506              	.LVL111:
 1507              		.loc 1 105 0
 1508 02ca 7842     		negs	r0, r7
 1509 02cc FFF7FEFF 		bl	right_motor_set_speed
 1510              	.LVL112:
 1511 02d0 DDE6     		b	.L97
 1512              	.LVL113:
 1513              	.L142:
 1514              		.loc 1 162 0
 1515 02d2 F9EE047A 		vmov.f32	s15, #-5.0e+0
 1516 02d6 B4EEE78A 		vcmpe.f32	s16, s15
 1517 02da F1EE10FA 		vmrs	APSR_nzcv, FPSCR
 1518 02de 40D5     		bpl	.L144
 1519              		.loc 1 163 0
 1520 02e0 9FED3D8A 		vldr.32	s16, .L157+72
 1521              	.LVL114:
 1522 02e4 B2EE04CA 		vmov.f32	s24, #1.0e+1
 1523 02e8 F0EE487A 		vmov.f32	s15, s16
 1524 02ec E0EE4C7A 		vfms.f32	s15, s0, s24
 1525 02f0 FDEEE77A 		vcvt.s32.f32	s15, s15
 1526 02f4 17EE900A 		vmov	r0, s15	@ int
 1527 02f8 FFF7FEFF 		bl	left_motor_set_speed
 1528              	.LVL115:
 1529              		.loc 1 164 0
 1530 02fc ABEE8C8A 		vfma.f32	s16, s23, s24
 1531 0300 FDEEC87A 		vcvt.s32.f32	s15, s16
 1532 0304 17EE900A 		vmov	r0, s15	@ int
 1533 0308 FFF7FEFF 		bl	right_motor_set_speed
 1534              	.LVL116:
 1535 030c BFE6     		b	.L97
 1536              	.LVL117:
 1537              	.L143:
 1538              		.loc 1 158 0
ARM GAS  C:\Users\rosendo\AppData\Local\Temp\cc7e3neq.s 			page 28


 1539 030e C8EE077A 		vdiv.f32	s15, s16, s14
 1540 0312 9FED2F7A 		vldr.32	s14, .L157+64
 1541 0316 27EE877A 		vmul.f32	s14, s15, s14
 1542 031a 67EE277A 		vmul.f32	s15, s14, s15
 1543 031e FDEEE77A 		vcvt.s32.f32	s15, s15
 1544 0322 17EE903A 		vmov	r3, s15	@ int
 1545 0326 1FB2     		sxth	r7, r3
 1546 0328 3846     		mov	r0, r7
 1547 032a FFF7FEFF 		bl	left_motor_set_speed
 1548              	.LVL118:
 1549              		.loc 1 159 0
 1550 032e 3846     		mov	r0, r7
 1551 0330 FFF7FEFF 		bl	right_motor_set_speed
 1552              	.LVL119:
 1553 0334 ABE6     		b	.L97
 1554              	.LVL120:
 1555              	.L138:
 1556              		.loc 1 112 0
 1557 0336 B1EE047A 		vmov.f32	s14, #5.0e+0
 1558 033a C0EE077A 		vdiv.f32	s15, s0, s14
 1559 033e 9FED257A 		vldr.32	s14, .L157+68
 1560 0342 27EE877A 		vmul.f32	s14, s15, s14
 1561 0346 67EE277A 		vmul.f32	s15, s14, s15
 1562 034a FDEEE77A 		vcvt.s32.f32	s15, s15
 1563 034e 17EE903A 		vmov	r3, s15	@ int
 1564 0352 1FB2     		sxth	r7, r3
 1565 0354 7842     		negs	r0, r7
 1566 0356 FFF7FEFF 		bl	left_motor_set_speed
 1567              	.LVL121:
 1568              		.loc 1 113 0
 1569 035a 3846     		mov	r0, r7
 1570 035c FFF7FEFF 		bl	right_motor_set_speed
 1571              	.LVL122:
 1572 0360 95E6     		b	.L97
 1573              	.LVL123:
 1574              	.L144:
 1575              		.loc 1 166 0
 1576 0362 B1EE047A 		vmov.f32	s14, #5.0e+0
 1577 0366 C8EE077A 		vdiv.f32	s15, s16, s14
 1578 036a 9FED197A 		vldr.32	s14, .L157+64
 1579 036e 27EE877A 		vmul.f32	s14, s15, s14
 1580 0372 67EE277A 		vmul.f32	s15, s14, s15
 1581 0376 FDEEE77A 		vcvt.s32.f32	s15, s15
 1582 037a 17EE903A 		vmov	r3, s15	@ int
 1583 037e 1FB2     		sxth	r7, r3
 1584 0380 7F42     		negs	r7, r7
 1585 0382 3846     		mov	r0, r7
 1586 0384 FFF7FEFF 		bl	left_motor_set_speed
 1587              	.LVL124:
 1588              		.loc 1 167 0
 1589 0388 3846     		mov	r0, r7
 1590 038a FFF7FEFF 		bl	right_motor_set_speed
 1591              	.LVL125:
 1592 038e 7EE6     		b	.L97
 1593              	.L158:
 1594              		.align	2
 1595              	.L157:
ARM GAS  C:\Users\rosendo\AppData\Local\Temp\cc7e3neq.s 			page 29


 1596 0390 00000000 		.word	ch
 1597 0394 00000000 		.word	__stack_chk_guard
 1598 0398 00000000 		.word	.LANCHOR9
 1599 039c 00000000 		.word	.LANCHOR2
 1600 03a0 00000000 		.word	.LANCHOR1
 1601 03a4 DB0F4940 		.word	1078530011
 1602 03a8 00002442 		.word	1109655552
 1603 03ac 00007A44 		.word	1148846080
 1604 03b0 00003443 		.word	1127481344
 1605 03b4 00005442 		.word	1112801280
 1606 03b8 0000B443 		.word	1135869952
 1607 03bc 00000000 		.word	.LANCHOR4
 1608 03c0 CDCCCC3D 		.word	1036831949
 1609 03c4 70FEFFFF 		.word	-400
 1610 03c8 00000000 		.word	.LANCHOR8
 1611 03cc 00000000 		.word	.LANCHOR6
 1612 03d0 00005C44 		.word	1146880000
 1613 03d4 0000C843 		.word	1137180672
 1614 03d8 00005CC4 		.word	-1000603648
 1615 03dc 00000000 		.word	.LANCHOR3
 1616 03e0 00000000 		.word	.LANCHOR7
 1617 03e4 00000000 		.word	.LANCHOR5
 1618              		.cfi_endproc
 1619              	.LFE257:
 1620              		.size	MotorsControl, .-MotorsControl
 1621              		.section	.text.get_angle_achieved,"ax",%progbits
 1622              		.align	1
 1623              		.p2align 4,,15
 1624              		.global	get_angle_achieved
 1625              		.syntax unified
 1626              		.thumb
 1627              		.thumb_func
 1628              		.fpu fpv4-sp-d16
 1629              		.type	get_angle_achieved, %function
 1630              	get_angle_achieved:
 1631              	.LFB269:
 1632              		.loc 1 265 0
 1633              		.cfi_startproc
 1634              		@ args = 0, pretend = 0, frame = 8
 1635              		@ frame_needed = 0, uses_anonymous_args = 0
 1636 0000 00B5     		push	{lr}
 1637              		.cfi_def_cfa_offset 4
 1638              		.cfi_offset 14, -4
 1639 0002 074B     		ldr	r3, .L163
 1640              		.loc 1 266 0
 1641 0004 0749     		ldr	r1, .L163+4
 1642              		.loc 1 265 0
 1643 0006 1A68     		ldr	r2, [r3]
 1644              		.loc 1 267 0
 1645 0008 0878     		ldrb	r0, [r1]	@ zero_extendqisi2
 1646              		.loc 1 265 0
 1647 000a 83B0     		sub	sp, sp, #12
 1648              		.cfi_def_cfa_offset 16
 1649              		.loc 1 265 0
 1650 000c 0192     		str	r2, [sp, #4]
 1651              		.loc 1 267 0
 1652 000e 019A     		ldr	r2, [sp, #4]
ARM GAS  C:\Users\rosendo\AppData\Local\Temp\cc7e3neq.s 			page 30


 1653 0010 1B68     		ldr	r3, [r3]
 1654 0012 9A42     		cmp	r2, r3
 1655 0014 02D1     		bne	.L162
 1656 0016 03B0     		add	sp, sp, #12
 1657              		.cfi_remember_state
 1658              		.cfi_def_cfa_offset 4
 1659              		@ sp needed
 1660 0018 5DF804FB 		ldr	pc, [sp], #4
 1661              	.L162:
 1662              		.cfi_restore_state
 1663 001c FFF7FEFF 		bl	__stack_chk_fail
 1664              	.LVL126:
 1665              	.L164:
 1666              		.align	2
 1667              	.L163:
 1668 0020 00000000 		.word	__stack_chk_guard
 1669 0024 00000000 		.word	.LANCHOR3
 1670              		.cfi_endproc
 1671              	.LFE269:
 1672              		.size	get_angle_achieved, .-get_angle_achieved
 1673              		.section	.text.get_position_achieved,"ax",%progbits
 1674              		.align	1
 1675              		.p2align 4,,15
 1676              		.global	get_position_achieved
 1677              		.syntax unified
 1678              		.thumb
 1679              		.thumb_func
 1680              		.fpu fpv4-sp-d16
 1681              		.type	get_position_achieved, %function
 1682              	get_position_achieved:
 1683              	.LFB270:
 1684              		.loc 1 269 0
 1685              		.cfi_startproc
 1686              		@ args = 0, pretend = 0, frame = 8
 1687              		@ frame_needed = 0, uses_anonymous_args = 0
 1688 0000 00B5     		push	{lr}
 1689              		.cfi_def_cfa_offset 4
 1690              		.cfi_offset 14, -4
 1691 0002 074B     		ldr	r3, .L169
 1692              		.loc 1 270 0
 1693 0004 0749     		ldr	r1, .L169+4
 1694              		.loc 1 269 0
 1695 0006 1A68     		ldr	r2, [r3]
 1696              		.loc 1 271 0
 1697 0008 0878     		ldrb	r0, [r1]	@ zero_extendqisi2
 1698              		.loc 1 269 0
 1699 000a 83B0     		sub	sp, sp, #12
 1700              		.cfi_def_cfa_offset 16
 1701              		.loc 1 269 0
 1702 000c 0192     		str	r2, [sp, #4]
 1703              		.loc 1 271 0
 1704 000e 019A     		ldr	r2, [sp, #4]
 1705 0010 1B68     		ldr	r3, [r3]
 1706 0012 9A42     		cmp	r2, r3
 1707 0014 02D1     		bne	.L168
 1708 0016 03B0     		add	sp, sp, #12
 1709              		.cfi_remember_state
ARM GAS  C:\Users\rosendo\AppData\Local\Temp\cc7e3neq.s 			page 31


 1710              		.cfi_def_cfa_offset 4
 1711              		@ sp needed
 1712 0018 5DF804FB 		ldr	pc, [sp], #4
 1713              	.L168:
 1714              		.cfi_restore_state
 1715 001c FFF7FEFF 		bl	__stack_chk_fail
 1716              	.LVL127:
 1717              	.L170:
 1718              		.align	2
 1719              	.L169:
 1720 0020 00000000 		.word	__stack_chk_guard
 1721 0024 00000000 		.word	.LANCHOR5
 1722              		.cfi_endproc
 1723              	.LFE270:
 1724              		.size	get_position_achieved, .-get_position_achieved
 1725              		.section	.text.get_intermediate_achieved,"ax",%progbits
 1726              		.align	1
 1727              		.p2align 4,,15
 1728              		.global	get_intermediate_achieved
 1729              		.syntax unified
 1730              		.thumb
 1731              		.thumb_func
 1732              		.fpu fpv4-sp-d16
 1733              		.type	get_intermediate_achieved, %function
 1734              	get_intermediate_achieved:
 1735              	.LFB271:
 1736              		.loc 1 273 0
 1737              		.cfi_startproc
 1738              		@ args = 0, pretend = 0, frame = 8
 1739              		@ frame_needed = 0, uses_anonymous_args = 0
 1740 0000 00B5     		push	{lr}
 1741              		.cfi_def_cfa_offset 4
 1742              		.cfi_offset 14, -4
 1743 0002 074B     		ldr	r3, .L175
 1744              		.loc 1 274 0
 1745 0004 0749     		ldr	r1, .L175+4
 1746              		.loc 1 273 0
 1747 0006 1A68     		ldr	r2, [r3]
 1748              		.loc 1 275 0
 1749 0008 0878     		ldrb	r0, [r1]	@ zero_extendqisi2
 1750              		.loc 1 273 0
 1751 000a 83B0     		sub	sp, sp, #12
 1752              		.cfi_def_cfa_offset 16
 1753              		.loc 1 273 0
 1754 000c 0192     		str	r2, [sp, #4]
 1755              		.loc 1 275 0
 1756 000e 019A     		ldr	r2, [sp, #4]
 1757 0010 1B68     		ldr	r3, [r3]
 1758 0012 9A42     		cmp	r2, r3
 1759 0014 02D1     		bne	.L174
 1760 0016 03B0     		add	sp, sp, #12
 1761              		.cfi_remember_state
 1762              		.cfi_def_cfa_offset 4
 1763              		@ sp needed
 1764 0018 5DF804FB 		ldr	pc, [sp], #4
 1765              	.L174:
 1766              		.cfi_restore_state
ARM GAS  C:\Users\rosendo\AppData\Local\Temp\cc7e3neq.s 			page 32


 1767 001c FFF7FEFF 		bl	__stack_chk_fail
 1768              	.LVL128:
 1769              	.L176:
 1770              		.align	2
 1771              	.L175:
 1772 0020 00000000 		.word	__stack_chk_guard
 1773 0024 00000000 		.word	.LANCHOR7
 1774              		.cfi_endproc
 1775              	.LFE271:
 1776              		.size	get_intermediate_achieved, .-get_intermediate_achieved
 1777              		.section	.text.closest_point_to_obj,"ax",%progbits
 1778              		.align	1
 1779              		.p2align 4,,15
 1780              		.global	closest_point_to_obj
 1781              		.syntax unified
 1782              		.thumb
 1783              		.thumb_func
 1784              		.fpu fpv4-sp-d16
 1785              		.type	closest_point_to_obj, %function
 1786              	closest_point_to_obj:
 1787              	.LFB272:
 1788              		.loc 1 277 0
 1789              		.cfi_startproc
 1790              		@ args = 0, pretend = 0, frame = 8
 1791              		@ frame_needed = 0, uses_anonymous_args = 0
 1792              	.LVL129:
 1793 0000 00B5     		push	{lr}
 1794              		.cfi_def_cfa_offset 4
 1795              		.cfi_offset 14, -4
 1796              		.loc 1 279 0
 1797 0002 B1F90220 		ldrsh	r2, [r1, #2]
 1798              		.loc 1 278 0
 1799 0006 B0F90230 		ldrsh	r3, [r0, #2]
 1800              		.loc 1 279 0
 1801 000a 07EE102A 		vmov	s14, r2	@ int
 1802              		.loc 1 278 0
 1803 000e B0F90020 		ldrsh	r2, [r0]
 1804 0012 07EE903A 		vmov	s15, r3	@ int
 1805 0016 06EE102A 		vmov	s12, r2	@ int
 1806 001a 1A4B     		ldr	r3, .L183
 1807              		.loc 1 279 0
 1808 001c B1F90020 		ldrsh	r2, [r1]
 1809              		.loc 1 278 0
 1810 0020 D3ED016A 		vldr.32	s13, [r3, #4]
 1811 0024 D3ED005A 		vldr.32	s11, [r3]
 1812              		.loc 1 277 0
 1813 0028 174B     		ldr	r3, .L183+4
 1814              		.loc 1 279 0
 1815 002a 05EE102A 		vmov	s10, r2	@ int
 1816              		.loc 1 278 0
 1817 002e F8EEE77A 		vcvt.f32.s32	s15, s15
 1818              		.loc 1 279 0
 1819 0032 B8EEC77A 		vcvt.f32.s32	s14, s14
 1820              		.loc 1 278 0
 1821 0036 76EEE77A 		vsub.f32	s15, s13, s15
 1822 003a B8EEC66A 		vcvt.f32.s32	s12, s12
 1823              		.loc 1 279 0
ARM GAS  C:\Users\rosendo\AppData\Local\Temp\cc7e3neq.s 			page 33


 1824 003e 36EEC77A 		vsub.f32	s14, s13, s14
 1825 0042 B8EEC55A 		vcvt.f32.s32	s10, s10
 1826              		.loc 1 278 0
 1827 0046 75EEC66A 		vsub.f32	s13, s11, s12
 1828 004a 67EEA77A 		vmul.f32	s15, s15, s15
 1829              		.loc 1 279 0
 1830 004e 27EE077A 		vmul.f32	s14, s14, s14
 1831 0052 35EEC56A 		vsub.f32	s12, s11, s10
 1832              		.loc 1 278 0
 1833 0056 E6EEA67A 		vfma.f32	s15, s13, s13
 1834              		.loc 1 277 0
 1835 005a 83B0     		sub	sp, sp, #12
 1836              		.cfi_def_cfa_offset 16
 1837              		.loc 1 277 0
 1838 005c 1A68     		ldr	r2, [r3]
 1839 005e 0192     		str	r2, [sp, #4]
 1840              		.loc 1 279 0
 1841 0060 A6EE067A 		vfma.f32	s14, s12, s12
 1842              		.loc 1 284 0
 1843 0064 019A     		ldr	r2, [sp, #4]
 1844 0066 1B68     		ldr	r3, [r3]
 1845              		.loc 1 278 0
 1846 0068 F4EEC77A 		vcmpe.f32	s15, s14
 1847 006c F1EE10FA 		vmrs	APSR_nzcv, FPSCR
 1848              		.loc 1 284 0
 1849 0070 94BF     		ite	ls
 1850 0072 0120     		movls	r0, #1
 1851              	.LVL130:
 1852 0074 0220     		movhi	r0, #2
 1853 0076 9A42     		cmp	r2, r3
 1854 0078 02D1     		bne	.L182
 1855 007a 03B0     		add	sp, sp, #12
 1856              		.cfi_remember_state
 1857              		.cfi_def_cfa_offset 4
 1858              		@ sp needed
 1859 007c 5DF804FB 		ldr	pc, [sp], #4
 1860              	.L182:
 1861              		.cfi_restore_state
 1862 0080 FFF7FEFF 		bl	__stack_chk_fail
 1863              	.LVL131:
 1864              	.L184:
 1865              		.align	2
 1866              	.L183:
 1867 0084 00000000 		.word	.LANCHOR6
 1868 0088 00000000 		.word	__stack_chk_guard
 1869              		.cfi_endproc
 1870              	.LFE272:
 1871              		.size	closest_point_to_obj, .-closest_point_to_obj
 1872              		.section	.text.motor_shoot,"ax",%progbits
 1873              		.align	1
 1874              		.p2align 4,,15
 1875              		.global	motor_shoot
 1876              		.syntax unified
 1877              		.thumb
 1878              		.thumb_func
 1879              		.fpu fpv4-sp-d16
 1880              		.type	motor_shoot, %function
ARM GAS  C:\Users\rosendo\AppData\Local\Temp\cc7e3neq.s 			page 34


 1881              	motor_shoot:
 1882              	.LFB273:
 1883              		.loc 1 286 0
 1884              		.cfi_startproc
 1885              		@ args = 0, pretend = 0, frame = 8
 1886              		@ frame_needed = 0, uses_anonymous_args = 0
 1887 0000 10B5     		push	{r4, lr}
 1888              		.cfi_def_cfa_offset 8
 1889              		.cfi_offset 4, -8
 1890              		.cfi_offset 14, -4
 1891 0002 0A4C     		ldr	r4, .L190
 1892 0004 82B0     		sub	sp, sp, #8
 1893              		.cfi_def_cfa_offset 16
 1894              		.loc 1 286 0
 1895 0006 2368     		ldr	r3, [r4]
 1896 0008 0193     		str	r3, [sp, #4]
 1897              		.loc 1 287 0
 1898 000a 40F24C40 		movw	r0, #1100
 1899 000e FFF7FEFF 		bl	left_motor_set_speed
 1900              	.LVL132:
 1901              		.loc 1 288 0
 1902 0012 019A     		ldr	r2, [sp, #4]
 1903 0014 2368     		ldr	r3, [r4]
 1904 0016 9A42     		cmp	r2, r3
 1905 0018 06D1     		bne	.L189
 1906 001a 40F24C40 		movw	r0, #1100
 1907              		.loc 1 290 0
 1908 001e 02B0     		add	sp, sp, #8
 1909              		.cfi_remember_state
 1910              		.cfi_def_cfa_offset 8
 1911              		@ sp needed
 1912 0020 BDE81040 		pop	{r4, lr}
 1913              		.cfi_restore 14
 1914              		.cfi_restore 4
 1915              		.cfi_def_cfa_offset 0
 1916              		.loc 1 288 0
 1917 0024 FFF7FEBF 		b	right_motor_set_speed
 1918              	.LVL133:
 1919              	.L189:
 1920              		.cfi_restore_state
 1921 0028 FFF7FEFF 		bl	__stack_chk_fail
 1922              	.LVL134:
 1923              	.L191:
 1924              		.align	2
 1925              	.L190:
 1926 002c 00000000 		.word	__stack_chk_guard
 1927              		.cfi_endproc
 1928              	.LFE273:
 1929              		.size	motor_shoot, .-motor_shoot
 1930              		.section	.text.reset_motor_shoot,"ax",%progbits
 1931              		.align	1
 1932              		.p2align 4,,15
 1933              		.global	reset_motor_shoot
 1934              		.syntax unified
 1935              		.thumb
 1936              		.thumb_func
 1937              		.fpu fpv4-sp-d16
ARM GAS  C:\Users\rosendo\AppData\Local\Temp\cc7e3neq.s 			page 35


 1938              		.type	reset_motor_shoot, %function
 1939              	reset_motor_shoot:
 1940              	.LFB274:
 1941              		.loc 1 292 0
 1942              		.cfi_startproc
 1943              		@ args = 0, pretend = 0, frame = 8
 1944              		@ frame_needed = 0, uses_anonymous_args = 0
 1945 0000 10B5     		push	{r4, lr}
 1946              		.cfi_def_cfa_offset 8
 1947              		.cfi_offset 4, -8
 1948              		.cfi_offset 14, -4
 1949 0002 094C     		ldr	r4, .L197
 1950 0004 82B0     		sub	sp, sp, #8
 1951              		.cfi_def_cfa_offset 16
 1952              		.loc 1 292 0
 1953 0006 2368     		ldr	r3, [r4]
 1954 0008 0193     		str	r3, [sp, #4]
 1955              		.loc 1 293 0
 1956 000a 0020     		movs	r0, #0
 1957 000c FFF7FEFF 		bl	left_motor_set_speed
 1958              	.LVL135:
 1959              		.loc 1 294 0
 1960 0010 019A     		ldr	r2, [sp, #4]
 1961 0012 2368     		ldr	r3, [r4]
 1962 0014 9A42     		cmp	r2, r3
 1963 0016 05D1     		bne	.L196
 1964 0018 0020     		movs	r0, #0
 1965              		.loc 1 296 0
 1966 001a 02B0     		add	sp, sp, #8
 1967              		.cfi_remember_state
 1968              		.cfi_def_cfa_offset 8
 1969              		@ sp needed
 1970 001c BDE81040 		pop	{r4, lr}
 1971              		.cfi_restore 14
 1972              		.cfi_restore 4
 1973              		.cfi_def_cfa_offset 0
 1974              		.loc 1 294 0
 1975 0020 FFF7FEBF 		b	right_motor_set_speed
 1976              	.LVL136:
 1977              	.L196:
 1978              		.cfi_restore_state
 1979 0024 FFF7FEFF 		bl	__stack_chk_fail
 1980              	.LVL137:
 1981              	.L198:
 1982              		.align	2
 1983              	.L197:
 1984 0028 00000000 		.word	__stack_chk_guard
 1985              		.cfi_endproc
 1986              	.LFE274:
 1987              		.size	reset_motor_shoot, .-reset_motor_shoot
 1988              		.global	__aeabi_i2d
 1989              		.global	__aeabi_dadd
 1990              		.global	__aeabi_dmul
 1991              		.section	.text.control_motors_BT,"ax",%progbits
 1992              		.align	1
 1993              		.p2align 4,,15
 1994              		.global	control_motors_BT
ARM GAS  C:\Users\rosendo\AppData\Local\Temp\cc7e3neq.s 			page 36


 1995              		.syntax unified
 1996              		.thumb
 1997              		.thumb_func
 1998              		.fpu fpv4-sp-d16
 1999              		.type	control_motors_BT, %function
 2000              	control_motors_BT:
 2001              	.LFB275:
 2002              		.loc 1 298 0
 2003              		.cfi_startproc
 2004              		@ args = 0, pretend = 0, frame = 8
 2005              		@ frame_needed = 0, uses_anonymous_args = 0
 2006              	.LVL138:
 2007 0000 2DE9F047 		push	{r4, r5, r6, r7, r8, r9, r10, lr}
 2008              		.cfi_def_cfa_offset 32
 2009              		.cfi_offset 4, -32
 2010              		.cfi_offset 5, -28
 2011              		.cfi_offset 6, -24
 2012              		.cfi_offset 7, -20
 2013              		.cfi_offset 8, -16
 2014              		.cfi_offset 9, -12
 2015              		.cfi_offset 10, -8
 2016              		.cfi_offset 14, -4
 2017 0004 2DED028B 		vpush.64	{d8}
 2018              		.cfi_def_cfa_offset 40
 2019              		.cfi_offset 80, -40
 2020              		.cfi_offset 81, -36
 2021 0008 0646     		mov	r6, r0
 2022 000a DFF8B4A0 		ldr	r10, .L204+8
 2023              		.loc 1 302 0
 2024 000e 0078     		ldrb	r0, [r0]	@ zero_extendqisi2
 2025              	.LVL139:
 2026              		.loc 1 298 0
 2027 0010 DAF80030 		ldr	r3, [r10]
 2028 0014 82B0     		sub	sp, sp, #8
 2029              		.cfi_def_cfa_offset 48
 2030              		.loc 1 302 0
 2031 0016 C000     		lsls	r0, r0, #3
 2032              		.loc 1 298 0
 2033 0018 0193     		str	r3, [sp, #4]
 2034              	.LVL140:
 2035              		.loc 1 302 0
 2036 001a FFF7FEFF 		bl	__aeabi_i2d
 2037              	.LVL141:
 2038              		.loc 1 300 0
 2039 001e 7388     		ldrh	r3, [r6, #2]
 2040              	.LVL142:
 2041 0020 DFED256A 		vldr.32	s13, .L204
 2042 0024 9FED257A 		vldr.32	s14, .L204+4
 2043 0028 07EE903A 		vmov	s15, r3	@ int
 2044 002c F8EEE77A 		vcvt.f32.s32	s15, s15
 2045              		.loc 1 302 0
 2046 0030 0446     		mov	r4, r0
 2047              		.loc 1 300 0
 2048 0032 67EEA67A 		vmul.f32	s15, s15, s13
 2049              		.loc 1 302 0
 2050 0036 0D46     		mov	r5, r1
 2051 0038 C7EE877A 		vdiv.f32	s15, s15, s14
ARM GAS  C:\Users\rosendo\AppData\Local\Temp\cc7e3neq.s 			page 37


 2052 003c 17EE900A 		vmov	r0, s15
 2053 0040 FFF7FEFF 		bl	__aeabi_f2d
 2054              	.LVL143:
 2055 0044 41EC100B 		vmov	d0, r0, r1
 2056 0048 41EC180B 		vmov	d8, r0, r1
 2057 004c FFF7FEFF 		bl	cos
 2058              	.LVL144:
 2059 0050 57EC106B 		vmov	r6, r7, d0
 2060              	.LVL145:
 2061 0054 B0EE480A 		vmov.f32	s0, s16
 2062 0058 F0EE680A 		vmov.f32	s1, s17
 2063 005c FFF7FEFF 		bl	sin
 2064              	.LVL146:
 2065 0060 59EC108B 		vmov	r8, r9, d0
 2066 0064 10EE102A 		vmov	r2, s0	@ int
 2067 0068 4B46     		mov	r3, r9
 2068 006a 3046     		mov	r0, r6
 2069 006c 3946     		mov	r1, r7
 2070 006e FFF7FEFF 		bl	__aeabi_dadd
 2071              	.LVL147:
 2072 0072 2246     		mov	r2, r4
 2073 0074 2B46     		mov	r3, r5
 2074 0076 FFF7FEFF 		bl	__aeabi_dmul
 2075              	.LVL148:
 2076 007a FFF7FEFF 		bl	__aeabi_d2iz
 2077              	.LVL149:
 2078 007e FFF7FEFF 		bl	left_motor_set_speed
 2079              	.LVL150:
 2080              		.loc 1 303 0
 2081 0082 019A     		ldr	r2, [sp, #4]
 2082 0084 DAF80030 		ldr	r3, [r10]
 2083 0088 9A42     		cmp	r2, r3
 2084 008a 12D1     		bne	.L203
 2085 008c 4246     		mov	r2, r8
 2086 008e 4B46     		mov	r3, r9
 2087 0090 3046     		mov	r0, r6
 2088 0092 3946     		mov	r1, r7
 2089 0094 FFF7FEFF 		bl	__aeabi_dsub
 2090              	.LVL151:
 2091 0098 2246     		mov	r2, r4
 2092 009a 2B46     		mov	r3, r5
 2093 009c FFF7FEFF 		bl	__aeabi_dmul
 2094              	.LVL152:
 2095 00a0 FFF7FEFF 		bl	__aeabi_d2iz
 2096              	.LVL153:
 2097              		.loc 1 304 0
 2098 00a4 02B0     		add	sp, sp, #8
 2099              		.cfi_remember_state
 2100              		.cfi_def_cfa_offset 40
 2101              		@ sp needed
 2102 00a6 BDEC028B 		vldm	sp!, {d8}
 2103              		.cfi_restore 80
 2104              		.cfi_restore 81
 2105              		.cfi_def_cfa_offset 32
 2106 00aa BDE8F047 		pop	{r4, r5, r6, r7, r8, r9, r10, lr}
 2107              		.cfi_restore 14
 2108              		.cfi_restore 10
ARM GAS  C:\Users\rosendo\AppData\Local\Temp\cc7e3neq.s 			page 38


 2109              		.cfi_restore 9
 2110              		.cfi_restore 8
 2111              		.cfi_restore 7
 2112              		.cfi_restore 6
 2113              		.cfi_restore 5
 2114              		.cfi_restore 4
 2115              		.cfi_def_cfa_offset 0
 2116              		.loc 1 303 0
 2117 00ae FFF7FEBF 		b	right_motor_set_speed
 2118              	.LVL154:
 2119              	.L203:
 2120              		.cfi_restore_state
 2121 00b2 FFF7FEFF 		bl	__stack_chk_fail
 2122              	.LVL155:
 2123              	.L205:
 2124 00b6 00BF     		.align	2
 2125              	.L204:
 2126 00b8 DB0F4940 		.word	1078530011
 2127 00bc 00003443 		.word	1127481344
 2128 00c0 00000000 		.word	__stack_chk_guard
 2129              		.cfi_endproc
 2130              	.LFE275:
 2131              		.size	control_motors_BT, .-control_motors_BT
 2132              		.section	.text.set_angle_calib,"ax",%progbits
 2133              		.align	1
 2134              		.p2align 4,,15
 2135              		.global	set_angle_calib
 2136              		.syntax unified
 2137              		.thumb
 2138              		.thumb_func
 2139              		.fpu fpv4-sp-d16
 2140              		.type	set_angle_calib, %function
 2141              	set_angle_calib:
 2142              	.LFB276:
 2143              		.loc 1 306 0
 2144              		.cfi_startproc
 2145              		@ args = 0, pretend = 0, frame = 8
 2146              		@ frame_needed = 0, uses_anonymous_args = 0
 2147              	.LVL156:
 2148 0000 00B5     		push	{lr}
 2149              		.cfi_def_cfa_offset 4
 2150              		.cfi_offset 14, -4
 2151 0002 0A4B     		ldr	r3, .L210
 2152              		.loc 1 307 0
 2153 0004 0A49     		ldr	r1, .L210+4
 2154              		.loc 1 306 0
 2155 0006 1A68     		ldr	r2, [r3]
 2156 0008 83B0     		sub	sp, sp, #12
 2157              		.cfi_def_cfa_offset 16
 2158              		.loc 1 307 0
 2159 000a 07EE900A 		vmov	s15, r0	@ int
 2160              		.loc 1 306 0
 2161 000e 0192     		str	r2, [sp, #4]
 2162              		.loc 1 308 0
 2163 0010 019A     		ldr	r2, [sp, #4]
 2164 0012 1B68     		ldr	r3, [r3]
 2165              		.loc 1 307 0
ARM GAS  C:\Users\rosendo\AppData\Local\Temp\cc7e3neq.s 			page 39


 2166 0014 F8EE677A 		vcvt.f32.u32	s15, s15
 2167              		.loc 1 308 0
 2168 0018 9A42     		cmp	r2, r3
 2169              		.loc 1 307 0
 2170 001a C1ED007A 		vstr.32	s15, [r1]
 2171              		.loc 1 308 0
 2172 001e 02D1     		bne	.L209
 2173 0020 03B0     		add	sp, sp, #12
 2174              		.cfi_remember_state
 2175              		.cfi_def_cfa_offset 4
 2176              		@ sp needed
 2177 0022 5DF804FB 		ldr	pc, [sp], #4
 2178              	.L209:
 2179              		.cfi_restore_state
 2180 0026 FFF7FEFF 		bl	__stack_chk_fail
 2181              	.LVL157:
 2182              	.L211:
 2183 002a 00BF     		.align	2
 2184              	.L210:
 2185 002c 00000000 		.word	__stack_chk_guard
 2186 0030 00000000 		.word	.LANCHOR2
 2187              		.cfi_endproc
 2188              	.LFE276:
 2189              		.size	set_angle_calib, .-set_angle_calib
 2190              		.section	.text.set_position_calib,"ax",%progbits
 2191              		.align	1
 2192              		.p2align 4,,15
 2193              		.global	set_position_calib
 2194              		.syntax unified
 2195              		.thumb
 2196              		.thumb_func
 2197              		.fpu fpv4-sp-d16
 2198              		.type	set_position_calib, %function
 2199              	set_position_calib:
 2200              	.LFB277:
 2201              		.loc 1 310 0
 2202              		.cfi_startproc
 2203              		@ args = 0, pretend = 0, frame = 8
 2204              		@ frame_needed = 0, uses_anonymous_args = 0
 2205              	.LVL158:
 2206 0000 10B5     		push	{r4, lr}
 2207              		.cfi_def_cfa_offset 8
 2208              		.cfi_offset 4, -8
 2209              		.cfi_offset 14, -4
 2210 0002 0C4A     		ldr	r2, .L216
 2211              		.loc 1 311 0
 2212 0004 0C4B     		ldr	r3, .L216+4
 2213              		.loc 1 310 0
 2214 0006 1468     		ldr	r4, [r2]
 2215 0008 82B0     		sub	sp, sp, #8
 2216              		.cfi_def_cfa_offset 16
 2217              		.loc 1 311 0
 2218 000a 07EE900A 		vmov	s15, r0	@ int
 2219              		.loc 1 310 0
 2220 000e 0194     		str	r4, [sp, #4]
 2221              		.loc 1 311 0
 2222 0010 B8EEE77A 		vcvt.f32.s32	s14, s15
ARM GAS  C:\Users\rosendo\AppData\Local\Temp\cc7e3neq.s 			page 40


 2223              		.loc 1 312 0
 2224 0014 07EE901A 		vmov	s15, r1	@ int
 2225              		.loc 1 313 0
 2226 0018 019C     		ldr	r4, [sp, #4]
 2227 001a 1268     		ldr	r2, [r2]
 2228              		.loc 1 311 0
 2229 001c 83ED007A 		vstr.32	s14, [r3]
 2230              		.loc 1 312 0
 2231 0020 F8EEE77A 		vcvt.f32.s32	s15, s15
 2232              		.loc 1 313 0
 2233 0024 9442     		cmp	r4, r2
 2234              		.loc 1 312 0
 2235 0026 C3ED017A 		vstr.32	s15, [r3, #4]
 2236              		.loc 1 313 0
 2237 002a 01D1     		bne	.L215
 2238 002c 02B0     		add	sp, sp, #8
 2239              		.cfi_remember_state
 2240              		.cfi_def_cfa_offset 8
 2241              		@ sp needed
 2242 002e 10BD     		pop	{r4, pc}
 2243              	.L215:
 2244              		.cfi_restore_state
 2245 0030 FFF7FEFF 		bl	__stack_chk_fail
 2246              	.LVL159:
 2247              	.L217:
 2248              		.align	2
 2249              	.L216:
 2250 0034 00000000 		.word	__stack_chk_guard
 2251 0038 00000000 		.word	.LANCHOR1
 2252              		.cfi_endproc
 2253              	.LFE277:
 2254              		.size	set_position_calib, .-set_position_calib
 2255              		.section	.text.motors_controller_start,"ax",%progbits
 2256              		.align	1
 2257              		.p2align 4,,15
 2258              		.global	motors_controller_start
 2259              		.syntax unified
 2260              		.thumb
 2261              		.thumb_func
 2262              		.fpu fpv4-sp-d16
 2263              		.type	motors_controller_start, %function
 2264              	motors_controller_start:
 2265              	.LFB278:
 2266              		.loc 1 315 0
 2267              		.cfi_startproc
 2268              		@ args = 0, pretend = 0, frame = 8
 2269              		@ frame_needed = 0, uses_anonymous_args = 0
 2270 0000 10B5     		push	{r4, lr}
 2271              		.cfi_def_cfa_offset 8
 2272              		.cfi_offset 4, -8
 2273              		.cfi_offset 14, -4
 2274 0002 0A4C     		ldr	r4, .L222
 2275              		.loc 1 316 0
 2276 0004 0A4B     		ldr	r3, .L222+4
 2277              		.loc 1 315 0
 2278 0006 2268     		ldr	r2, [r4]
 2279              		.loc 1 316 0
ARM GAS  C:\Users\rosendo\AppData\Local\Temp\cc7e3neq.s 			page 41


 2280 0008 0A48     		ldr	r0, .L222+8
 2281              		.loc 1 315 0
 2282 000a 84B0     		sub	sp, sp, #16
 2283              		.cfi_def_cfa_offset 24
 2284              		.loc 1 316 0
 2285 000c 4FF41E71 		mov	r1, #632
 2286              		.loc 1 315 0
 2287 0010 0392     		str	r2, [sp, #12]
 2288              		.loc 1 316 0
 2289 0012 0022     		movs	r2, #0
 2290 0014 0092     		str	r2, [sp]
 2291 0016 4122     		movs	r2, #65
 2292 0018 FFF7FEFF 		bl	chThdCreateStatic
 2293              	.LVL160:
 2294              		.loc 1 317 0
 2295 001c 039A     		ldr	r2, [sp, #12]
 2296 001e 2368     		ldr	r3, [r4]
 2297 0020 9A42     		cmp	r2, r3
 2298 0022 01D1     		bne	.L221
 2299 0024 04B0     		add	sp, sp, #16
 2300              		.cfi_remember_state
 2301              		.cfi_def_cfa_offset 8
 2302              		@ sp needed
 2303 0026 10BD     		pop	{r4, pc}
 2304              	.L221:
 2305              		.cfi_restore_state
 2306 0028 FFF7FEFF 		bl	__stack_chk_fail
 2307              	.LVL161:
 2308              	.L223:
 2309              		.align	2
 2310              	.L222:
 2311 002c 00000000 		.word	__stack_chk_guard
 2312 0030 00000000 		.word	MotorsControl
 2313 0034 00000000 		.word	.LANCHOR10
 2314              		.cfi_endproc
 2315              	.LFE278:
 2316              		.size	motors_controller_start, .-motors_controller_start
 2317              		.section	.bss.angle_objective,"aw",%nobits
 2318              		.align	2
 2319              		.set	.LANCHOR4,. + 0
 2320              		.type	angle_objective, %object
 2321              		.size	angle_objective, 4
 2322              	angle_objective:
 2323 0000 00000000 		.space	4
 2324              		.section	.bss.intermediate_position,"aw",%nobits
 2325              		.align	2
 2326              		.set	.LANCHOR8,. + 0
 2327              		.type	intermediate_position, %object
 2328              		.size	intermediate_position, 8
 2329              	intermediate_position:
 2330 0000 00000000 		.space	8
 2330      00000000 
 2331              		.section	.bss.my_angle,"aw",%nobits
 2332              		.align	2
 2333              		.set	.LANCHOR2,. + 0
 2334              		.type	my_angle, %object
 2335              		.size	my_angle, 4
ARM GAS  C:\Users\rosendo\AppData\Local\Temp\cc7e3neq.s 			page 42


 2336              	my_angle:
 2337 0000 00000000 		.space	4
 2338              		.section	.bss.position_in_int.11101,"aw",%nobits
 2339              		.align	2
 2340              		.set	.LANCHOR0,. + 0
 2341              		.type	position_in_int.11101, %object
 2342              		.size	position_in_int.11101, 4
 2343              	position_in_int.11101:
 2344 0000 00000000 		.space	4
 2345              		.section	.bss.position_objective,"aw",%nobits
 2346              		.align	2
 2347              		.set	.LANCHOR6,. + 0
 2348              		.type	position_objective, %object
 2349              		.size	position_objective, 8
 2350              	position_objective:
 2351 0000 00000000 		.space	8
 2351      00000000 
 2352              		.section	.bss.waMotorsControl,"aw",%nobits
 2353              		.align	3
 2354              		.set	.LANCHOR10,. + 0
 2355              		.type	waMotorsControl, %object
 2356              		.size	waMotorsControl, 632
 2357              	waMotorsControl:
 2358 0000 00000000 		.space	632
 2358      00000000 
 2358      00000000 
 2358      00000000 
 2358      00000000 
 2359              		.section	.data.angle_obj_ach,"aw",%progbits
 2360              		.set	.LANCHOR3,. + 0
 2361              		.type	angle_obj_ach, %object
 2362              		.size	angle_obj_ach, 1
 2363              	angle_obj_ach:
 2364 0000 01       		.byte	1
 2365              		.section	.data.interm_ach,"aw",%progbits
 2366              		.set	.LANCHOR7,. + 0
 2367              		.type	interm_ach, %object
 2368              		.size	interm_ach, 1
 2369              	interm_ach:
 2370 0000 01       		.byte	1
 2371              		.section	.data.my_position,"aw",%progbits
 2372              		.align	2
 2373              		.set	.LANCHOR1,. + 0
 2374              		.type	my_position, %object
 2375              		.size	my_position, 8
 2376              	my_position:
 2377 0000 00004843 		.word	1128792064
 2378 0004 00004843 		.word	1128792064
 2379              		.section	.data.pos_obj_ach,"aw",%progbits
 2380              		.set	.LANCHOR5,. + 0
 2381              		.type	pos_obj_ach, %object
 2382              		.size	pos_obj_ach, 1
 2383              	pos_obj_ach:
 2384 0000 01       		.byte	1
 2385              		.section	.rodata.__FUNCTION__.11088,"a",%progbits
 2386              		.align	2
 2387              		.set	.LANCHOR9,. + 0
ARM GAS  C:\Users\rosendo\AppData\Local\Temp\cc7e3neq.s 			page 43


 2388              		.type	__FUNCTION__.11088, %object
 2389              		.size	__FUNCTION__.11088, 14
 2390              	__FUNCTION__.11088:
 2391 0000 4D6F746F 		.ascii	"MotorsControl\000"
 2391      7273436F 
 2391      6E74726F 
 2391      6C00
 2392              		.text
 2393              	.Letext0:
 2394              		.file 3 "c:\\users\\rosendo\\desktop\\eclipse_e-puck2_win32_29_jan_2020\\eclipse_e-puck2\\tools\\g
 2395              		.file 4 "c:\\users\\rosendo\\desktop\\eclipse_e-puck2_win32_29_jan_2020\\eclipse_e-puck2\\tools\\g
 2396              		.file 5 "c:\\users\\rosendo\\desktop\\eclipse_e-puck2_win32_29_jan_2020\\eclipse_e-puck2\\tools\\g
 2397              		.file 6 "../../lib/e-puck2_main-processor/ChibiOS//os/rt/ports/ARMCMx/compilers/GCC/chtypes.h"
 2398              		.file 7 "../../lib/e-puck2_main-processor/ChibiOS//os/rt/include/chsystypes.h"
 2399              		.file 8 "../../lib/e-puck2_main-processor/ChibiOS//os/rt/include/chschd.h"
 2400              		.file 9 "../../lib/e-puck2_main-processor/ChibiOS//os/ext/CMSIS/include/core_cm4.h"
 2401              		.file 10 "../../lib/e-puck2_main-processor/ChibiOS//os/ext/CMSIS/ST/system_stm32f4xx.h"
 2402              		.file 11 "../../lib/e-puck2_main-processor/ChibiOS//os/ext/CMSIS/ST/stm32f407xx.h"
 2403              		.file 12 "../../lib/e-puck2_main-processor/ChibiOS//os/rt/ports/ARMCMx/chcore.h"
 2404              		.file 13 "../../lib/e-puck2_main-processor/ChibiOS//os/rt/ports/ARMCMx/chcore_v7m.h"
 2405              		.file 14 "../../lib/e-puck2_main-processor/ChibiOS//os/rt/include/chdebug.h"
 2406              		.file 15 "../../lib/e-puck2_main-processor/ChibiOS//os/rt/include/chtm.h"
 2407              		.file 16 "../../lib/e-puck2_main-processor/ChibiOS//os/rt/include/chstats.h"
 2408              		.file 17 "../../lib/e-puck2_main-processor/ChibiOS//os/rt/include/chsem.h"
 2409              		.file 18 "../../lib/e-puck2_main-processor/ChibiOS//os/rt/include/chmtx.h"
 2410              		.file 19 "../../lib/e-puck2_main-processor/ChibiOS//os/rt/include/chevents.h"
 2411              		.file 20 "../../lib/e-puck2_main-processor/ChibiOS//os/rt/include/chqueues.h"
 2412              		.file 21 "../../lib/e-puck2_main-processor/ChibiOS//os/hal/ports/STM32/STM32F4xx/stm32_dma.h"
 2413              		.file 22 "../../lib/e-puck2_main-processor/ChibiOS//os/hal/include/hal_ioblock.h"
 2414              		.file 23 "../../lib/e-puck2_main-processor/ChibiOS//os/hal/ports/STM32/LLD/GPIOv2/pal_lld.h"
 2415              		.file 24 "../../lib/e-puck2_main-processor/ChibiOS//os/hal/include/adc.h"
 2416              		.file 25 "../../lib/e-puck2_main-processor/ChibiOS//os/hal/ports/STM32/STM32F4xx/adc_lld.h"
 2417              		.file 26 "../../lib/e-puck2_main-processor/ChibiOS//os/hal/include/can.h"
 2418              		.file 27 "../../lib/e-puck2_main-processor/ChibiOS//os/hal/ports/STM32/LLD/can_lld.h"
 2419              		.file 28 "../../lib/e-puck2_main-processor/ChibiOS//os/hal/include/dac.h"
 2420              		.file 29 "../../lib/e-puck2_main-processor/ChibiOS//os/hal/ports/STM32/LLD/DACv1/dac_lld.h"
 2421              		.file 30 "../../lib/e-puck2_main-processor/ChibiOS//os/hal/include/ext.h"
 2422              		.file 31 "../../lib/e-puck2_main-processor/ChibiOS//os/hal/ports/STM32/LLD/ext_lld.h"
 2423              		.file 32 "../../lib/e-puck2_main-processor/ChibiOS//os/hal/include/gpt.h"
 2424              		.file 33 "../../lib/e-puck2_main-processor/ChibiOS//os/hal/ports/STM32/LLD/TIMv1/gpt_lld.h"
 2425              		.file 34 "../../lib/e-puck2_main-processor/ChibiOS//os/hal/ports/STM32/LLD/TIMv1/stm32_tim.h"
 2426              		.file 35 "../../lib/e-puck2_main-processor/ChibiOS//os/hal/include/i2c.h"
 2427              		.file 36 "../../lib/e-puck2_main-processor/ChibiOS//os/hal/ports/STM32/LLD/I2Cv1/i2c_lld.h"
 2428              		.file 37 "../../lib/e-puck2_main-processor/ChibiOS//os/hal/include/i2s.h"
 2429              		.file 38 "../../lib/e-puck2_main-processor/ChibiOS//os/hal/ports/STM32/LLD/SPIv1/i2s_lld.h"
 2430              		.file 39 "../../lib/e-puck2_main-processor/ChibiOS//os/hal/include/pwm.h"
 2431              		.file 40 "../../lib/e-puck2_main-processor/ChibiOS//os/hal/ports/STM32/LLD/TIMv1/pwm_lld.h"
 2432              		.file 41 "../../lib/e-puck2_main-processor/ChibiOS//os/hal/include/serial.h"
 2433              		.file 42 "../../lib/e-puck2_main-processor/ChibiOS//os/hal/ports/STM32/LLD/USARTv1/serial_lld.h"
 2434              		.file 43 "../../lib/e-puck2_main-processor/ChibiOS//os/hal/include/sdc.h"
 2435              		.file 44 "../../lib/e-puck2_main-processor/ChibiOS//os/hal/ports/STM32/LLD/sdc_lld.h"
 2436              		.file 45 "../../lib/e-puck2_main-processor/ChibiOS//os/hal/include/spi.h"
 2437              		.file 46 "../../lib/e-puck2_main-processor/ChibiOS//os/hal/ports/STM32/LLD/SPIv1/spi_lld.h"
 2438              		.file 47 "../../lib/e-puck2_main-processor/ChibiOS//os/hal/include/usb.h"
 2439              		.file 48 "../../lib/e-puck2_main-processor/ChibiOS//os/hal/ports/STM32/LLD/OTGv1/usb_lld.h"
 2440              		.file 49 "../../lib/e-puck2_main-processor/ChibiOS//os/hal/ports/STM32/LLD/OTGv1/stm32_otg.h"
 2441              		.file 50 "../../lib/e-puck2_main-processor/ChibiOS//os/hal/include/serial_usb.h"
ARM GAS  C:\Users\rosendo\AppData\Local\Temp\cc7e3neq.s 			page 44


 2442              		.file 51 "c:\\users\\rosendo\\desktop\\eclipse_e-puck2_win32_29_jan_2020\\eclipse_e-puck2\\tools\\
 2443              		.file 52 "c:\\users\\rosendo\\desktop\\eclipse_e-puck2_win32_29_jan_2020\\eclipse_e-puck2\\tools\\
 2444              		.file 53 "c:\\users\\rosendo\\desktop\\eclipse_e-puck2_win32_29_jan_2020\\eclipse_e-puck2\\tools\\
 2445              		.file 54 "c:\\users\\rosendo\\desktop\\eclipse_e-puck2_win32_29_jan_2020\\eclipse_e-puck2\\tools\\
 2446              		.file 55 "../../lib/e-puck2_main-processor/src/usbcfg.h"
 2447              		.file 56 "c:\\users\\rosendo\\desktop\\eclipse_e-puck2_win32_29_jan_2020\\eclipse_e-puck2\\tools\\
 2448              		.file 57 "../../lib/e-puck2_main-processor/ChibiOS//os/rt/include/chthreads.h"
 2449              		.file 58 "../../lib/e-puck2_main-processor/src/motors.h"