ARM GAS  C:\Users\rosendo\AppData\Local\Temp\ccAzHBfd.s 			page 1


   1              		.cpu cortex-m4
   2              		.eabi_attribute 27, 1
   3              		.eabi_attribute 28, 1
   4              		.eabi_attribute 20, 1
   5              		.eabi_attribute 21, 1
   6              		.eabi_attribute 23, 3
   7              		.eabi_attribute 24, 1
   8              		.eabi_attribute 25, 1
   9              		.eabi_attribute 26, 1
  10              		.eabi_attribute 30, 2
  11              		.eabi_attribute 34, 1
  12              		.eabi_attribute 18, 4
  13              		.file	"process_image.c"
  14              		.text
  15              	.Ltext0:
  16              		.cfi_sections	.debug_frame
  17              		.section	.text.chprintf.constprop.0,"ax",%progbits
  18              		.align	1
  19              		.p2align 4,,15
  20              		.syntax unified
  21              		.thumb
  22              		.thumb_func
  23              		.fpu fpv4-sp-d16
  24              		.type	chprintf.constprop.0, %function
  25              	chprintf.constprop.0:
  26              	.LFB267:
  27              		.file 1 "../../lib/e-puck2_main-processor/ChibiOS//os/hal/lib/streams/chprintf.h"
  28              		.loc 1 69 0
  29              		.cfi_startproc
  30              		@ args = 4, pretend = 12, frame = 8
  31              		@ frame_needed = 0, uses_anonymous_args = 1
  32              	.LVL0:
  33 0000 0EB4     		push	{r1, r2, r3}
  34              		.cfi_def_cfa_offset 12
  35              		.cfi_offset 1, -12
  36              		.cfi_offset 2, -8
  37              		.cfi_offset 3, -4
  38 0002 10B5     		push	{r4, lr}
  39              		.cfi_def_cfa_offset 20
  40              		.cfi_offset 4, -20
  41              		.cfi_offset 14, -16
  42 0004 0A4C     		ldr	r4, .L6
  43              		.loc 1 74 0
  44 0006 0B49     		ldr	r1, .L6+4
  45              		.loc 1 69 0
  46 0008 2368     		ldr	r3, [r4]
  47              		.loc 1 74 0
  48 000a 0B48     		ldr	r0, .L6+8
  49              	.LVL1:
  50              		.loc 1 69 0
  51 000c 83B0     		sub	sp, sp, #12
  52              		.cfi_def_cfa_offset 32
  53              		.loc 1 69 0
  54 000e 0193     		str	r3, [sp, #4]
  55              	.LVL2:
  56              		.loc 1 73 0
  57 0010 06AB     		add	r3, sp, #24
ARM GAS  C:\Users\rosendo\AppData\Local\Temp\ccAzHBfd.s 			page 2


  58              		.loc 1 74 0
  59 0012 1A46     		mov	r2, r3
  60              		.loc 1 73 0
  61 0014 0093     		str	r3, [sp]
  62              		.loc 1 74 0
  63 0016 FFF7FEFF 		bl	chvprintf
  64              	.LVL3:
  65              		.loc 1 78 0
  66 001a 019A     		ldr	r2, [sp, #4]
  67 001c 2368     		ldr	r3, [r4]
  68 001e 9A42     		cmp	r2, r3
  69 0020 04D1     		bne	.L5
  70 0022 03B0     		add	sp, sp, #12
  71              		.cfi_remember_state
  72              		.cfi_def_cfa_offset 20
  73              		@ sp needed
  74 0024 BDE81040 		pop	{r4, lr}
  75              		.cfi_restore 14
  76              		.cfi_restore 4
  77              		.cfi_def_cfa_offset 12
  78 0028 03B0     		add	sp, sp, #12
  79              		.cfi_restore 3
  80              		.cfi_restore 2
  81              		.cfi_restore 1
  82              		.cfi_def_cfa_offset 0
  83 002a 7047     		bx	lr
  84              	.L5:
  85              		.cfi_restore_state
  86 002c FFF7FEFF 		bl	__stack_chk_fail
  87              	.LVL4:
  88              	.L7:
  89              		.align	2
  90              	.L6:
  91 0030 00000000 		.word	__stack_chk_guard
  92 0034 00000000 		.word	.LC0
  93 0038 00000000 		.word	SD3
  94              		.cfi_endproc
  95              	.LFE267:
  96              		.size	chprintf.constprop.0, .-chprintf.constprop.0
  97              		.section	.text.CaptureImage,"ax",%progbits
  98              		.align	1
  99              		.p2align 4,,15
 100              		.syntax unified
 101              		.thumb
 102              		.thumb_func
 103              		.fpu fpv4-sp-d16
 104              		.type	CaptureImage, %function
 105              	CaptureImage:
 106              	.LFB257:
 107              		.file 2 "process_image.c"
 108              		.loc 2 38 0
 109              		.cfi_startproc
 110              		@ Volatile: function does not return.
 111              		@ args = 0, pretend = 0, frame = 8
 112              		@ frame_needed = 0, uses_anonymous_args = 0
 113              	.LVL5:
 114 0000 80B5     		push	{r7, lr}
ARM GAS  C:\Users\rosendo\AppData\Local\Temp\ccAzHBfd.s 			page 3


 115              		.cfi_def_cfa_offset 8
 116              		.cfi_offset 7, -8
 117              		.cfi_offset 14, -4
 118              	.LBB84:
 119              	.LBB85:
 120              		.file 3 "../../lib/e-puck2_main-processor/ChibiOS//os/rt/include/chregistry.h"
 121              		.loc 3 135 0
 122 0002 274C     		ldr	r4, .L14
 123              	.LBE85:
 124              	.LBE84:
 125              		.loc 2 38 0
 126 0004 274A     		ldr	r2, .L14+4
 127              	.LBB87:
 128              	.LBB86:
 129              		.loc 3 135 0
 130 0006 A369     		ldr	r3, [r4, #24]
 131 0008 2749     		ldr	r1, .L14+8
 132 000a 9961     		str	r1, [r3, #24]
 133              	.LBE86:
 134              	.LBE87:
 135              		.loc 2 38 0
 136 000c 86B0     		sub	sp, sp, #24
 137              		.cfi_def_cfa_offset 32
 138              		.loc 2 44 0
 139 000e 0323     		movs	r3, #3
 140 0010 2025     		movs	r5, #32
 141 0012 0021     		movs	r1, #0
 142              		.loc 2 38 0
 143 0014 1668     		ldr	r6, [r2]
 144              		.loc 2 44 0
 145 0016 0093     		str	r3, [sp]
 146 0018 EF22     		movs	r2, #239
 147 001a 4FF42073 		mov	r3, #640
 148 001e CDE90155 		strd	r5, r5, [sp, #4]
 149 0022 4420     		movs	r0, #68
 150              	.LVL6:
 151              		.loc 2 38 0
 152 0024 0596     		str	r6, [sp, #20]
 153              		.loc 2 44 0
 154 0026 FFF7FEFF 		bl	po8030_advanced_config
 155              	.LVL7:
 156              		.loc 2 45 0
 157 002a 2D20     		movs	r0, #45
 158 002c FFF7FEFF 		bl	po8030_set_contrast
 159              	.LVL8:
 160              		.loc 2 46 0
 161 0030 0020     		movs	r0, #0
 162 0032 FFF7FEFF 		bl	po8030_set_ae
 163              	.LVL9:
 164 0036 1D4E     		ldr	r6, .L14+12
 165              	.LBB88:
 166              	.LBB89:
 167              	.LBB90:
 168              	.LBB91:
 169              		.file 4 "../../lib/e-puck2_main-processor/ChibiOS//os/rt/include/chsys.h"
 170              		.loc 4 367 0
 171 0038 1D4F     		ldr	r7, .L14+16
ARM GAS  C:\Users\rosendo\AppData\Local\Temp\ccAzHBfd.s 			page 4


 172              	.LBE91:
 173              	.LBE90:
 174              	.LBE89:
 175              	.LBE88:
 176              		.loc 2 47 0
 177 003a 0020     		movs	r0, #0
 178 003c FFF7FEFF 		bl	po8030_set_awb
 179              	.LVL10:
 180              		.loc 2 48 0
 181 0040 FFF7FEFF 		bl	dcmi_enable_double_buffering
 182              	.LVL11:
 183              		.loc 2 49 0
 184 0044 0020     		movs	r0, #0
 185 0046 FFF7FEFF 		bl	dcmi_set_capture_mode
 186              	.LVL12:
 187              	.LBB109:
 188              	.LBB106:
 189              	.LBB96:
 190              	.LBB97:
 191              		.file 5 "../../lib/e-puck2_main-processor/ChibiOS//os/rt/include/chbsem.h"
 192              		.loc 5 271 0
 193 004a B046     		mov	r8, r6
 194              	.LBE97:
 195              	.LBE96:
 196              	.LBE106:
 197              	.LBE109:
 198              		.loc 2 50 0
 199 004c FFF7FEFF 		bl	dcmi_prepare
 200              	.LVL13:
 201 0050 13E0     		b	.L11
 202              	.LVL14:
 203              	.L9:
 204              	.LBB110:
 205              	.LBB107:
 206              		.loc 5 286 0
 207 0052 FFF7FEFF 		bl	chSchRescheduleS
 208              	.LVL15:
 209              	.LBB99:
 210              	.LBB95:
 211              		.loc 4 360 0
 212 0056 FFF7FEFF 		bl	_dbg_check_unlock
 213              	.LVL16:
 214              		.loc 4 361 0
 215 005a FFF7FEFF 		bl	_stats_stop_measure_crit_thd
 216              	.LVL17:
 217              		.loc 4 367 0
 218 005e 2368     		ldr	r3, [r4]
 219 0060 A342     		cmp	r3, r4
 220 0062 07D0     		beq	.L10
 221 0064 A269     		ldr	r2, [r4, #24]
 222 0066 9B68     		ldr	r3, [r3, #8]
 223 0068 9268     		ldr	r2, [r2, #8]
 224 006a 9A42     		cmp	r2, r3
 225 006c 02D2     		bcs	.L10
 226 006e 3846     		mov	r0, r7
 227 0070 FFF7FEFF 		bl	chSysHalt
 228              	.LVL18:
ARM GAS  C:\Users\rosendo\AppData\Local\Temp\ccAzHBfd.s 			page 5


 229              	.L10:
 230              	.LBB92:
 231              	.LBB93:
 232              	.LBB94:
 233              		.file 6 "../../lib/e-puck2_main-processor/ChibiOS//os/ext/CMSIS/include/core_cmFunc.h"
 234              		.loc 6 546 0
 235 0074 0023     		movs	r3, #0
 236              		.syntax unified
 237              	@ 546 "../../lib/e-puck2_main-processor/ChibiOS//os/ext/CMSIS/include/core_cmFunc.h" 1
 238 0076 83F31188 		MSR basepri, r3
 239              	@ 0 "" 2
 240              	.LVL19:
 241              		.thumb
 242              		.syntax unified
 243              	.L11:
 244              	.LBE94:
 245              	.LBE93:
 246              	.LBE92:
 247              	.LBE95:
 248              	.LBE99:
 249              	.LBE107:
 250              	.LBE110:
 251              		.loc 2 54 0 discriminator 1
 252 007a FFF7FEFF 		bl	dcmi_capture_start
 253              	.LVL20:
 254              		.loc 2 56 0 discriminator 1
 255 007e FFF7FEFF 		bl	wait_image_ready
 256              	.LVL21:
 257              	.LBB111:
 258              	.LBB108:
 259              	.LBB100:
 260              	.LBB101:
 261              	.LBB102:
 262              	.LBB103:
 263              	.LBB104:
 264              		.loc 6 546 0 discriminator 1
 265              		.syntax unified
 266              	@ 546 "../../lib/e-puck2_main-processor/ChibiOS//os/ext/CMSIS/include/core_cmFunc.h" 1
 267 0082 85F31188 		MSR basepri, r5
 268              	@ 0 "" 2
 269              	.LVL22:
 270              		.thumb
 271              		.syntax unified
 272              	.LBE104:
 273              	.LBE103:
 274              	.LBE102:
 275              		.loc 4 349 0 discriminator 1
 276 0086 FFF7FEFF 		bl	_stats_start_measure_crit_thd
 277              	.LVL23:
 278              		.loc 4 350 0 discriminator 1
 279 008a FFF7FEFF 		bl	_dbg_check_lock
 280              	.LVL24:
 281              	.LBE101:
 282              	.LBE100:
 283              	.LBB105:
 284              	.LBB98:
 285              		.loc 5 268 0 discriminator 1
ARM GAS  C:\Users\rosendo\AppData\Local\Temp\ccAzHBfd.s 			page 6


 286 008e FFF7FEFF 		bl	chDbgCheckClassI
 287              	.LVL25:
 288              		.loc 5 270 0 discriminator 1
 289 0092 B368     		ldr	r3, [r6, #8]
 290 0094 002B     		cmp	r3, #0
 291 0096 DCDC     		bgt	.L9
 292              		.loc 5 271 0
 293 0098 4046     		mov	r0, r8
 294 009a FFF7FEFF 		bl	chSemSignalI
 295              	.LVL26:
 296 009e D8E7     		b	.L9
 297              	.L15:
 298              		.align	2
 299              	.L14:
 300 00a0 00000000 		.word	ch
 301 00a4 00000000 		.word	__stack_chk_guard
 302 00a8 00000000 		.word	.LANCHOR0
 303 00ac 00000000 		.word	.LANCHOR1
 304 00b0 00000000 		.word	.LANCHOR2
 305              	.LBE98:
 306              	.LBE105:
 307              	.LBE108:
 308              	.LBE111:
 309              		.cfi_endproc
 310              	.LFE257:
 311              		.size	CaptureImage, .-CaptureImage
 312              		.section	.text.first_ball_estimate,"ax",%progbits
 313              		.align	1
 314              		.p2align 4,,15
 315              		.global	first_ball_estimate
 316              		.syntax unified
 317              		.thumb
 318              		.thumb_func
 319              		.fpu fpv4-sp-d16
 320              		.type	first_ball_estimate, %function
 321              	first_ball_estimate:
 322              	.LFB259:
 323              		.loc 2 100 0
 324              		.cfi_startproc
 325              		@ args = 0, pretend = 0, frame = 24
 326              		@ frame_needed = 0, uses_anonymous_args = 0
 327              	.LVL27:
 328 0000 2DE9F04F 		push	{r4, r5, r6, r7, r8, r9, r10, fp, lr}
 329              		.cfi_def_cfa_offset 36
 330              		.cfi_offset 4, -36
 331              		.cfi_offset 5, -32
 332              		.cfi_offset 6, -28
 333              		.cfi_offset 7, -24
 334              		.cfi_offset 8, -20
 335              		.cfi_offset 9, -16
 336              		.cfi_offset 10, -12
 337              		.cfi_offset 11, -8
 338              		.cfi_offset 14, -4
 339 0004 2B4D     		ldr	r5, .L26
 340              		.loc 2 104 0
 341 0006 0478     		ldrb	r4, [r0]	@ zero_extendqisi2
 342              		.loc 2 100 0
ARM GAS  C:\Users\rosendo\AppData\Local\Temp\ccAzHBfd.s 			page 7


 343 0008 2D68     		ldr	r5, [r5]
 344              		.loc 2 104 0
 345 000a 0C70     		strb	r4, [r1]
 346              		.loc 2 105 0
 347 000c 4478     		ldrb	r4, [r0, #1]	@ zero_extendqisi2
 348 000e 4C70     		strb	r4, [r1, #1]
 349              		.loc 2 100 0
 350 0010 87B0     		sub	sp, sp, #28
 351              		.cfi_def_cfa_offset 64
 352              		.loc 2 106 0
 353 0012 90F87F42 		ldrb	r4, [r0, #639]	@ zero_extendqisi2
 354              		.loc 2 100 0
 355 0016 0595     		str	r5, [sp, #20]
 356              	.LVL28:
 357              		.loc 2 101 0
 358 0018 0025     		movs	r5, #0
 359              		.loc 2 106 0
 360 001a 81F87F42 		strb	r4, [r1, #639]
 361              		.loc 2 100 0
 362 001e CDE90152 		strd	r5, r2, [sp, #4]
 363              		.loc 2 107 0
 364 0022 90F87E42 		ldrb	r4, [r0, #638]	@ zero_extendqisi2
 365              	.LBB112:
 366              	.LBB113:
 367              		.loc 2 116 0
 368 0026 DFF89080 		ldr	r8, .L26+4
 369              	.LBE113:
 370              	.LBE112:
 371              		.loc 2 100 0
 372 002a 0393     		str	r3, [sp, #12]
 373              		.loc 2 107 0
 374 002c 81F87E42 		strb	r4, [r1, #638]
 375              	.LVL29:
 376 0030 01F1010C 		add	ip, r1, #1
 377 0034 00F5F06B 		add	fp, r0, #1920
 378              	.LBB115:
 379              		.loc 2 110 0
 380 0038 AA46     		mov	r10, r5
 381              	.LBE115:
 382              		.loc 2 107 0
 383 003a 0227     		movs	r7, #2
 384              	.LVL30:
 385              	.L20:
 386              	.LBB116:
 387              		.loc 2 110 0
 388 003c 0CF801AF 		strb	r10, [ip, #1]!
 389 0040 1FFA87F9 		uxth	r9, r7
 390              	.LVL31:
 391 0044 C619     		adds	r6, r0, r7
 392 0046 0BEB070E 		add	lr, fp, r7
 393 004a 0023     		movs	r3, #0
 394              	.LVL32:
 395              	.L17:
 396              	.LBB114:
 397              		.loc 2 112 0 discriminator 3
 398 004c 16F8024C 		ldrb	r4, [r6, #-2]	@ zero_extendqisi2
 399              		.loc 2 113 0 discriminator 3
ARM GAS  C:\Users\rosendo\AppData\Local\Temp\ccAzHBfd.s 			page 8


 400 0050 16F8012C 		ldrb	r2, [r6, #-1]	@ zero_extendqisi2
 401              		.loc 2 114 0 discriminator 3
 402 0054 3578     		ldrb	r5, [r6]	@ zero_extendqisi2
 403              		.loc 2 116 0 discriminator 3
 404 0056 B178     		ldrb	r1, [r6, #2]	@ zero_extendqisi2
 405              		.loc 2 112 0 discriminator 3
 406 0058 2244     		add	r2, r2, r4
 407              		.loc 2 115 0 discriminator 3
 408 005a 7478     		ldrb	r4, [r6, #1]	@ zero_extendqisi2
 409              		.loc 2 113 0 discriminator 3
 410 005c 2A44     		add	r2, r2, r5
 411              		.loc 2 114 0 discriminator 3
 412 005e 2244     		add	r2, r2, r4
 413              		.loc 2 115 0 discriminator 3
 414 0060 0A44     		add	r2, r2, r1
 415              		.loc 2 116 0 discriminator 3
 416 0062 A8FB0212 		umull	r1, r2, r8, r2
 417              		.loc 2 112 0 discriminator 3
 418 0066 03EBD203 		add	r3, r3, r2, lsr #3
 419 006a 06F52076 		add	r6, r6, #640
 420 006e DBB2     		uxtb	r3, r3
 421              		.loc 2 111 0 discriminator 3
 422 0070 B645     		cmp	lr, r6
 423              		.loc 2 112 0 discriminator 3
 424 0072 8CF80030 		strb	r3, [ip]
 425              		.loc 2 111 0 discriminator 3
 426 0076 E9D1     		bne	.L17
 427              	.LBE114:
 428              		.loc 2 119 0
 429 0078 0A2B     		cmp	r3, #10
 430 007a 06D8     		bhi	.L18
 431              		.loc 2 120 0
 432 007c 019B     		ldr	r3, [sp, #4]
 433 007e 93B9     		cbnz	r3, .L19
 434              	.LVL33:
 435              		.loc 2 122 0
 436 0080 029B     		ldr	r3, [sp, #8]
 437 0082 A3F80090 		strh	r9, [r3]	@ movhi
 438              		.loc 2 121 0
 439 0086 0123     		movs	r3, #1
 440 0088 0193     		str	r3, [sp, #4]
 441              	.LVL34:
 442              	.L18:
 443 008a 0137     		adds	r7, r7, #1
 444              	.LVL35:
 445              		.loc 2 109 0 discriminator 2
 446 008c 40F27E23 		movw	r3, #638
 447 0090 9F42     		cmp	r7, r3
 448 0092 D3D1     		bne	.L20
 449              	.LBE116:
 450              		.loc 2 130 0
 451 0094 074B     		ldr	r3, .L26
 452 0096 059A     		ldr	r2, [sp, #20]
 453 0098 1B68     		ldr	r3, [r3]
 454 009a 0198     		ldr	r0, [sp, #4]
 455              	.LVL36:
 456 009c 9A42     		cmp	r2, r3
ARM GAS  C:\Users\rosendo\AppData\Local\Temp\ccAzHBfd.s 			page 9


 457 009e 06D1     		bne	.L25
 458 00a0 07B0     		add	sp, sp, #28
 459              		.cfi_remember_state
 460              		.cfi_def_cfa_offset 36
 461              		@ sp needed
 462 00a2 BDE8F08F 		pop	{r4, r5, r6, r7, r8, r9, r10, fp, pc}
 463              	.LVL37:
 464              	.L19:
 465              		.cfi_restore_state
 466              	.LBB117:
 467              		.loc 2 124 0
 468 00a6 039B     		ldr	r3, [sp, #12]
 469 00a8 A3F80090 		strh	r9, [r3]	@ movhi
 470 00ac EDE7     		b	.L18
 471              	.LVL38:
 472              	.L25:
 473              	.LBE117:
 474              		.loc 2 130 0
 475 00ae FFF7FEFF 		bl	__stack_chk_fail
 476              	.LVL39:
 477              	.L27:
 478 00b2 00BF     		.align	2
 479              	.L26:
 480 00b4 00000000 		.word	__stack_chk_guard
 481 00b8 89888888 		.word	-2004318071
 482              		.cfi_endproc
 483              	.LFE259:
 484              		.size	first_ball_estimate, .-first_ball_estimate
 485              		.section	.text.final_ball_estimate,"ax",%progbits
 486              		.align	1
 487              		.p2align 4,,15
 488              		.global	final_ball_estimate
 489              		.syntax unified
 490              		.thumb
 491              		.thumb_func
 492              		.fpu fpv4-sp-d16
 493              		.type	final_ball_estimate, %function
 494              	final_ball_estimate:
 495              	.LFB260:
 496              		.loc 2 132 0
 497              		.cfi_startproc
 498              		@ args = 0, pretend = 0, frame = 8
 499              		@ frame_needed = 0, uses_anonymous_args = 0
 500              	.LVL40:
 501 0000 F0B5     		push	{r4, r5, r6, r7, lr}
 502              		.cfi_def_cfa_offset 20
 503              		.cfi_offset 4, -20
 504              		.cfi_offset 5, -16
 505              		.cfi_offset 6, -12
 506              		.cfi_offset 7, -8
 507              		.cfi_offset 14, -4
 508 0002 1F4D     		ldr	r5, .L38
 509              		.loc 2 136 0
 510 0004 0C88     		ldrh	r4, [r1]
 511              		.loc 2 132 0
 512 0006 2B68     		ldr	r3, [r5]
 513 0008 83B0     		sub	sp, sp, #12
ARM GAS  C:\Users\rosendo\AppData\Local\Temp\ccAzHBfd.s 			page 10


 514              		.cfi_def_cfa_offset 32
 515              		.loc 2 136 0
 516 000a 092C     		cmp	r4, #9
 517              		.loc 2 132 0
 518 000c 0193     		str	r3, [sp, #4]
 519              		.loc 2 136 0
 520 000e 13D9     		bls	.L29
 521 0010 1C4F     		ldr	r7, .L38+4
 522 0012 0619     		adds	r6, r0, r4
 523 0014 2744     		add	r7, r7, r4
 524              	.L30:
 525              	.LVL41:
 526              	.LBB118:
 527              		.loc 2 138 0
 528 0016 7378     		ldrb	r3, [r6, #1]	@ zero_extendqisi2
 529 0018 16F801CD 		ldrb	ip, [r6, #-1]!	@ zero_extendqisi2
 530 001c A3EB0C03 		sub	r3, r3, ip
 531 0020 03EBD373 		add	r3, r3, r3, lsr #31
 532 0024 5B10     		asrs	r3, r3, #1
 533 0026 07F80139 		strb	r3, [r7], #-1
 534              		.loc 2 140 0
 535 002a 0133     		adds	r3, r3, #1
 536              		.loc 2 139 0
 537 002c 0C80     		strh	r4, [r1]	@ movhi
 538              		.loc 2 140 0
 539 002e 03DB     		blt	.L29
 540              		.loc 2 137 0 discriminator 2
 541 0030 013C     		subs	r4, r4, #1
 542              	.LVL42:
 543 0032 A4B2     		uxth	r4, r4
 544              	.LVL43:
 545 0034 012C     		cmp	r4, #1
 546 0036 EED1     		bne	.L30
 547              	.LVL44:
 548              	.L29:
 549              	.LBE118:
 550              		.loc 2 147 0
 551 0038 1188     		ldrh	r1, [r2]
 552              	.LVL45:
 553 003a 40F27523 		movw	r3, #629
 554 003e 9942     		cmp	r1, r3
 555 0040 15D8     		bhi	.L28
 556 0042 104C     		ldr	r4, .L38+4
 557 0044 0844     		add	r0, r0, r1
 558              	.LVL46:
 559 0046 0C44     		add	r4, r4, r1
 560              	.LBB119:
 561              		.loc 2 148 0
 562 0048 40F27F27 		movw	r7, #639
 563              	.L32:
 564              	.LVL47:
 565              		.loc 2 149 0
 566 004c 10F8013F 		ldrb	r3, [r0, #1]!	@ zero_extendqisi2
 567 0050 10F8026C 		ldrb	r6, [r0, #-2]	@ zero_extendqisi2
 568 0054 9B1B     		subs	r3, r3, r6
 569 0056 03EBD373 		add	r3, r3, r3, lsr #31
 570 005a 5B10     		asrs	r3, r3, #1
ARM GAS  C:\Users\rosendo\AppData\Local\Temp\ccAzHBfd.s 			page 11


 571              		.loc 2 151 0
 572 005c 012B     		cmp	r3, #1
 573              		.loc 2 149 0
 574 005e 04F8013B 		strb	r3, [r4], #1
 575              		.loc 2 150 0
 576 0062 1180     		strh	r1, [r2]	@ movhi
 577              		.loc 2 151 0
 578 0064 03DC     		bgt	.L28
 579              		.loc 2 148 0 discriminator 2
 580 0066 0131     		adds	r1, r1, #1
 581              	.LVL48:
 582 0068 89B2     		uxth	r1, r1
 583              	.LVL49:
 584 006a B942     		cmp	r1, r7
 585 006c EED1     		bne	.L32
 586              	.LVL50:
 587              	.L28:
 588              	.LBE119:
 589              		.loc 2 157 0
 590 006e 019A     		ldr	r2, [sp, #4]
 591              	.LVL51:
 592 0070 2B68     		ldr	r3, [r5]
 593 0072 9A42     		cmp	r2, r3
 594 0074 01D1     		bne	.L37
 595 0076 03B0     		add	sp, sp, #12
 596              		.cfi_remember_state
 597              		.cfi_def_cfa_offset 20
 598              		@ sp needed
 599 0078 F0BD     		pop	{r4, r5, r6, r7, pc}
 600              	.L37:
 601              		.cfi_restore_state
 602 007a FFF7FEFF 		bl	__stack_chk_fail
 603              	.LVL52:
 604              	.L39:
 605 007e 00BF     		.align	2
 606              	.L38:
 607 0080 00000000 		.word	__stack_chk_guard
 608 0084 00000000 		.word	.LANCHOR3
 609              		.cfi_endproc
 610              	.LFE260:
 611              		.size	final_ball_estimate, .-final_ball_estimate
 612              		.section	.text.update_ball_pos_mov,"ax",%progbits
 613              		.align	1
 614              		.p2align 4,,15
 615              		.global	update_ball_pos_mov
 616              		.syntax unified
 617              		.thumb
 618              		.thumb_func
 619              		.fpu fpv4-sp-d16
 620              		.type	update_ball_pos_mov, %function
 621              	update_ball_pos_mov:
 622              	.LFB261:
 623              		.loc 2 159 0
 624              		.cfi_startproc
 625              		@ args = 0, pretend = 0, frame = 8
 626              		@ frame_needed = 0, uses_anonymous_args = 0
 627              	.LVL53:
ARM GAS  C:\Users\rosendo\AppData\Local\Temp\ccAzHBfd.s 			page 12


 628 0000 2DE9F04F 		push	{r4, r5, r6, r7, r8, r9, r10, fp, lr}
 629              		.cfi_def_cfa_offset 36
 630              		.cfi_offset 4, -36
 631              		.cfi_offset 5, -32
 632              		.cfi_offset 6, -28
 633              		.cfi_offset 7, -24
 634              		.cfi_offset 8, -20
 635              		.cfi_offset 9, -16
 636              		.cfi_offset 10, -12
 637              		.cfi_offset 11, -8
 638              		.cfi_offset 14, -4
 639 0004 2DED0A8B 		vpush.64	{d8, d9, d10, d11, d12}
 640              		.cfi_def_cfa_offset 76
 641              		.cfi_offset 80, -76
 642              		.cfi_offset 81, -72
 643              		.cfi_offset 82, -68
 644              		.cfi_offset 83, -64
 645              		.cfi_offset 84, -60
 646              		.cfi_offset 85, -56
 647              		.cfi_offset 86, -52
 648              		.cfi_offset 87, -48
 649              		.cfi_offset 88, -44
 650              		.cfi_offset 89, -40
 651 0008 CC4E     		ldr	r6, .L56
 652 000a 83B0     		sub	sp, sp, #12
 653              		.cfi_def_cfa_offset 88
 654              		.loc 2 159 0
 655 000c 0446     		mov	r4, r0
 656 000e 0F46     		mov	r7, r1
 657 0010 3368     		ldr	r3, [r6]
 658 0012 0193     		str	r3, [sp, #4]
 659              		.loc 2 161 0
 660 0014 CA49     		ldr	r1, .L56+4
 661              	.LVL54:
 662 0016 CB48     		ldr	r0, .L56+8
 663              	.LVL55:
 664 0018 3B46     		mov	r3, r7
 665 001a 2246     		mov	r2, r4
 666 001c FFF7FEFF 		bl	chprintf.constprop.0
 667              	.LVL56:
 668              		.loc 2 162 0
 669 0020 0A2C     		cmp	r4, #10
 670 0022 A7EB0403 		sub	r3, r7, r4
 671 0026 03D9     		bls	.L41
 672              		.loc 2 162 0 is_stmt 0 discriminator 1
 673 0028 B7F51D7F 		cmp	r7, #628
 674 002c 40F26E81 		bls	.L42
 675              	.L41:
 676              		.loc 2 163 0 is_stmt 1
 677 0030 C54A     		ldr	r2, .L56+12
 678 0032 0121     		movs	r1, #1
 679 0034 1170     		strb	r1, [r2]
 680              	.L43:
 681              	.LVL57:
 682              		.loc 2 181 0
 683 0036 07EE903A 		vmov	s15, r3	@ int
 684 003a DFEDC4AA 		vldr.32	s21, .L56+16
ARM GAS  C:\Users\rosendo\AppData\Local\Temp\ccAzHBfd.s 			page 13


 685 003e 9FEDC47A 		vldr.32	s14, .L56+20
 686              		.loc 2 186 0
 687 0042 9FEDC4AA 		vldr.32	s20, .L56+24
 688 0046 DFEDC49A 		vldr.32	s19, .L56+28
 689 004a 9FEDC4BA 		vldr.32	s22, .L56+32
 690              		.loc 2 190 0
 691 004e DFF83483 		ldr	r8, .L56+72
 692              		.loc 2 195 0
 693 0052 C34D     		ldr	r5, .L56+36
 694              		.loc 2 181 0
 695 0054 F8EEE77A 		vcvt.f32.s32	s15, s15
 696              		.loc 2 182 0
 697 0058 B6EE009A 		vmov.f32	s18, #5.0e-1
 698              		.loc 2 181 0
 699 005c 67EEAA7A 		vmul.f32	s15, s15, s21
 700              		.loc 2 183 0
 701 0060 3C44     		add	r4, r4, r7
 702              		.loc 2 181 0
 703 0062 87EE870A 		vdiv.f32	s0, s15, s14
 704              	.LVL58:
 705              		.loc 2 182 0
 706 0066 20EE090A 		vmul.f32	s0, s0, s18
 707              	.LVL59:
 708 006a FFF7FEFF 		bl	sinf
 709              	.LVL60:
 710              		.loc 2 183 0
 711 006e 07EE904A 		vmov	s15, r4	@ int
 712 0072 9FEDBC6A 		vldr.32	s12, .L56+40
 713              		.loc 2 182 0
 714 0076 DFEDBC6A 		vldr.32	s13, .L56+44
 715              		.loc 2 183 0
 716 007a F8EEE77A 		vcvt.f32.s32	s15, s15
 717              		.loc 2 182 0
 718 007e C6EE80BA 		vdiv.f32	s23, s13, s0
 719              	.LVL61:
 720              		.loc 2 183 0
 721 0082 87EE867A 		vdiv.f32	s14, s15, s12
 722 0086 39EE479A 		vsub.f32	s18, s18, s14
 723              	.LVL62:
 724              		.loc 2 186 0
 725 008a FFF7FEFF 		bl	get_self_position
 726              	.LVL63:
 727 008e B0F90030 		ldrsh	r3, [r0]
 728 0092 08EE903A 		vmov	s17, r3	@ int
 729 0096 FFF7FEFF 		bl	get_self_angle
 730              	.LVL64:
 731 009a 07EE900A 		vmov	s15, r0	@ int
 732 009e B8EEE70A 		vcvt.f32.s32	s0, s15
 733 00a2 F8EEE88A 		vcvt.f32.s32	s17, s17
 734 00a6 20EE0A0A 		vmul.f32	s0, s0, s20
 735 00aa 80EE290A 		vdiv.f32	s0, s0, s19
 736 00ae FFF7FEFF 		bl	cosf
 737              	.LVL65:
 738 00b2 E0EE0B8A 		vfma.f32	s17, s0, s22
 739 00b6 FFF7FEFF 		bl	get_self_angle
 740              	.LVL66:
 741 00ba 07EE900A 		vmov	s15, r0	@ int
ARM GAS  C:\Users\rosendo\AppData\Local\Temp\ccAzHBfd.s 			page 14


 742 00be F8EEE77A 		vcvt.f32.s32	s15, s15
 743 00c2 67EE8A7A 		vmul.f32	s15, s15, s20
 744 00c6 87EEA90A 		vdiv.f32	s0, s15, s19
 745 00ca A9EE2A0A 		vfma.f32	s0, s18, s21
 746 00ce FFF7FEFF 		bl	cosf
 747              	.LVL67:
 748 00d2 B0EE40CA 		vmov.f32	s24, s0
 749              	.LVL68:
 750              		.loc 2 187 0
 751 00d6 FFF7FEFF 		bl	get_self_position
 752              	.LVL69:
 753 00da B0F90230 		ldrsh	r3, [r0, #2]
 754 00de 08EE103A 		vmov	s16, r3	@ int
 755 00e2 FFF7FEFF 		bl	get_self_angle
 756              	.LVL70:
 757 00e6 07EE900A 		vmov	s15, r0	@ int
 758 00ea B8EEE70A 		vcvt.f32.s32	s0, s15
 759 00ee B8EEC88A 		vcvt.f32.s32	s16, s16
 760 00f2 20EE0A0A 		vmul.f32	s0, s0, s20
 761 00f6 80EE290A 		vdiv.f32	s0, s0, s19
 762 00fa FFF7FEFF 		bl	sinf
 763              	.LVL71:
 764 00fe A0EE0B8A 		vfma.f32	s16, s0, s22
 765 0102 FFF7FEFF 		bl	get_self_angle
 766              	.LVL72:
 767 0106 07EE900A 		vmov	s15, r0	@ int
 768 010a F8EEE77A 		vcvt.f32.s32	s15, s15
 769 010e 27EE8AAA 		vmul.f32	s20, s15, s20
 770 0112 8AEE290A 		vdiv.f32	s0, s20, s19
 771 0116 A9EE2A0A 		vfma.f32	s0, s18, s21
 772 011a FFF7FEFF 		bl	sinf
 773              	.LVL73:
 774              		.loc 2 186 0
 775 011e F0EE687A 		vmov.f32	s15, s17
 776 0122 ECEE2B7A 		vfma.f32	s15, s24, s23
 777              		.loc 2 190 0
 778 0126 B8F90030 		ldrsh	r3, [r8]
 779              		.loc 2 195 0
 780 012a B5F90070 		ldrsh	r7, [r5]
 781              	.LVL74:
 782              		.loc 2 190 0
 783 012e DFED8F5A 		vldr.32	s11, .L56+48
 784 0132 9FED8F6A 		vldr.32	s12, .L56+52
 785              		.loc 2 187 0
 786 0136 A0EE2B8A 		vfma.f32	s16, s0, s23
 787              	.LVL75:
 788              		.loc 2 186 0
 789 013a FDEEE77A 		vcvt.s32.f32	s15, s15
 790              		.loc 2 190 0
 791 013e 06EE903A 		vmov	s13, r3	@ int
 792 0142 17EE902A 		vmov	r2, s15	@ int
 793              		.loc 2 191 0
 794 0146 B8F90230 		ldrsh	r3, [r8, #2]
 795              		.loc 2 187 0
 796 014a BDEEC88A 		vcvt.s32.f32	s16, s16
 797              		.loc 2 190 0
 798 014e 12B2     		sxth	r2, r2
ARM GAS  C:\Users\rosendo\AppData\Local\Temp\ccAzHBfd.s 			page 15


 799              		.loc 2 191 0
 800 0150 07EE103A 		vmov	s14, r3	@ int
 801              		.loc 2 190 0
 802 0154 07EE902A 		vmov	s15, r2	@ int
 803              		.loc 2 191 0
 804 0158 18EE102A 		vmov	r2, s16	@ int
 805              		.loc 2 190 0
 806 015c F8EEE66A 		vcvt.f32.s32	s13, s13
 807              		.loc 2 191 0
 808 0160 12B2     		sxth	r2, r2
 809 0162 B8EEC77A 		vcvt.f32.s32	s14, s14
 810              		.loc 2 190 0
 811 0166 F8EEE77A 		vcvt.f32.s32	s15, s15
 812 016a 66EEA56A 		vmul.f32	s13, s13, s11
 813              		.loc 2 191 0
 814 016e 08EE102A 		vmov	s16, r2	@ int
 815 0172 27EE257A 		vmul.f32	s14, s14, s11
 816              		.loc 2 190 0
 817 0176 E7EE866A 		vfma.f32	s13, s15, s12
 818              	.LBB162:
 819              	.LBB163:
 820              	.LBB164:
 821              	.LBB165:
 822              	.LBB166:
 823              	.LBB167:
 824              	.LBB168:
 825              		.loc 6 546 0
 826 017a 2023     		movs	r3, #32
 827              	.LBE168:
 828              	.LBE167:
 829              	.LBE166:
 830              	.LBE165:
 831              	.LBE164:
 832              	.LBE163:
 833              	.LBE162:
 834              		.loc 2 191 0
 835 017c B8EEC88A 		vcvt.f32.s32	s16, s16
 836 0180 F0EE477A 		vmov.f32	s15, s14
 837 0184 E8EE067A 		vfma.f32	s15, s16, s12
 838              		.loc 2 190 0
 839 0188 BDEEE67A 		vcvt.s32.f32	s14, s13
 840              		.loc 2 191 0
 841 018c FDEEE77A 		vcvt.s32.f32	s15, s15
 842              		.loc 2 190 0
 843 0190 17EE102A 		vmov	r2, s14	@ int
 844 0194 14B2     		sxth	r4, r2
 845              		.loc 2 191 0
 846 0196 17EE902A 		vmov	r2, s15	@ int
 847              		.loc 2 190 0
 848 019a A8F80040 		strh	r4, [r8]	@ movhi
 849              		.loc 2 191 0
 850 019e A8F80220 		strh	r2, [r8, #2]	@ movhi
 851              	.LBB189:
 852              	.LBB187:
 853              	.LBB174:
 854              	.LBB172:
 855              	.LBB171:
ARM GAS  C:\Users\rosendo\AppData\Local\Temp\ccAzHBfd.s 			page 16


 856              	.LBB170:
 857              	.LBB169:
 858              		.loc 6 546 0
 859              		.syntax unified
 860              	@ 546 "../../lib/e-puck2_main-processor/ChibiOS//os/ext/CMSIS/include/core_cmFunc.h" 1
 861 01a2 83F31188 		MSR basepri, r3
 862              	@ 0 "" 2
 863              	.LVL76:
 864              		.thumb
 865              		.syntax unified
 866              	.LBE169:
 867              	.LBE170:
 868              	.LBE171:
 869              	.LBE172:
 870              	.LBE174:
 871              	.LBB175:
 872              	.LBB176:
 873              		.file 7 "../../lib/e-puck2_main-processor/ChibiOS//os/rt/include/chvt.h"
 874              		.loc 7 231 0
 875 01a6 DFF8E091 		ldr	r9, .L56+76
 876              	.LBE176:
 877              	.LBE175:
 878              	.LBB178:
 879              	.LBB173:
 880              		.loc 4 349 0
 881 01aa FFF7FEFF 		bl	_stats_start_measure_crit_thd
 882              	.LVL77:
 883              		.loc 4 350 0
 884 01ae FFF7FEFF 		bl	_dbg_check_lock
 885              	.LVL78:
 886              	.LBE173:
 887              	.LBE178:
 888              	.LBB179:
 889              	.LBB177:
 890              		.loc 7 231 0
 891 01b2 D9F828B0 		ldr	fp, [r9, #40]
 892              	.LBE177:
 893              	.LBE179:
 894              	.LBB180:
 895              	.LBB181:
 896              		.loc 4 360 0
 897 01b6 FFF7FEFF 		bl	_dbg_check_unlock
 898              	.LVL79:
 899              		.loc 4 361 0
 900 01ba FFF7FEFF 		bl	_stats_stop_measure_crit_thd
 901              	.LVL80:
 902              		.loc 4 367 0
 903 01be D9F80020 		ldr	r2, [r9]
 904 01c2 4A45     		cmp	r2, r9
 905 01c4 06D0     		beq	.L46
 906 01c6 D9F81830 		ldr	r3, [r9, #24]
 907 01ca 9268     		ldr	r2, [r2, #8]
 908 01cc 9B68     		ldr	r3, [r3, #8]
 909 01ce 9342     		cmp	r3, r2
 910 01d0 C0F0AA80 		bcc	.L52
 911              	.L46:
 912              	.LVL81:
ARM GAS  C:\Users\rosendo\AppData\Local\Temp\ccAzHBfd.s 			page 17


 913              	.LBB182:
 914              	.LBB183:
 915              	.LBB184:
 916              		.loc 6 546 0
 917 01d4 0023     		movs	r3, #0
 918              		.syntax unified
 919              	@ 546 "../../lib/e-puck2_main-processor/ChibiOS//os/ext/CMSIS/include/core_cmFunc.h" 1
 920 01d6 83F31188 		MSR basepri, r3
 921              	@ 0 "" 2
 922              	.LVL82:
 923              		.thumb
 924              		.syntax unified
 925              	.LBE184:
 926              	.LBE183:
 927              	.LBE182:
 928              	.LBE181:
 929              	.LBE180:
 930              	.LBE187:
 931              	.LBE189:
 932              		.loc 2 195 0
 933 01da DFF8B0A1 		ldr	r10, .L56+80
 934 01de 654A     		ldr	r2, .L56+56
 935 01e0 DAF80030 		ldr	r3, [r10]
 936 01e4 DFED646A 		vldr.32	s13, .L56+60
 937 01e8 ABEB030B 		sub	fp, fp, r3
 938 01ec 4FF47A73 		mov	r3, #1000
 939 01f0 0BFB0333 		mla	r3, fp, r3, r3
 940 01f4 013B     		subs	r3, r3, #1
 941 01f6 A2FB0323 		umull	r2, r3, r2, r3
 942 01fa E41B     		subs	r4, r4, r7
 943 01fc 9B09     		lsrs	r3, r3, #6
 944 01fe 07EE903A 		vmov	s15, r3	@ int
 945 0202 07EE104A 		vmov	s14, r4	@ int
 946 0206 F8EEE77A 		vcvt.f32.s32	s15, s15
 947 020a B8EEC77A 		vcvt.f32.s32	s14, s14
 948              		.loc 2 196 0
 949 020e B5F90220 		ldrsh	r2, [r5, #2]
 950 0212 B8F90230 		ldrsh	r3, [r8, #2]
 951              		.loc 2 195 0
 952 0216 C7EE278A 		vdiv.f32	s17, s14, s15
 953              	.LVL83:
 954              		.loc 2 196 0
 955 021a 9B1A     		subs	r3, r3, r2
 956              	.LBB190:
 957              	.LBB191:
 958              	.LBB192:
 959              	.LBB193:
 960              	.LBB194:
 961              	.LBB195:
 962              	.LBB196:
 963              		.loc 6 546 0
 964 021c 2022     		movs	r2, #32
 965              	.LBE196:
 966              	.LBE195:
 967              	.LBE194:
 968              	.LBE193:
 969              	.LBE192:
ARM GAS  C:\Users\rosendo\AppData\Local\Temp\ccAzHBfd.s 			page 18


 970              	.LBE191:
 971              	.LBE190:
 972              		.loc 2 196 0
 973 021e 07EE903A 		vmov	s15, r3	@ int
 974              		.loc 2 195 0
 975 0222 68EEA68A 		vmul.f32	s17, s17, s13
 976              	.LVL84:
 977              		.loc 2 196 0
 978 0226 B8EEE78A 		vcvt.f32.s32	s16, s15
 979              	.LBB213:
 980              	.LBB211:
 981              	.LBB201:
 982              	.LBB200:
 983              	.LBB199:
 984              	.LBB198:
 985              	.LBB197:
 986              		.loc 6 546 0
 987              		.syntax unified
 988              	@ 546 "../../lib/e-puck2_main-processor/ChibiOS//os/ext/CMSIS/include/core_cmFunc.h" 1
 989 022a 82F31188 		MSR basepri, r2
 990              	@ 0 "" 2
 991              	.LVL85:
 992              		.thumb
 993              		.syntax unified
 994              	.LBE197:
 995              	.LBE198:
 996              	.LBE199:
 997              		.loc 4 349 0
 998 022e FFF7FEFF 		bl	_stats_start_measure_crit_thd
 999              	.LVL86:
 1000              		.loc 4 350 0
 1001 0232 FFF7FEFF 		bl	_dbg_check_lock
 1002              	.LVL87:
 1003              	.LBE200:
 1004              	.LBE201:
 1005              	.LBB202:
 1006              	.LBB203:
 1007              		.loc 7 231 0
 1008 0236 D9F82840 		ldr	r4, [r9, #40]
 1009              	.LBE203:
 1010              	.LBE202:
 1011              	.LBB204:
 1012              	.LBB205:
 1013              		.loc 4 360 0
 1014 023a FFF7FEFF 		bl	_dbg_check_unlock
 1015              	.LVL88:
 1016              		.loc 4 361 0
 1017 023e FFF7FEFF 		bl	_stats_stop_measure_crit_thd
 1018              	.LVL89:
 1019              		.loc 4 367 0
 1020 0242 D9F80030 		ldr	r3, [r9]
 1021 0246 4B45     		cmp	r3, r9
 1022 0248 05D0     		beq	.L47
 1023 024a D9F81820 		ldr	r2, [r9, #24]
 1024 024e 9B68     		ldr	r3, [r3, #8]
 1025 0250 9268     		ldr	r2, [r2, #8]
 1026 0252 9A42     		cmp	r2, r3
ARM GAS  C:\Users\rosendo\AppData\Local\Temp\ccAzHBfd.s 			page 19


 1027 0254 60D3     		bcc	.L53
 1028              	.L47:
 1029              	.LVL90:
 1030              	.LBB206:
 1031              	.LBB207:
 1032              	.LBB208:
 1033              		.loc 6 546 0
 1034 0256 0023     		movs	r3, #0
 1035              		.syntax unified
 1036              	@ 546 "../../lib/e-puck2_main-processor/ChibiOS//os/ext/CMSIS/include/core_cmFunc.h" 1
 1037 0258 83F31188 		MSR basepri, r3
 1038              	@ 0 "" 2
 1039              	.LVL91:
 1040              		.thumb
 1041              		.syntax unified
 1042              	.LBE208:
 1043              	.LBE207:
 1044              	.LBE206:
 1045              	.LBE205:
 1046              	.LBE204:
 1047              	.LBE211:
 1048              	.LBE213:
 1049              		.loc 2 196 0
 1050 025c DAF80030 		ldr	r3, [r10]
 1051 0260 444A     		ldr	r2, .L56+56
 1052              		.loc 2 199 0
 1053 0262 9FED425A 		vldr.32	s10, .L56+48
 1054              		.loc 2 196 0
 1055 0266 DFED444A 		vldr.32	s9, .L56+60
 1056              		.loc 2 199 0
 1057 026a DFED415A 		vldr.32	s11, .L56+52
 1058              		.loc 2 204 0
 1059 026e B8F80010 		ldrh	r1, [r8]
 1060 0272 2980     		strh	r1, [r5]	@ movhi
 1061              		.loc 2 196 0
 1062 0274 E41A     		subs	r4, r4, r3
 1063 0276 4FF47A73 		mov	r3, #1000
 1064 027a 04FB0333 		mla	r3, r4, r3, r3
 1065 027e 013B     		subs	r3, r3, #1
 1066 0280 A2FB0323 		umull	r2, r3, r2, r3
 1067 0284 9B09     		lsrs	r3, r3, #6
 1068 0286 07EE903A 		vmov	s15, r3	@ int
 1069 028a F8EEE77A 		vcvt.f32.s32	s15, s15
 1070              		.loc 2 199 0
 1071 028e 3B4B     		ldr	r3, .L56+64
 1072              		.loc 2 205 0
 1073 0290 B8F80220 		ldrh	r2, [r8, #2]
 1074              		.loc 2 200 0
 1075 0294 D3ED016A 		vldr.32	s13, [r3, #4]
 1076              		.loc 2 199 0
 1077 0298 93ED007A 		vldr.32	s14, [r3]
 1078              		.loc 2 205 0
 1079 029c 6A80     		strh	r2, [r5, #2]	@ movhi
 1080              		.loc 2 196 0
 1081 029e 88EE276A 		vdiv.f32	s12, s16, s15
 1082              	.LBB214:
 1083              	.LBB215:
ARM GAS  C:\Users\rosendo\AppData\Local\Temp\ccAzHBfd.s 			page 20


 1084              	.LBB216:
 1085              	.LBB217:
 1086              	.LBB218:
 1087              	.LBB219:
 1088              	.LBB220:
 1089              		.loc 6 546 0
 1090 02a2 2022     		movs	r2, #32
 1091              	.LBE220:
 1092              	.LBE219:
 1093              	.LBE218:
 1094              	.LBE217:
 1095              	.LBE216:
 1096              	.LBE215:
 1097              	.LBE214:
 1098              		.loc 2 200 0
 1099 02a4 66EE856A 		vmul.f32	s13, s13, s10
 1100              		.loc 2 199 0
 1101 02a8 67EE057A 		vmul.f32	s15, s14, s10
 1102              		.loc 2 196 0
 1103 02ac 26EE246A 		vmul.f32	s12, s12, s9
 1104              	.LVL92:
 1105              		.loc 2 200 0
 1106 02b0 B0EE667A 		vmov.f32	s14, s13
 1107 02b4 A6EE257A 		vfma.f32	s14, s12, s11
 1108              		.loc 2 199 0
 1109 02b8 E8EEA57A 		vfma.f32	s15, s17, s11
 1110              		.loc 2 200 0
 1111 02bc 83ED017A 		vstr.32	s14, [r3, #4]
 1112              		.loc 2 199 0
 1113 02c0 C3ED007A 		vstr.32	s15, [r3]
 1114              	.LBB237:
 1115              	.LBB235:
 1116              	.LBB225:
 1117              	.LBB224:
 1118              	.LBB223:
 1119              	.LBB222:
 1120              	.LBB221:
 1121              		.loc 6 546 0
 1122              		.syntax unified
 1123              	@ 546 "../../lib/e-puck2_main-processor/ChibiOS//os/ext/CMSIS/include/core_cmFunc.h" 1
 1124 02c4 82F31188 		MSR basepri, r2
 1125              	@ 0 "" 2
 1126              	.LVL93:
 1127              		.thumb
 1128              		.syntax unified
 1129              	.LBE221:
 1130              	.LBE222:
 1131              	.LBE223:
 1132              		.loc 4 349 0
 1133 02c8 FFF7FEFF 		bl	_stats_start_measure_crit_thd
 1134              	.LVL94:
 1135              		.loc 4 350 0
 1136 02cc FFF7FEFF 		bl	_dbg_check_lock
 1137              	.LVL95:
 1138              	.LBE224:
 1139              	.LBE225:
 1140              	.LBB226:
ARM GAS  C:\Users\rosendo\AppData\Local\Temp\ccAzHBfd.s 			page 21


 1141              	.LBB227:
 1142              		.loc 7 231 0
 1143 02d0 D9F82840 		ldr	r4, [r9, #40]
 1144              	.LVL96:
 1145              	.LBE227:
 1146              	.LBE226:
 1147              	.LBB228:
 1148              	.LBB229:
 1149              		.loc 4 360 0
 1150 02d4 FFF7FEFF 		bl	_dbg_check_unlock
 1151              	.LVL97:
 1152              		.loc 4 361 0
 1153 02d8 FFF7FEFF 		bl	_stats_stop_measure_crit_thd
 1154              	.LVL98:
 1155              		.loc 4 367 0
 1156 02dc D9F80030 		ldr	r3, [r9]
 1157 02e0 4B45     		cmp	r3, r9
 1158 02e2 05D0     		beq	.L48
 1159 02e4 D9F81820 		ldr	r2, [r9, #24]
 1160 02e8 9B68     		ldr	r3, [r3, #8]
 1161 02ea 9268     		ldr	r2, [r2, #8]
 1162 02ec 9A42     		cmp	r2, r3
 1163 02ee 17D3     		bcc	.L54
 1164              	.L48:
 1165              	.LVL99:
 1166              	.LBB230:
 1167              	.LBB231:
 1168              	.LBB232:
 1169              		.loc 6 546 0
 1170 02f0 0023     		movs	r3, #0
 1171              		.syntax unified
 1172              	@ 546 "../../lib/e-puck2_main-processor/ChibiOS//os/ext/CMSIS/include/core_cmFunc.h" 1
 1173 02f2 83F31188 		MSR basepri, r3
 1174              	@ 0 "" 2
 1175              	.LVL100:
 1176              		.thumb
 1177              		.syntax unified
 1178              	.LBE232:
 1179              	.LBE231:
 1180              	.LBE230:
 1181              	.LBE229:
 1182              	.LBE228:
 1183              	.LBE235:
 1184              	.LBE237:
 1185              		.loc 2 206 0
 1186 02f6 CAF80040 		str	r4, [r10]
 1187              	.LVL101:
 1188              	.L40:
 1189              		.loc 2 209 0
 1190 02fa 019A     		ldr	r2, [sp, #4]
 1191 02fc 3368     		ldr	r3, [r6]
 1192 02fe 9A42     		cmp	r2, r3
 1193 0300 1AD1     		bne	.L55
 1194 0302 03B0     		add	sp, sp, #12
 1195              		.cfi_remember_state
 1196              		.cfi_def_cfa_offset 76
 1197              		@ sp needed
ARM GAS  C:\Users\rosendo\AppData\Local\Temp\ccAzHBfd.s 			page 22


 1198 0304 BDEC0A8B 		vldm	sp!, {d8-d12}
 1199              		.cfi_restore 88
 1200              		.cfi_restore 89
 1201              		.cfi_restore 86
 1202              		.cfi_restore 87
 1203              		.cfi_restore 84
 1204              		.cfi_restore 85
 1205              		.cfi_restore 82
 1206              		.cfi_restore 83
 1207              		.cfi_restore 80
 1208              		.cfi_restore 81
 1209              		.cfi_def_cfa_offset 36
 1210 0308 BDE8F08F 		pop	{r4, r5, r6, r7, r8, r9, r10, fp, pc}
 1211              	.L42:
 1212              		.cfi_restore_state
 1213              		.loc 2 166 0
 1214 030c 0E2B     		cmp	r3, #14
 1215 030e 0FDC     		bgt	.L44
 1216              		.loc 2 167 0
 1217 0310 0D4B     		ldr	r3, .L56+12
 1218 0312 0322     		movs	r2, #3
 1219 0314 1A70     		strb	r2, [r3]
 1220              	.LVL102:
 1221 0316 F0E7     		b	.L40
 1222              	.LVL103:
 1223              	.L53:
 1224              	.LBB238:
 1225              	.LBB212:
 1226              	.LBB210:
 1227              	.LBB209:
 1228              		.loc 4 367 0
 1229 0318 1948     		ldr	r0, .L56+68
 1230 031a FFF7FEFF 		bl	chSysHalt
 1231              	.LVL104:
 1232 031e 9AE7     		b	.L47
 1233              	.LVL105:
 1234              	.L54:
 1235              	.LBE209:
 1236              	.LBE210:
 1237              	.LBE212:
 1238              	.LBE238:
 1239              	.LBB239:
 1240              	.LBB236:
 1241              	.LBB234:
 1242              	.LBB233:
 1243 0320 1748     		ldr	r0, .L56+68
 1244 0322 FFF7FEFF 		bl	chSysHalt
 1245              	.LVL106:
 1246 0326 E3E7     		b	.L48
 1247              	.LVL107:
 1248              	.L52:
 1249              	.LBE233:
 1250              	.LBE234:
 1251              	.LBE236:
 1252              	.LBE239:
 1253              	.LBB240:
 1254              	.LBB188:
ARM GAS  C:\Users\rosendo\AppData\Local\Temp\ccAzHBfd.s 			page 23


 1255              	.LBB186:
 1256              	.LBB185:
 1257 0328 1548     		ldr	r0, .L56+68
 1258 032a FFF7FEFF 		bl	chSysHalt
 1259              	.LVL108:
 1260 032e 51E7     		b	.L46
 1261              	.LVL109:
 1262              	.L44:
 1263              	.LBE185:
 1264              	.LBE186:
 1265              	.LBE188:
 1266              	.LBE240:
 1267              		.loc 2 169 0
 1268 0330 054A     		ldr	r2, .L56+12
 1269 0332 0021     		movs	r1, #0
 1270 0334 1170     		strb	r1, [r2]
 1271 0336 7EE6     		b	.L43
 1272              	.L55:
 1273              		.loc 2 209 0
 1274 0338 FFF7FEFF 		bl	__stack_chk_fail
 1275              	.LVL110:
 1276              	.L57:
 1277              		.align	2
 1278              	.L56:
 1279 033c 00000000 		.word	__stack_chk_guard
 1280 0340 00000000 		.word	.LC0
 1281 0344 00000000 		.word	SD3
 1282 0348 00000000 		.word	.LANCHOR4
 1283 034c F90F493F 		.word	1061752825
 1284 0350 00002044 		.word	1142947840
 1285 0354 DB0F4940 		.word	1078530011
 1286 0358 00003443 		.word	1127481344
 1287 035c 00000C42 		.word	1108082688
 1288 0360 00000000 		.word	.LANCHOR7
 1289 0364 0000A044 		.word	1151336448
 1290 0368 48E19541 		.word	1100341576
 1291 036c CDCC4C3F 		.word	1061997773
 1292 0370 CDCC4C3E 		.word	1045220557
 1293 0374 D34D6210 		.word	274877907
 1294 0378 0000C842 		.word	1120403456
 1295 037c 00000000 		.word	.LANCHOR8
 1296 0380 00000000 		.word	.LANCHOR2
 1297 0384 00000000 		.word	.LANCHOR6
 1298 0388 00000000 		.word	ch
 1299 038c 00000000 		.word	.LANCHOR5
 1300              		.cfi_endproc
 1301              	.LFE261:
 1302              		.size	update_ball_pos_mov, .-update_ball_pos_mov
 1303              		.section	.text.ProcessImage,"ax",%progbits
 1304              		.align	1
 1305              		.p2align 4,,15
 1306              		.syntax unified
 1307              		.thumb
 1308              		.thumb_func
 1309              		.fpu fpv4-sp-d16
 1310              		.type	ProcessImage, %function
 1311              	ProcessImage:
ARM GAS  C:\Users\rosendo\AppData\Local\Temp\ccAzHBfd.s 			page 24


 1312              	.LFB258:
 1313              		.loc 2 65 0
 1314              		.cfi_startproc
 1315              		@ args = 0, pretend = 0, frame = 648
 1316              		@ frame_needed = 0, uses_anonymous_args = 0
 1317              	.LVL111:
 1318 0000 70B5     		push	{r4, r5, r6, lr}
 1319              		.cfi_def_cfa_offset 16
 1320              		.cfi_offset 4, -16
 1321              		.cfi_offset 5, -12
 1322              		.cfi_offset 6, -8
 1323              		.cfi_offset 14, -4
 1324              	.LBB241:
 1325              	.LBB242:
 1326              		.loc 3 135 0
 1327 0002 194A     		ldr	r2, .L65
 1328              	.LBE242:
 1329              	.LBE241:
 1330              		.loc 2 65 0
 1331 0004 194B     		ldr	r3, .L65+4
 1332              	.LBB244:
 1333              	.LBB243:
 1334              		.loc 3 135 0
 1335 0006 9269     		ldr	r2, [r2, #24]
 1336 0008 1949     		ldr	r1, .L65+8
 1337 000a 9161     		str	r1, [r2, #24]
 1338              	.LBE243:
 1339              	.LBE244:
 1340              		.loc 2 65 0
 1341 000c ADF5227D 		sub	sp, sp, #648
 1342              		.cfi_def_cfa_offset 664
 1343              		.loc 2 65 0
 1344 0010 1B68     		ldr	r3, [r3]
 1345 0012 A193     		str	r3, [sp, #644]
 1346              		.loc 2 71 0
 1347 0014 01A8     		add	r0, sp, #4
 1348              	.LVL112:
 1349 0016 4FF42072 		mov	r2, #640
 1350 001a 0021     		movs	r1, #0
 1351 001c FFF7FEFF 		bl	memset
 1352              	.LVL113:
 1353 0020 144E     		ldr	r6, .L65+12
 1354              	.LBB245:
 1355              	.LBB246:
 1356              		.loc 5 143 0
 1357 0022 154C     		ldr	r4, .L65+16
 1358              	.LBE246:
 1359              	.LBE245:
 1360              		.loc 2 73 0
 1361 0024 0023     		movs	r3, #0
 1362 0026 ADF80030 		strh	r3, [sp]	@ movhi
 1363              		.loc 2 74 0
 1364 002a ADF80230 		strh	r3, [sp, #2]	@ movhi
 1365              	.LVL114:
 1366              		.loc 2 94 0
 1367 002e 0325     		movs	r5, #3
 1368              	.LVL115:
ARM GAS  C:\Users\rosendo\AppData\Local\Temp\ccAzHBfd.s 			page 25


 1369              	.L59:
 1370              	.LBB248:
 1371              	.LBB247:
 1372              		.loc 5 143 0
 1373 0030 2046     		mov	r0, r4
 1374 0032 FFF7FEFF 		bl	chSemWait
 1375              	.LVL116:
 1376              	.LBE247:
 1377              	.LBE248:
 1378              		.loc 2 82 0
 1379 0036 FFF7FEFF 		bl	dcmi_get_last_image_ptr
 1380              	.LVL117:
 1381              		.loc 2 85 0
 1382 003a 0DF10203 		add	r3, sp, #2
 1383 003e 6A46     		mov	r2, sp
 1384 0040 01A9     		add	r1, sp, #4
 1385 0042 FFF7FEFF 		bl	first_ball_estimate
 1386              	.LVL118:
 1387              		.loc 2 86 0
 1388 0046 08B9     		cbnz	r0, .L64
 1389              		.loc 2 94 0
 1390 0048 3570     		strb	r5, [r6]
 1391 004a F1E7     		b	.L59
 1392              	.L64:
 1393              		.loc 2 89 0
 1394 004c 6946     		mov	r1, sp
 1395 004e 01A8     		add	r0, sp, #4
 1396              	.LVL119:
 1397 0050 0DF10202 		add	r2, sp, #2
 1398 0054 FFF7FEFF 		bl	final_ball_estimate
 1399              	.LVL120:
 1400              		.loc 2 92 0
 1401 0058 BDF80210 		ldrh	r1, [sp, #2]
 1402 005c BDF80000 		ldrh	r0, [sp]
 1403 0060 FFF7FEFF 		bl	update_ball_pos_mov
 1404              	.LVL121:
 1405 0064 E4E7     		b	.L59
 1406              	.L66:
 1407 0066 00BF     		.align	2
 1408              	.L65:
 1409 0068 00000000 		.word	ch
 1410 006c 00000000 		.word	__stack_chk_guard
 1411 0070 00000000 		.word	.LANCHOR9
 1412 0074 00000000 		.word	.LANCHOR4
 1413 0078 00000000 		.word	.LANCHOR1
 1414              		.cfi_endproc
 1415              	.LFE258:
 1416              		.size	ProcessImage, .-ProcessImage
 1417              		.section	.text.get_ball_position,"ax",%progbits
 1418              		.align	1
 1419              		.p2align 4,,15
 1420              		.global	get_ball_position
 1421              		.syntax unified
 1422              		.thumb
 1423              		.thumb_func
 1424              		.fpu fpv4-sp-d16
 1425              		.type	get_ball_position, %function
ARM GAS  C:\Users\rosendo\AppData\Local\Temp\ccAzHBfd.s 			page 26


 1426              	get_ball_position:
 1427              	.LFB262:
 1428              		.loc 2 211 0
 1429              		.cfi_startproc
 1430              		@ args = 0, pretend = 0, frame = 8
 1431              		@ frame_needed = 0, uses_anonymous_args = 0
 1432 0000 00B5     		push	{lr}
 1433              		.cfi_def_cfa_offset 4
 1434              		.cfi_offset 14, -4
 1435 0002 074B     		ldr	r3, .L71
 1436 0004 83B0     		sub	sp, sp, #12
 1437              		.cfi_def_cfa_offset 16
 1438              		.loc 2 211 0
 1439 0006 1A68     		ldr	r2, [r3]
 1440 0008 0192     		str	r2, [sp, #4]
 1441              		.loc 2 213 0
 1442 000a 019A     		ldr	r2, [sp, #4]
 1443 000c 1B68     		ldr	r3, [r3]
 1444 000e 9A42     		cmp	r2, r3
 1445 0010 03D1     		bne	.L70
 1446 0012 0448     		ldr	r0, .L71+4
 1447 0014 03B0     		add	sp, sp, #12
 1448              		.cfi_remember_state
 1449              		.cfi_def_cfa_offset 4
 1450              		@ sp needed
 1451 0016 5DF804FB 		ldr	pc, [sp], #4
 1452              	.L70:
 1453              		.cfi_restore_state
 1454 001a FFF7FEFF 		bl	__stack_chk_fail
 1455              	.LVL122:
 1456              	.L72:
 1457 001e 00BF     		.align	2
 1458              	.L71:
 1459 0020 00000000 		.word	__stack_chk_guard
 1460 0024 00000000 		.word	.LANCHOR6
 1461              		.cfi_endproc
 1462              	.LFE262:
 1463              		.size	get_ball_position, .-get_ball_position
 1464              		.section	.text.get_ball_movement,"ax",%progbits
 1465              		.align	1
 1466              		.p2align 4,,15
 1467              		.global	get_ball_movement
 1468              		.syntax unified
 1469              		.thumb
 1470              		.thumb_func
 1471              		.fpu fpv4-sp-d16
 1472              		.type	get_ball_movement, %function
 1473              	get_ball_movement:
 1474              	.LFB263:
 1475              		.loc 2 215 0
 1476              		.cfi_startproc
 1477              		@ args = 0, pretend = 0, frame = 8
 1478              		@ frame_needed = 0, uses_anonymous_args = 0
 1479 0000 00B5     		push	{lr}
 1480              		.cfi_def_cfa_offset 4
 1481              		.cfi_offset 14, -4
 1482              		.loc 2 217 0
ARM GAS  C:\Users\rosendo\AppData\Local\Temp\ccAzHBfd.s 			page 27


 1483 0002 0E4A     		ldr	r2, .L77
 1484              		.loc 2 215 0
 1485 0004 0E4B     		ldr	r3, .L77+4
 1486              		.loc 2 217 0
 1487 0006 92ED007A 		vldr.32	s14, [r2]
 1488              		.loc 2 218 0
 1489 000a D2ED017A 		vldr.32	s15, [r2, #4]
 1490              		.loc 2 215 0
 1491 000e 1968     		ldr	r1, [r3]
 1492              		.loc 2 217 0
 1493 0010 0C48     		ldr	r0, .L77+8
 1494              		.loc 2 215 0
 1495 0012 83B0     		sub	sp, sp, #12
 1496              		.cfi_def_cfa_offset 16
 1497              		.loc 2 217 0
 1498 0014 BDEEC77A 		vcvt.s32.f32	s14, s14
 1499              		.loc 2 215 0
 1500 0018 0191     		str	r1, [sp, #4]
 1501              		.loc 2 218 0
 1502 001a FDEEE77A 		vcvt.s32.f32	s15, s15
 1503              		.loc 2 217 0
 1504 001e 17EE101A 		vmov	r1, s14	@ int
 1505              		.loc 2 220 0
 1506 0022 019A     		ldr	r2, [sp, #4]
 1507 0024 1B68     		ldr	r3, [r3]
 1508              		.loc 2 217 0
 1509 0026 0180     		strh	r1, [r0]	@ movhi
 1510              		.loc 2 218 0
 1511 0028 17EE901A 		vmov	r1, s15	@ int
 1512              		.loc 2 220 0
 1513 002c 9A42     		cmp	r2, r3
 1514              		.loc 2 218 0
 1515 002e 4180     		strh	r1, [r0, #2]	@ movhi
 1516              		.loc 2 220 0
 1517 0030 02D1     		bne	.L76
 1518 0032 03B0     		add	sp, sp, #12
 1519              		.cfi_remember_state
 1520              		.cfi_def_cfa_offset 4
 1521              		@ sp needed
 1522 0034 5DF804FB 		ldr	pc, [sp], #4
 1523              	.L76:
 1524              		.cfi_restore_state
 1525 0038 FFF7FEFF 		bl	__stack_chk_fail
 1526              	.LVL123:
 1527              	.L78:
 1528              		.align	2
 1529              	.L77:
 1530 003c 00000000 		.word	.LANCHOR8
 1531 0040 00000000 		.word	__stack_chk_guard
 1532 0044 00000000 		.word	.LANCHOR10
 1533              		.cfi_endproc
 1534              	.LFE263:
 1535              		.size	get_ball_movement, .-get_ball_movement
 1536              		.section	.text.get_ball_visibility,"ax",%progbits
 1537              		.align	1
 1538              		.p2align 4,,15
 1539              		.global	get_ball_visibility
ARM GAS  C:\Users\rosendo\AppData\Local\Temp\ccAzHBfd.s 			page 28


 1540              		.syntax unified
 1541              		.thumb
 1542              		.thumb_func
 1543              		.fpu fpv4-sp-d16
 1544              		.type	get_ball_visibility, %function
 1545              	get_ball_visibility:
 1546              	.LFB264:
 1547              		.loc 2 222 0
 1548              		.cfi_startproc
 1549              		@ args = 0, pretend = 0, frame = 8
 1550              		@ frame_needed = 0, uses_anonymous_args = 0
 1551 0000 00B5     		push	{lr}
 1552              		.cfi_def_cfa_offset 4
 1553              		.cfi_offset 14, -4
 1554 0002 074B     		ldr	r3, .L83
 1555              		.loc 2 223 0
 1556 0004 0749     		ldr	r1, .L83+4
 1557              		.loc 2 222 0
 1558 0006 1A68     		ldr	r2, [r3]
 1559              		.loc 2 224 0
 1560 0008 0878     		ldrb	r0, [r1]	@ zero_extendqisi2
 1561              		.loc 2 222 0
 1562 000a 83B0     		sub	sp, sp, #12
 1563              		.cfi_def_cfa_offset 16
 1564              		.loc 2 222 0
 1565 000c 0192     		str	r2, [sp, #4]
 1566              		.loc 2 224 0
 1567 000e 019A     		ldr	r2, [sp, #4]
 1568 0010 1B68     		ldr	r3, [r3]
 1569 0012 9A42     		cmp	r2, r3
 1570 0014 02D1     		bne	.L82
 1571 0016 03B0     		add	sp, sp, #12
 1572              		.cfi_remember_state
 1573              		.cfi_def_cfa_offset 4
 1574              		@ sp needed
 1575 0018 5DF804FB 		ldr	pc, [sp], #4
 1576              	.L82:
 1577              		.cfi_restore_state
 1578 001c FFF7FEFF 		bl	__stack_chk_fail
 1579              	.LVL124:
 1580              	.L84:
 1581              		.align	2
 1582              	.L83:
 1583 0020 00000000 		.word	__stack_chk_guard
 1584 0024 00000000 		.word	.LANCHOR4
 1585              		.cfi_endproc
 1586              	.LFE264:
 1587              		.size	get_ball_visibility, .-get_ball_visibility
 1588              		.section	.text.process_image_start,"ax",%progbits
 1589              		.align	1
 1590              		.p2align 4,,15
 1591              		.global	process_image_start
 1592              		.syntax unified
 1593              		.thumb
 1594              		.thumb_func
 1595              		.fpu fpv4-sp-d16
 1596              		.type	process_image_start, %function
ARM GAS  C:\Users\rosendo\AppData\Local\Temp\ccAzHBfd.s 			page 29


 1597              	process_image_start:
 1598              	.LFB265:
 1599              		.loc 2 226 0
 1600              		.cfi_startproc
 1601              		@ args = 0, pretend = 0, frame = 8
 1602              		@ frame_needed = 0, uses_anonymous_args = 0
 1603 0000 30B5     		push	{r4, r5, lr}
 1604              		.cfi_def_cfa_offset 12
 1605              		.cfi_offset 4, -12
 1606              		.cfi_offset 5, -8
 1607              		.cfi_offset 14, -4
 1608 0002 0E4C     		ldr	r4, .L89
 1609              		.loc 2 227 0
 1610 0004 0E4B     		ldr	r3, .L89+4
 1611              		.loc 2 226 0
 1612 0006 2268     		ldr	r2, [r4]
 1613              		.loc 2 227 0
 1614 0008 0E48     		ldr	r0, .L89+8
 1615              		.loc 2 226 0
 1616 000a 85B0     		sub	sp, sp, #20
 1617              		.cfi_def_cfa_offset 32
 1618              		.loc 2 227 0
 1619 000c 0025     		movs	r5, #0
 1620              		.loc 2 226 0
 1621 000e 0392     		str	r2, [sp, #12]
 1622              		.loc 2 227 0
 1623 0010 42F27811 		movw	r1, #8568
 1624 0014 4022     		movs	r2, #64
 1625 0016 0095     		str	r5, [sp]
 1626 0018 FFF7FEFF 		bl	chThdCreateStatic
 1627              	.LVL125:
 1628              		.loc 2 228 0
 1629 001c 0A4B     		ldr	r3, .L89+12
 1630 001e 0095     		str	r5, [sp]
 1631 0020 4022     		movs	r2, #64
 1632 0022 0A48     		ldr	r0, .L89+16
 1633 0024 4FF41E71 		mov	r1, #632
 1634 0028 FFF7FEFF 		bl	chThdCreateStatic
 1635              	.LVL126:
 1636              		.loc 2 229 0
 1637 002c 039A     		ldr	r2, [sp, #12]
 1638 002e 2368     		ldr	r3, [r4]
 1639 0030 9A42     		cmp	r2, r3
 1640 0032 01D1     		bne	.L88
 1641 0034 05B0     		add	sp, sp, #20
 1642              		.cfi_remember_state
 1643              		.cfi_def_cfa_offset 12
 1644              		@ sp needed
 1645 0036 30BD     		pop	{r4, r5, pc}
 1646              	.L88:
 1647              		.cfi_restore_state
 1648 0038 FFF7FEFF 		bl	__stack_chk_fail
 1649              	.LVL127:
 1650              	.L90:
 1651              		.align	2
 1652              	.L89:
 1653 003c 00000000 		.word	__stack_chk_guard
ARM GAS  C:\Users\rosendo\AppData\Local\Temp\ccAzHBfd.s 			page 30


 1654 0040 00000000 		.word	ProcessImage
 1655 0044 00000000 		.word	waProcessImage
 1656 0048 00000000 		.word	CaptureImage
 1657 004c 00000000 		.word	.LANCHOR11
 1658              		.cfi_endproc
 1659              	.LFE265:
 1660              		.size	process_image_start, .-process_image_start
 1661              		.section	.bss.ball_last_filtered_position.12000,"aw",%nobits
 1662              		.align	2
 1663              		.set	.LANCHOR7,. + 0
 1664              		.type	ball_last_filtered_position.12000, %object
 1665              		.size	ball_last_filtered_position.12000, 4
 1666              	ball_last_filtered_position.12000:
 1667 0000 00000000 		.space	4
 1668              		.section	.bss.ball_movement_vector_int.12008,"aw",%nobits
 1669              		.align	2
 1670              		.set	.LANCHOR10,. + 0
 1671              		.type	ball_movement_vector_int.12008, %object
 1672              		.size	ball_movement_vector_int.12008, 4
 1673              	ball_movement_vector_int.12008:
 1674 0000 00000000 		.space	4
 1675              		.section	.bss.ball_position_filtered,"aw",%nobits
 1676              		.align	2
 1677              		.set	.LANCHOR6,. + 0
 1678              		.type	ball_position_filtered, %object
 1679              		.size	ball_position_filtered, 4
 1680              	ball_position_filtered:
 1681 0000 00000000 		.space	4
 1682              		.section	.bss.ball_speed_vector_filtered,"aw",%nobits
 1683              		.align	2
 1684              		.set	.LANCHOR8,. + 0
 1685              		.type	ball_speed_vector_filtered, %object
 1686              		.size	ball_speed_vector_filtered, 8
 1687              	ball_speed_vector_filtered:
 1688 0000 00000000 		.space	8
 1688      00000000 
 1689              		.section	.bss.last_systick.12001,"aw",%nobits
 1690              		.align	2
 1691              		.set	.LANCHOR5,. + 0
 1692              		.type	last_systick.12001, %object
 1693              		.size	last_systick.12001, 4
 1694              	last_systick.12001:
 1695 0000 00000000 		.space	4
 1696              		.section	.bss.main_lines_deriv.11982,"aw",%nobits
 1697              		.align	2
 1698              		.set	.LANCHOR3,. + 0
 1699              		.type	main_lines_deriv.11982, %object
 1700              		.size	main_lines_deriv.11982, 640
 1701              	main_lines_deriv.11982:
 1702 0000 00000000 		.space	640
 1702      00000000 
 1702      00000000 
 1702      00000000 
 1702      00000000 
 1703              		.section	.bss.waCaptureImage,"aw",%nobits
 1704              		.align	3
 1705              		.set	.LANCHOR11,. + 0
ARM GAS  C:\Users\rosendo\AppData\Local\Temp\ccAzHBfd.s 			page 31


 1706              		.type	waCaptureImage, %object
 1707              		.size	waCaptureImage, 632
 1708              	waCaptureImage:
 1709 0000 00000000 		.space	632
 1709      00000000 
 1709      00000000 
 1709      00000000 
 1709      00000000 
 1710              		.section	.bss.waProcessImage,"aw",%nobits
 1711              		.align	3
 1712              		.type	waProcessImage, %object
 1713              		.size	waProcessImage, 8568
 1714              	waProcessImage:
 1715 0000 00000000 		.space	8568
 1715      00000000 
 1715      00000000 
 1715      00000000 
 1715      00000000 
 1716              		.section	.data.ball_visibility,"aw",%progbits
 1717              		.set	.LANCHOR4,. + 0
 1718              		.type	ball_visibility, %object
 1719              		.size	ball_visibility, 1
 1720              	ball_visibility:
 1721 0000 03       		.byte	3
 1722              		.section	.data.image_ready_sem,"aw",%progbits
 1723              		.align	2
 1724              		.set	.LANCHOR1,. + 0
 1725              		.type	image_ready_sem, %object
 1726              		.size	image_ready_sem, 12
 1727              	image_ready_sem:
 1728 0000 00000000 		.word	image_ready_sem
 1729 0004 00000000 		.word	image_ready_sem
 1730 0008 00000000 		.word	0
 1731              		.section	.rodata.__FUNCTION__.11949,"a",%progbits
 1732              		.align	2
 1733              		.set	.LANCHOR0,. + 0
 1734              		.type	__FUNCTION__.11949, %object
 1735              		.size	__FUNCTION__.11949, 13
 1736              	__FUNCTION__.11949:
 1737 0000 43617074 		.ascii	"CaptureImage\000"
 1737      75726549 
 1737      6D616765 
 1737      00
 1738              		.section	.rodata.__FUNCTION__.11955,"a",%progbits
 1739              		.align	2
 1740              		.set	.LANCHOR9,. + 0
 1741              		.type	__FUNCTION__.11955, %object
 1742              		.size	__FUNCTION__.11955, 13
 1743              	__FUNCTION__.11955:
 1744 0000 50726F63 		.ascii	"ProcessImage\000"
 1744      65737349 
 1744      6D616765 
 1744      00
 1745              		.section	.rodata.__func__.7153,"a",%progbits
 1746              		.align	2
 1747              		.set	.LANCHOR2,. + 0
 1748              		.type	__func__.7153, %object
ARM GAS  C:\Users\rosendo\AppData\Local\Temp\ccAzHBfd.s 			page 32


 1749              		.size	__func__.7153, 12
 1750              	__func__.7153:
 1751 0000 63685379 		.ascii	"chSysUnlock\000"
 1751      73556E6C 
 1751      6F636B00 
 1752              		.section	.rodata.chprintf.constprop.0.str1.4,"aMS",%progbits,1
 1753              		.align	2
 1754              	.LC0:
 1755 0000 303A2564 		.ascii	"0:%d 1:%d\015\012\000"
 1755      20313A25 
 1755      640D0A00 
 1756              		.text
 1757              	.Letext0:
 1758              		.file 8 "c:\\users\\rosendo\\desktop\\eclipse_e-puck2_win32_29_jan_2020\\eclipse_e-puck2\\tools\\g
 1759              		.file 9 "c:\\users\\rosendo\\desktop\\eclipse_e-puck2_win32_29_jan_2020\\eclipse_e-puck2\\tools\\g
 1760              		.file 10 "c:\\users\\rosendo\\desktop\\eclipse_e-puck2_win32_29_jan_2020\\eclipse_e-puck2\\tools\\
 1761              		.file 11 "../../lib/e-puck2_main-processor/ChibiOS//os/rt/ports/ARMCMx/compilers/GCC/chtypes.h"
 1762              		.file 12 "../../lib/e-puck2_main-processor/ChibiOS//os/rt/include/chsystypes.h"
 1763              		.file 13 "../../lib/e-puck2_main-processor/ChibiOS//os/rt/include/chschd.h"
 1764              		.file 14 "../../lib/e-puck2_main-processor/ChibiOS//os/ext/CMSIS/include/core_cm4.h"
 1765              		.file 15 "../../lib/e-puck2_main-processor/ChibiOS//os/ext/CMSIS/ST/system_stm32f4xx.h"
 1766              		.file 16 "../../lib/e-puck2_main-processor/ChibiOS//os/ext/CMSIS/ST/stm32f407xx.h"
 1767              		.file 17 "../../lib/e-puck2_main-processor/ChibiOS//os/rt/ports/ARMCMx/chcore.h"
 1768              		.file 18 "../../lib/e-puck2_main-processor/ChibiOS//os/rt/ports/ARMCMx/chcore_v7m.h"
 1769              		.file 19 "../../lib/e-puck2_main-processor/ChibiOS//os/rt/include/chdebug.h"
 1770              		.file 20 "../../lib/e-puck2_main-processor/ChibiOS//os/rt/include/chtm.h"
 1771              		.file 21 "../../lib/e-puck2_main-processor/ChibiOS//os/rt/include/chstats.h"
 1772              		.file 22 "../../lib/e-puck2_main-processor/ChibiOS//os/rt/include/chsem.h"
 1773              		.file 23 "../../lib/e-puck2_main-processor/ChibiOS//os/rt/include/chmtx.h"
 1774              		.file 24 "../../lib/e-puck2_main-processor/ChibiOS//os/rt/include/chevents.h"
 1775              		.file 25 "../../lib/e-puck2_main-processor/ChibiOS//os/rt/include/chqueues.h"
 1776              		.file 26 "../../lib/e-puck2_main-processor/ChibiOS//os/rt/include/chstreams.h"
 1777              		.file 27 "../../lib/e-puck2_main-processor/ChibiOS//os/hal/ports/STM32/STM32F4xx/stm32_dma.h"
 1778              		.file 28 "../../lib/e-puck2_main-processor/ChibiOS//os/hal/include/hal_ioblock.h"
 1779              		.file 29 "../../lib/e-puck2_main-processor/ChibiOS//os/hal/ports/STM32/LLD/GPIOv2/pal_lld.h"
 1780              		.file 30 "../../lib/e-puck2_main-processor/ChibiOS//os/hal/include/adc.h"
 1781              		.file 31 "../../lib/e-puck2_main-processor/ChibiOS//os/hal/ports/STM32/STM32F4xx/adc_lld.h"
 1782              		.file 32 "../../lib/e-puck2_main-processor/ChibiOS//os/hal/include/can.h"
 1783              		.file 33 "../../lib/e-puck2_main-processor/ChibiOS//os/hal/ports/STM32/LLD/can_lld.h"
 1784              		.file 34 "../../lib/e-puck2_main-processor/ChibiOS//os/hal/include/dac.h"
 1785              		.file 35 "../../lib/e-puck2_main-processor/ChibiOS//os/hal/ports/STM32/LLD/DACv1/dac_lld.h"
 1786              		.file 36 "../../lib/e-puck2_main-processor/ChibiOS//os/hal/include/ext.h"
 1787              		.file 37 "../../lib/e-puck2_main-processor/ChibiOS//os/hal/ports/STM32/LLD/ext_lld.h"
 1788              		.file 38 "../../lib/e-puck2_main-processor/ChibiOS//os/hal/include/gpt.h"
 1789              		.file 39 "../../lib/e-puck2_main-processor/ChibiOS//os/hal/ports/STM32/LLD/TIMv1/gpt_lld.h"
 1790              		.file 40 "../../lib/e-puck2_main-processor/ChibiOS//os/hal/ports/STM32/LLD/TIMv1/stm32_tim.h"
 1791              		.file 41 "../../lib/e-puck2_main-processor/ChibiOS//os/hal/include/i2c.h"
 1792              		.file 42 "../../lib/e-puck2_main-processor/ChibiOS//os/hal/ports/STM32/LLD/I2Cv1/i2c_lld.h"
 1793              		.file 43 "../../lib/e-puck2_main-processor/ChibiOS//os/hal/include/i2s.h"
 1794              		.file 44 "../../lib/e-puck2_main-processor/ChibiOS//os/hal/ports/STM32/LLD/SPIv1/i2s_lld.h"
 1795              		.file 45 "../../lib/e-puck2_main-processor/ChibiOS//os/hal/include/pwm.h"
 1796              		.file 46 "../../lib/e-puck2_main-processor/ChibiOS//os/hal/ports/STM32/LLD/TIMv1/pwm_lld.h"
 1797              		.file 47 "../../lib/e-puck2_main-processor/ChibiOS//os/hal/include/serial.h"
 1798              		.file 48 "../../lib/e-puck2_main-processor/ChibiOS//os/hal/ports/STM32/LLD/USARTv1/serial_lld.h"
 1799              		.file 49 "../../lib/e-puck2_main-processor/ChibiOS//os/hal/include/sdc.h"
 1800              		.file 50 "../../lib/e-puck2_main-processor/ChibiOS//os/hal/ports/STM32/LLD/sdc_lld.h"
 1801              		.file 51 "../../lib/e-puck2_main-processor/ChibiOS//os/hal/include/spi.h"
ARM GAS  C:\Users\rosendo\AppData\Local\Temp\ccAzHBfd.s 			page 33


 1802              		.file 52 "../../lib/e-puck2_main-processor/ChibiOS//os/hal/ports/STM32/LLD/SPIv1/spi_lld.h"
 1803              		.file 53 "../../lib/e-puck2_main-processor/ChibiOS//os/hal/include/usb.h"
 1804              		.file 54 "../../lib/e-puck2_main-processor/ChibiOS//os/hal/ports/STM32/LLD/OTGv1/usb_lld.h"
 1805              		.file 55 "../../lib/e-puck2_main-processor/ChibiOS//os/hal/ports/STM32/LLD/OTGv1/stm32_otg.h"
 1806              		.file 56 "../../lib/e-puck2_main-processor/ChibiOS//os/hal/include/serial_usb.h"
 1807              		.file 57 "c:\\users\\rosendo\\desktop\\eclipse_e-puck2_win32_29_jan_2020\\eclipse_e-puck2\\tools\\
 1808              		.file 58 "<built-in>"
 1809              		.file 59 "../../lib/e-puck2_main-processor/src/usbcfg.h"
 1810              		.file 60 "../../lib/e-puck2_main-processor/ChibiOS_ext/os/hal/include/../ports/STM32/STM32F4xx/dcm
 1811              		.file 61 "../../lib/e-puck2_main-processor/src/camera/po8030.h"
 1812              		.file 62 "../../lib/e-puck2_main-processor/src/camera/dcmi_camera.h"
 1813              		.file 63 "c:\\users\\rosendo\\desktop\\eclipse_e-puck2_win32_29_jan_2020\\eclipse_e-puck2\\tools\\
 1814              		.file 64 "c:\\users\\rosendo\\desktop\\eclipse_e-puck2_win32_29_jan_2020\\eclipse_e-puck2\\tools\\
 1815              		.file 65 "c:\\users\\rosendo\\desktop\\eclipse_e-puck2_win32_29_jan_2020\\eclipse_e-puck2\\tools\\
 1816              		.file 66 "../../lib/e-puck2_main-processor/src/msgbus/messagebus.h"
 1817              		.file 67 "c:\\users\\rosendo\\desktop\\eclipse_e-puck2_win32_29_jan_2020\\eclipse_e-puck2\\tools\\
 1818              		.file 68 "c:\\users\\rosendo\\desktop\\eclipse_e-puck2_win32_29_jan_2020\\eclipse_e-puck2\\tools\\
 1819              		.file 69 "../../lib/e-puck2_main-processor/src/parameter/parameter.h"
 1820              		.file 70 "./main.h"
 1821              		.file 71 "c:\\users\\rosendo\\desktop\\eclipse_e-puck2_win32_29_jan_2020\\eclipse_e-puck2\\tools\\
 1822              		.file 72 "process_image.h"
 1823              		.file 73 "../../lib/e-puck2_main-processor/ChibiOS//os/rt/include/chthreads.h"
 1824              		.file 74 "motors_controller.h"