ARM GAS  C:\Users\rosendo\AppData\Local\Temp\ccLAdZdf.s 			page 1


   1              		.cpu cortex-m4
   2              		.eabi_attribute 27, 1
   3              		.eabi_attribute 28, 1
   4              		.eabi_attribute 20, 1
   5              		.eabi_attribute 21, 1
   6              		.eabi_attribute 23, 3
   7              		.eabi_attribute 24, 1
   8              		.eabi_attribute 25, 1
   9              		.eabi_attribute 26, 1
  10              		.eabi_attribute 30, 2
  11              		.eabi_attribute 34, 1
  12              		.eabi_attribute 18, 4
  13              		.file	"role_selector.c"
  14              		.text
  15              	.Ltext0:
  16              		.cfi_sections	.debug_frame
  17              		.section	.text.SelectRole,"ax",%progbits
  18              		.align	1
  19              		.p2align 4,,15
  20              		.syntax unified
  21              		.thumb
  22              		.thumb_func
  23              		.fpu fpv4-sp-d16
  24              		.type	SelectRole, %function
  25              	SelectRole:
  26              	.LFB219:
  27              		.file 1 "role_selector.c"
  28              		.loc 1 19 0
  29              		.cfi_startproc
  30              		@ args = 0, pretend = 0, frame = 8
  31              		@ frame_needed = 0, uses_anonymous_args = 0
  32              	.LVL0:
  33 0000 F0B5     		push	{r4, r5, r6, r7, lr}
  34              		.cfi_def_cfa_offset 20
  35              		.cfi_offset 4, -20
  36              		.cfi_offset 5, -16
  37              		.cfi_offset 6, -12
  38              		.cfi_offset 7, -8
  39              		.cfi_offset 14, -4
  40              	.LBB4:
  41              	.LBB5:
  42              		.file 2 "../../lib/e-puck2_main-processor/ChibiOS//os/rt/include/chregistry.h"
  43              		.loc 2 135 0
  44 0002 144A     		ldr	r2, .L11
  45              	.LBE5:
  46              	.LBE4:
  47              		.loc 1 19 0
  48 0004 144B     		ldr	r3, .L11+4
  49              	.LBB8:
  50              	.LBB6:
  51              		.loc 2 135 0
  52 0006 9269     		ldr	r2, [r2, #24]
  53 0008 1449     		ldr	r1, .L11+8
  54              	.LBE6:
  55              	.LBE8:
  56              		.loc 1 19 0
  57 000a 1B68     		ldr	r3, [r3]
ARM GAS  C:\Users\rosendo\AppData\Local\Temp\ccLAdZdf.s 			page 2


  58 000c 144C     		ldr	r4, .L11+12
  59              	.LBB9:
  60              	.LBB7:
  61              		.loc 2 135 0
  62 000e 9161     		str	r1, [r2, #24]
  63              	.LBE7:
  64              	.LBE9:
  65              		.loc 1 19 0
  66 0010 83B0     		sub	sp, sp, #12
  67              		.cfi_def_cfa_offset 32
  68              		.loc 1 35 0
  69 0012 0327     		movs	r7, #3
  70              		.loc 1 19 0
  71 0014 0193     		str	r3, [sp, #4]
  72              	.LVL1:
  73              		.loc 1 33 0
  74 0016 0226     		movs	r6, #2
  75              		.loc 1 31 0
  76 0018 0125     		movs	r5, #1
  77 001a 08E0     		b	.L6
  78              	.LVL2:
  79              	.L2:
  80              		.loc 1 30 0
  81 001c 022A     		cmp	r2, #2
  82              		.loc 1 32 0
  83 001e A0F10600 		sub	r0, r0, #6
  84              	.LVL3:
  85              		.loc 1 30 0
  86 0022 10D8     		bhi	.L4
  87              		.loc 1 31 0
  88 0024 2570     		strb	r5, [r4]
  89              	.LVL4:
  90              	.L3:
  91              		.loc 1 38 0
  92 0026 4FF4FA70 		mov	r0, #500
  93 002a FFF7FEFF 		bl	chThdSleep
  94              	.LVL5:
  95              	.L6:
  96              		.loc 1 27 0
  97 002e FFF7FEFF 		bl	get_selector
  98              	.LVL6:
  99 0032 C0B2     		uxtb	r0, r0
 100              	.LVL7:
 101              		.loc 1 28 0
 102 0034 C31E     		subs	r3, r0, #3
 103 0036 022B     		cmp	r3, #2
 104              		.loc 1 30 0
 105 0038 A0F10B02 		sub	r2, r0, #11
 106              		.loc 1 29 0
 107 003c 4FF00003 		mov	r3, #0
 108              		.loc 1 28 0
 109 0040 ECD8     		bhi	.L2
 110              		.loc 1 33 0
 111 0042 2370     		strb	r3, [r4]
 112 0044 EFE7     		b	.L3
 113              	.LVL8:
 114              	.L4:
ARM GAS  C:\Users\rosendo\AppData\Local\Temp\ccLAdZdf.s 			page 3


 115 0046 0428     		cmp	r0, #4
 116 0048 8CBF     		ite	hi
 117 004a 3B46     		movhi	r3, r7
 118 004c 3346     		movls	r3, r6
 119 004e 2370     		strb	r3, [r4]
 120 0050 E9E7     		b	.L3
 121              	.L12:
 122 0052 00BF     		.align	2
 123              	.L11:
 124 0054 00000000 		.word	ch
 125 0058 00000000 		.word	__stack_chk_guard
 126 005c 00000000 		.word	.LANCHOR0
 127 0060 00000000 		.word	.LANCHOR1
 128              		.cfi_endproc
 129              	.LFE219:
 130              		.size	SelectRole, .-SelectRole
 131              		.section	.text.get_role,"ax",%progbits
 132              		.align	1
 133              		.p2align 4,,15
 134              		.global	get_role
 135              		.syntax unified
 136              		.thumb
 137              		.thumb_func
 138              		.fpu fpv4-sp-d16
 139              		.type	get_role, %function
 140              	get_role:
 141              	.LFB220:
 142              		.loc 1 42 0
 143              		.cfi_startproc
 144              		@ args = 0, pretend = 0, frame = 8
 145              		@ frame_needed = 0, uses_anonymous_args = 0
 146 0000 00B5     		push	{lr}
 147              		.cfi_def_cfa_offset 4
 148              		.cfi_offset 14, -4
 149 0002 074B     		ldr	r3, .L17
 150              		.loc 1 43 0
 151 0004 0749     		ldr	r1, .L17+4
 152              		.loc 1 42 0
 153 0006 1A68     		ldr	r2, [r3]
 154              		.loc 1 44 0
 155 0008 0878     		ldrb	r0, [r1]	@ zero_extendqisi2
 156              		.loc 1 42 0
 157 000a 83B0     		sub	sp, sp, #12
 158              		.cfi_def_cfa_offset 16
 159              		.loc 1 42 0
 160 000c 0192     		str	r2, [sp, #4]
 161              		.loc 1 44 0
 162 000e 019A     		ldr	r2, [sp, #4]
 163 0010 1B68     		ldr	r3, [r3]
 164 0012 9A42     		cmp	r2, r3
 165 0014 02D1     		bne	.L16
 166 0016 03B0     		add	sp, sp, #12
 167              		.cfi_remember_state
 168              		.cfi_def_cfa_offset 4
 169              		@ sp needed
 170 0018 5DF804FB 		ldr	pc, [sp], #4
 171              	.L16:
ARM GAS  C:\Users\rosendo\AppData\Local\Temp\ccLAdZdf.s 			page 4


 172              		.cfi_restore_state
 173 001c FFF7FEFF 		bl	__stack_chk_fail
 174              	.LVL9:
 175              	.L18:
 176              		.align	2
 177              	.L17:
 178 0020 00000000 		.word	__stack_chk_guard
 179 0024 00000000 		.word	.LANCHOR1
 180              		.cfi_endproc
 181              	.LFE220:
 182              		.size	get_role, .-get_role
 183              		.section	.text.role_selector_start,"ax",%progbits
 184              		.align	1
 185              		.p2align 4,,15
 186              		.global	role_selector_start
 187              		.syntax unified
 188              		.thumb
 189              		.thumb_func
 190              		.fpu fpv4-sp-d16
 191              		.type	role_selector_start, %function
 192              	role_selector_start:
 193              	.LFB221:
 194              		.loc 1 46 0
 195              		.cfi_startproc
 196              		@ args = 0, pretend = 0, frame = 8
 197              		@ frame_needed = 0, uses_anonymous_args = 0
 198 0000 10B5     		push	{r4, lr}
 199              		.cfi_def_cfa_offset 8
 200              		.cfi_offset 4, -8
 201              		.cfi_offset 14, -4
 202 0002 0A4C     		ldr	r4, .L23
 203              		.loc 1 47 0
 204 0004 0A4B     		ldr	r3, .L23+4
 205              		.loc 1 46 0
 206 0006 2268     		ldr	r2, [r4]
 207              		.loc 1 47 0
 208 0008 0A48     		ldr	r0, .L23+8
 209              		.loc 1 46 0
 210 000a 84B0     		sub	sp, sp, #16
 211              		.cfi_def_cfa_offset 24
 212              		.loc 1 47 0
 213 000c 4FF4FC71 		mov	r1, #504
 214              		.loc 1 46 0
 215 0010 0392     		str	r2, [sp, #12]
 216              		.loc 1 47 0
 217 0012 0022     		movs	r2, #0
 218 0014 0092     		str	r2, [sp]
 219 0016 3F22     		movs	r2, #63
 220 0018 FFF7FEFF 		bl	chThdCreateStatic
 221              	.LVL10:
 222              		.loc 1 48 0
 223 001c 039A     		ldr	r2, [sp, #12]
 224 001e 2368     		ldr	r3, [r4]
 225 0020 9A42     		cmp	r2, r3
 226 0022 01D1     		bne	.L22
 227 0024 04B0     		add	sp, sp, #16
 228              		.cfi_remember_state
ARM GAS  C:\Users\rosendo\AppData\Local\Temp\ccLAdZdf.s 			page 5


 229              		.cfi_def_cfa_offset 8
 230              		@ sp needed
 231 0026 10BD     		pop	{r4, pc}
 232              	.L22:
 233              		.cfi_restore_state
 234 0028 FFF7FEFF 		bl	__stack_chk_fail
 235              	.LVL11:
 236              	.L24:
 237              		.align	2
 238              	.L23:
 239 002c 00000000 		.word	__stack_chk_guard
 240 0030 00000000 		.word	SelectRole
 241 0034 00000000 		.word	.LANCHOR2
 242              		.cfi_endproc
 243              	.LFE221:
 244              		.size	role_selector_start, .-role_selector_start
 245              		.section	.bss.waSelectRole,"aw",%nobits
 246              		.align	3
 247              		.set	.LANCHOR2,. + 0
 248              		.type	waSelectRole, %object
 249              		.size	waSelectRole, 504
 250              	waSelectRole:
 251 0000 00000000 		.space	504
 251      00000000 
 251      00000000 
 251      00000000 
 251      00000000 
 252              		.section	.data.epuck_role,"aw",%progbits
 253              		.set	.LANCHOR1,. + 0
 254              		.type	epuck_role, %object
 255              		.size	epuck_role, 1
 256              	epuck_role:
 257 0000 02       		.byte	2
 258              		.section	.rodata.__FUNCTION__.7862,"a",%progbits
 259              		.align	2
 260              		.set	.LANCHOR0,. + 0
 261              		.type	__FUNCTION__.7862, %object
 262              		.size	__FUNCTION__.7862, 11
 263              	__FUNCTION__.7862:
 264 0000 53656C65 		.ascii	"SelectRole\000"
 264      6374526F 
 264      6C6500
 265              		.text
 266              	.Letext0:
 267              		.file 3 "c:\\users\\rosendo\\desktop\\eclipse_e-puck2_win32_29_jan_2020\\eclipse_e-puck2\\tools\\g
 268              		.file 4 "c:\\users\\rosendo\\desktop\\eclipse_e-puck2_win32_29_jan_2020\\eclipse_e-puck2\\tools\\g
 269              		.file 5 "c:\\users\\rosendo\\desktop\\eclipse_e-puck2_win32_29_jan_2020\\eclipse_e-puck2\\tools\\g
 270              		.file 6 "../../lib/e-puck2_main-processor/ChibiOS//os/rt/ports/ARMCMx/compilers/GCC/chtypes.h"
 271              		.file 7 "../../lib/e-puck2_main-processor/ChibiOS//os/rt/include/chsystypes.h"
 272              		.file 8 "../../lib/e-puck2_main-processor/ChibiOS//os/rt/include/chschd.h"
 273              		.file 9 "../../lib/e-puck2_main-processor/ChibiOS//os/ext/CMSIS/include/core_cm4.h"
 274              		.file 10 "../../lib/e-puck2_main-processor/ChibiOS//os/ext/CMSIS/ST/system_stm32f4xx.h"
 275              		.file 11 "../../lib/e-puck2_main-processor/ChibiOS//os/rt/ports/ARMCMx/chcore.h"
 276              		.file 12 "../../lib/e-puck2_main-processor/ChibiOS//os/rt/ports/ARMCMx/chcore_v7m.h"
 277              		.file 13 "../../lib/e-puck2_main-processor/ChibiOS//os/rt/include/chdebug.h"
 278              		.file 14 "../../lib/e-puck2_main-processor/ChibiOS//os/rt/include/chtm.h"
 279              		.file 15 "../../lib/e-puck2_main-processor/ChibiOS//os/rt/include/chstats.h"
ARM GAS  C:\Users\rosendo\AppData\Local\Temp\ccLAdZdf.s 			page 6


 280              		.file 16 "../../lib/e-puck2_main-processor/ChibiOS//os/rt/include/chsem.h"
 281              		.file 17 "../../lib/e-puck2_main-processor/ChibiOS//os/rt/include/chmtx.h"
 282              		.file 18 "../../lib/e-puck2_main-processor/ChibiOS//os/rt/include/chthreads.h"
 283              		.file 19 "../../lib/e-puck2_main-processor/src/selector.h"
 284              		.file 20 "role_selector.h"