ARM GAS  /tmp/ccy9dddG.s 			page 1


   1              		.cpu cortex-m4
   2              		.eabi_attribute 27, 1
   3              		.eabi_attribute 28, 1
   4              		.eabi_attribute 20, 1
   5              		.eabi_attribute 21, 1
   6              		.eabi_attribute 23, 3
   7              		.eabi_attribute 24, 1
   8              		.eabi_attribute 25, 1
   9              		.eabi_attribute 26, 1
  10              		.eabi_attribute 30, 2
  11              		.eabi_attribute 34, 1
  12              		.eabi_attribute 18, 4
  13              		.file	"bt_communication.c"
  14              		.text
  15              	.Ltext0:
  16              		.cfi_sections	.debug_frame
  17              		.section	.text.chprintf.constprop.1,"ax",%progbits
  18              		.align	1
  19              		.p2align 4,,15
  20              		.syntax unified
  21              		.thumb
  22              		.thumb_func
  23              		.fpu fpv4-sp-d16
  24              		.type	chprintf.constprop.1, %function
  25              	chprintf.constprop.1:
  26              	.LFB271:
  27              		.file 1 "../../lib/e-puck2_main-processor/ChibiOS//os/hal/lib/streams/chprintf.h"
  28              		.loc 1 69 0
  29              		.cfi_startproc
  30              		@ args = 4, pretend = 12, frame = 8
  31              		@ frame_needed = 0, uses_anonymous_args = 1
  32              	.LVL0:
  33 0000 0EB4     		push	{r1, r2, r3}
  34              		.cfi_def_cfa_offset 12
  35              		.cfi_offset 1, -12
  36              		.cfi_offset 2, -8
  37              		.cfi_offset 3, -4
  38 0002 10B5     		push	{r4, lr}
  39              		.cfi_def_cfa_offset 20
  40              		.cfi_offset 4, -20
  41              		.cfi_offset 14, -16
  42 0004 0A4C     		ldr	r4, .L6
  43              		.loc 1 74 0
  44 0006 0B49     		ldr	r1, .L6+4
  45              		.loc 1 69 0
  46 0008 2368     		ldr	r3, [r4]
  47              		.loc 1 74 0
  48 000a 0B48     		ldr	r0, .L6+8
  49              	.LVL1:
  50              		.loc 1 69 0
  51 000c 83B0     		sub	sp, sp, #12
  52              		.cfi_def_cfa_offset 32
  53              		.loc 1 69 0
  54 000e 0193     		str	r3, [sp, #4]
  55              	.LVL2:
  56              		.loc 1 73 0
  57 0010 06AB     		add	r3, sp, #24
ARM GAS  /tmp/ccy9dddG.s 			page 2


  58              		.loc 1 74 0
  59 0012 1A46     		mov	r2, r3
  60              		.loc 1 73 0
  61 0014 0093     		str	r3, [sp]
  62              		.loc 1 74 0
  63 0016 FFF7FEFF 		bl	chvprintf
  64              	.LVL3:
  65              		.loc 1 78 0
  66 001a 019A     		ldr	r2, [sp, #4]
  67 001c 2368     		ldr	r3, [r4]
  68 001e 9A42     		cmp	r2, r3
  69 0020 04D1     		bne	.L5
  70 0022 03B0     		add	sp, sp, #12
  71              		.cfi_remember_state
  72              		.cfi_def_cfa_offset 20
  73              		@ sp needed
  74 0024 BDE81040 		pop	{r4, lr}
  75              		.cfi_restore 14
  76              		.cfi_restore 4
  77              		.cfi_def_cfa_offset 12
  78 0028 03B0     		add	sp, sp, #12
  79              		.cfi_restore 3
  80              		.cfi_restore 2
  81              		.cfi_restore 1
  82              		.cfi_def_cfa_offset 0
  83 002a 7047     		bx	lr
  84              	.L5:
  85              		.cfi_restore_state
  86 002c FFF7FEFF 		bl	__stack_chk_fail
  87              	.LVL4:
  88              	.L7:
  89              		.align	2
  90              	.L6:
  91 0030 00000000 		.word	__stack_chk_guard
  92 0034 00000000 		.word	.LC0
  93 0038 00000000 		.word	SD3
  94              		.cfi_endproc
  95              	.LFE271:
  96              		.size	chprintf.constprop.1, .-chprintf.constprop.1
  97              		.section	.text.get_input_buffer,"ax",%progbits
  98              		.align	1
  99              		.p2align 4,,15
 100              		.global	get_input_buffer
 101              		.syntax unified
 102              		.thumb
 103              		.thumb_func
 104              		.fpu fpv4-sp-d16
 105              		.type	get_input_buffer, %function
 106              	get_input_buffer:
 107              	.LFB258:
 108              		.file 2 "bt_communication.c"
 109              		.loc 2 55 0
 110              		.cfi_startproc
 111              		@ args = 0, pretend = 0, frame = 8
 112              		@ frame_needed = 0, uses_anonymous_args = 0
 113              	.LVL5:
 114 0000 2DE9F041 		push	{r4, r5, r6, r7, r8, lr}
ARM GAS  /tmp/ccy9dddG.s 			page 3


 115              		.cfi_def_cfa_offset 24
 116              		.cfi_offset 4, -24
 117              		.cfi_offset 5, -20
 118              		.cfi_offset 6, -16
 119              		.cfi_offset 7, -12
 120              		.cfi_offset 8, -8
 121              		.cfi_offset 14, -4
 122 0004 104F     		ldr	r7, .L19
 123 0006 114E     		ldr	r6, .L19+4
 124 0008 3B68     		ldr	r3, [r7]
 125 000a 82B0     		sub	sp, sp, #8
 126              		.cfi_def_cfa_offset 32
 127              		.loc 2 55 0
 128 000c 0546     		mov	r5, r0
 129              		.loc 2 58 0
 130 000e 3022     		movs	r2, #48
 131 0010 2021     		movs	r1, #32
 132              		.loc 2 55 0
 133 0012 0193     		str	r3, [sp, #4]
 134              	.LVL6:
 135 0014 6C1E     		subs	r4, r5, #1
 136              		.loc 2 58 0
 137 0016 FFF7FEFF 		bl	memset
 138              	.LVL7:
 139 001a 2F35     		adds	r5, r5, #47
 140              	.LVL8:
 141              		.loc 2 62 0
 142 001c B046     		mov	r8, r6
 143 001e 01E0     		b	.L10
 144              	.LVL9:
 145              	.L17:
 146              		.loc 2 65 0 discriminator 1
 147 0020 AC42     		cmp	r4, r5
 148 0022 08D0     		beq	.L8
 149              	.LVL10:
 150              	.L10:
 151              		.loc 2 62 0 discriminator 2
 152 0024 3368     		ldr	r3, [r6]
 153 0026 4046     		mov	r0, r8
 154 0028 DB68     		ldr	r3, [r3, #12]
 155 002a 9847     		blx	r3
 156              	.LVL11:
 157 002c C0B2     		uxtb	r0, r0
 158              	.LVL12:
 159              		.loc 2 65 0 discriminator 2
 160 002e 2D28     		cmp	r0, #45
 161              		.loc 2 63 0 discriminator 2
 162 0030 04F8010F 		strb	r0, [r4, #1]!
 163              	.LVL13:
 164              		.loc 2 65 0 discriminator 2
 165 0034 F4D1     		bne	.L17
 166              	.L8:
 167              		.loc 2 66 0
 168 0036 019A     		ldr	r2, [sp, #4]
 169 0038 3B68     		ldr	r3, [r7]
 170 003a 9A42     		cmp	r2, r3
 171 003c 02D1     		bne	.L18
ARM GAS  /tmp/ccy9dddG.s 			page 4


 172 003e 02B0     		add	sp, sp, #8
 173              		.cfi_remember_state
 174              		.cfi_def_cfa_offset 24
 175              		@ sp needed
 176 0040 BDE8F081 		pop	{r4, r5, r6, r7, r8, pc}
 177              	.LVL14:
 178              	.L18:
 179              		.cfi_restore_state
 180 0044 FFF7FEFF 		bl	__stack_chk_fail
 181              	.LVL15:
 182              	.L20:
 183              		.align	2
 184              	.L19:
 185 0048 00000000 		.word	__stack_chk_guard
 186 004c 00000000 		.word	SD3
 187              		.cfi_endproc
 188              	.LFE258:
 189              		.size	get_input_buffer, .-get_input_buffer
 190              		.global	__aeabi_f2d
 191              		.section	.text.send_position,"ax",%progbits
 192              		.align	1
 193              		.p2align 4,,15
 194              		.global	send_position
 195              		.syntax unified
 196              		.thumb
 197              		.thumb_func
 198              		.fpu fpv4-sp-d16
 199              		.type	send_position, %function
 200              	send_position:
 201              	.LFB260:
 202              		.loc 2 117 0
 203              		.cfi_startproc
 204              		@ args = 0, pretend = 0, frame = 8
 205              		@ frame_needed = 0, uses_anonymous_args = 0
 206 0000 D0B5     		push	{r4, r6, r7, lr}
 207              		.cfi_def_cfa_offset 16
 208              		.cfi_offset 4, -16
 209              		.cfi_offset 6, -12
 210              		.cfi_offset 7, -8
 211              		.cfi_offset 14, -4
 212 0002 104C     		ldr	r4, .L25
 213 0004 84B0     		sub	sp, sp, #16
 214              		.cfi_def_cfa_offset 32
 215              		.loc 2 117 0
 216 0006 2368     		ldr	r3, [r4]
 217 0008 0393     		str	r3, [sp, #12]
 218              		.loc 2 118 0
 219 000a FFF7FEFF 		bl	get_self_position
 220              	.LVL16:
 221 000e 0068     		ldr	r0, [r0]	@ float
 222 0010 FFF7FEFF 		bl	__aeabi_f2d
 223              	.LVL17:
 224 0014 0F46     		mov	r7, r1
 225 0016 0646     		mov	r6, r0
 226 0018 FFF7FEFF 		bl	get_self_position
 227              	.LVL18:
 228 001c 4068     		ldr	r0, [r0, #4]	@ float
ARM GAS  /tmp/ccy9dddG.s 			page 5


 229 001e FFF7FEFF 		bl	__aeabi_f2d
 230              	.LVL19:
 231 0022 3246     		mov	r2, r6
 232 0024 CDE90001 		strd	r0, [sp]
 233 0028 3B46     		mov	r3, r7
 234 002a 0749     		ldr	r1, .L25+4
 235 002c 0748     		ldr	r0, .L25+8
 236 002e FFF7FEFF 		bl	chprintf.constprop.1
 237              	.LVL20:
 238              		.loc 2 120 0
 239 0032 039A     		ldr	r2, [sp, #12]
 240 0034 2368     		ldr	r3, [r4]
 241 0036 9A42     		cmp	r2, r3
 242 0038 01D1     		bne	.L24
 243 003a 04B0     		add	sp, sp, #16
 244              		.cfi_remember_state
 245              		.cfi_def_cfa_offset 16
 246              		@ sp needed
 247 003c D0BD     		pop	{r4, r6, r7, pc}
 248              	.L24:
 249              		.cfi_restore_state
 250 003e FFF7FEFF 		bl	__stack_chk_fail
 251              	.LVL21:
 252              	.L26:
 253 0042 00BF     		.align	2
 254              	.L25:
 255 0044 00000000 		.word	__stack_chk_guard
 256 0048 00000000 		.word	.LC0
 257 004c 00000000 		.word	SD3
 258              		.cfi_endproc
 259              	.LFE260:
 260              		.size	send_position, .-send_position
 261              		.section	.text.valid_command,"ax",%progbits
 262              		.align	1
 263              		.p2align 4,,15
 264              		.global	valid_command
 265              		.syntax unified
 266              		.thumb
 267              		.thumb_func
 268              		.fpu fpv4-sp-d16
 269              		.type	valid_command, %function
 270              	valid_command:
 271              	.LFB261:
 272              		.loc 2 123 0
 273              		.cfi_startproc
 274              		@ args = 0, pretend = 0, frame = 8
 275              		@ frame_needed = 0, uses_anonymous_args = 0
 276              	.LVL22:
 277 0000 00B5     		push	{lr}
 278              		.cfi_def_cfa_offset 4
 279              		.cfi_offset 14, -4
 280              		.loc 2 124 0
 281 0002 6138     		subs	r0, r0, #97
 282              	.LVL23:
 283 0004 C3B2     		uxtb	r3, r0
 284              		.loc 2 123 0
 285 0006 0B4A     		ldr	r2, .L33
ARM GAS  /tmp/ccy9dddG.s 			page 6


 286              		.loc 2 124 0
 287 0008 152B     		cmp	r3, #21
 288              		.loc 2 123 0
 289 000a 83B0     		sub	sp, sp, #12
 290              		.cfi_def_cfa_offset 16
 291              		.loc 2 123 0
 292 000c 1168     		ldr	r1, [r2]
 293              		.loc 2 124 0
 294 000e 98BF     		it	ls
 295 0010 0948     		ldrls	r0, .L33+4
 296              		.loc 2 123 0
 297 0012 0191     		str	r1, [sp, #4]
 298              		.loc 2 124 0
 299 0014 98BF     		it	ls
 300 0016 D840     		lsrls	r0, r0, r3
 301              		.loc 2 130 0
 302 0018 0199     		ldr	r1, [sp, #4]
 303 001a 1368     		ldr	r3, [r2]
 304 001c 94BF     		ite	ls
 305 001e 00F00100 		andls	r0, r0, #1
 306              		.loc 2 124 0
 307 0022 0020     		movhi	r0, #0
 308              		.loc 2 130 0
 309 0024 9942     		cmp	r1, r3
 310 0026 02D1     		bne	.L32
 311 0028 03B0     		add	sp, sp, #12
 312              		.cfi_remember_state
 313              		.cfi_def_cfa_offset 4
 314              		@ sp needed
 315 002a 5DF804FB 		ldr	pc, [sp], #4
 316              	.L32:
 317              		.cfi_restore_state
 318 002e FFF7FEFF 		bl	__stack_chk_fail
 319              	.LVL24:
 320              	.L34:
 321 0032 00BF     		.align	2
 322              	.L33:
 323 0034 00000000 		.word	__stack_chk_guard
 324 0038 8D003000 		.word	3145869
 325              		.cfi_endproc
 326              	.LFE261:
 327              		.size	valid_command, .-valid_command
 328              		.section	.text.process_input_bfr,"ax",%progbits
 329              		.align	1
 330              		.p2align 4,,15
 331              		.global	process_input_bfr
 332              		.syntax unified
 333              		.thumb
 334              		.thumb_func
 335              		.fpu fpv4-sp-d16
 336              		.type	process_input_bfr, %function
 337              	process_input_bfr:
 338              	.LFB259:
 339              		.loc 2 68 0
 340              		.cfi_startproc
 341              		@ args = 0, pretend = 0, frame = 16
 342              		@ frame_needed = 0, uses_anonymous_args = 0
ARM GAS  /tmp/ccy9dddG.s 			page 7


 343              	.LVL25:
 344 0000 2DE9F04F 		push	{r4, r5, r6, r7, r8, r9, r10, fp, lr}
 345              		.cfi_def_cfa_offset 36
 346              		.cfi_offset 4, -36
 347              		.cfi_offset 5, -32
 348              		.cfi_offset 6, -28
 349              		.cfi_offset 7, -24
 350              		.cfi_offset 8, -20
 351              		.cfi_offset 9, -16
 352              		.cfi_offset 10, -12
 353              		.cfi_offset 11, -8
 354              		.cfi_offset 14, -4
 355 0004 474E     		ldr	r6, .L81
 356 0006 DFF83091 		ldr	r9, .L81+20
 357 000a 3368     		ldr	r3, [r6]
 358 000c 85B0     		sub	sp, sp, #20
 359              		.cfi_def_cfa_offset 56
 360              	.LBB16:
 361              	.LBB17:
 362              		.loc 2 106 0
 363 000e 4FF00008 		mov	r8, #0
 364              	.LBE17:
 365              	.LBE16:
 366              		.loc 2 68 0
 367 0012 0393     		str	r3, [sp, #12]
 368              	.LVL26:
 369 0014 99F80030 		ldrb	r3, [r9]	@ zero_extendqisi2
 370 0018 0093     		str	r3, [sp]
 371 001a 434B     		ldr	r3, .L81+4
 372 001c 1B78     		ldrb	r3, [r3]	@ zero_extendqisi2
 373 001e 0193     		str	r3, [sp, #4]
 374 0020 8346     		mov	fp, r0
 375 0022 00F13005 		add	r5, r0, #48
 376              	.LBB38:
 377              	.LBB26:
 378              		.loc 2 106 0
 379 0026 4746     		mov	r7, r8
 380              	.LVL27:
 381              	.L36:
 382              	.LBE26:
 383              		.loc 2 70 0 discriminator 3
 384 0028 5C46     		mov	r4, fp
 385 002a 14F801AB 		ldrb	r10, [r4], #1	@ zero_extendqisi2
 386 002e BAF12D0F 		cmp	r10, #45
 387 0032 1ED0     		beq	.L75
 388              		.loc 2 71 0
 389 0034 5046     		mov	r0, r10
 390 0036 FFF7FEFF 		bl	valid_command
 391              	.LVL28:
 392 003a B8B1     		cbz	r0, .L37
 393              	.LVL29:
 394              	.LBB27:
 395              		.loc 2 76 0
 396 003c 2378     		ldrb	r3, [r4]	@ zero_extendqisi2
 397 003e 3A2B     		cmp	r3, #58
 398 0040 23D0     		beq	.L77
 399              		.loc 2 74 0
ARM GAS  /tmp/ccy9dddG.s 			page 8


 400 0042 0022     		movs	r2, #0
 401              	.LVL30:
 402              	.L38:
 403              		.loc 2 84 0
 404 0044 AAF1610A 		sub	r10, r10, #97
 405 0048 BAF1150F 		cmp	r10, #21
 406 004c 0ED8     		bhi	.L37
 407 004e DFE80AF0 		tbb	[pc, r10]
 408              	.L44:
 409 0052 49       		.byte	(.L43-.L44)/2
 410 0053 0D       		.byte	(.L37-.L44)/2
 411 0054 43       		.byte	(.L45-.L44)/2
 412 0055 3D       		.byte	(.L46-.L44)/2
 413 0056 0D       		.byte	(.L37-.L44)/2
 414 0057 0D       		.byte	(.L37-.L44)/2
 415 0058 0D       		.byte	(.L37-.L44)/2
 416 0059 37       		.byte	(.L57-.L44)/2
 417 005a 0D       		.byte	(.L37-.L44)/2
 418 005b 0D       		.byte	(.L37-.L44)/2
 419 005c 0D       		.byte	(.L37-.L44)/2
 420 005d 0D       		.byte	(.L37-.L44)/2
 421 005e 0D       		.byte	(.L37-.L44)/2
 422 005f 0D       		.byte	(.L37-.L44)/2
 423 0060 0D       		.byte	(.L37-.L44)/2
 424 0061 0D       		.byte	(.L37-.L44)/2
 425 0062 0D       		.byte	(.L37-.L44)/2
 426 0063 0D       		.byte	(.L37-.L44)/2
 427 0064 0D       		.byte	(.L37-.L44)/2
 428 0065 0D       		.byte	(.L37-.L44)/2
 429 0066 4F       		.byte	(.L47-.L44)/2
 430 0067 0B       		.byte	(.L48-.L44)/2
 431              		.p2align 1
 432              	.L48:
 433              		.loc 2 98 0
 434 0068 304B     		ldr	r3, .L81+8
 435 006a 5A80     		strh	r2, [r3, #2]	@ movhi
 436              	.L37:
 437              	.LVL31:
 438              	.LBE27:
 439              		.loc 2 70 0 discriminator 2
 440 006c AC42     		cmp	r4, r5
 441 006e A346     		mov	fp, r4
 442 0070 DAD1     		bne	.L36
 443              	.LVL32:
 444              	.L75:
 445 0072 002F     		cmp	r7, #0
 446 0074 50D1     		bne	.L78
 447              	.L53:
 448 0076 B8F1000F 		cmp	r8, #0
 449 007a 48D1     		bne	.L79
 450              	.L35:
 451              	.LBE38:
 452              		.loc 2 115 0
 453 007c 039A     		ldr	r2, [sp, #12]
 454 007e 3368     		ldr	r3, [r6]
 455 0080 9A42     		cmp	r2, r3
 456 0082 42D1     		bne	.L80
ARM GAS  /tmp/ccy9dddG.s 			page 9


 457 0084 05B0     		add	sp, sp, #20
 458              		.cfi_remember_state
 459              		.cfi_def_cfa_offset 36
 460              		@ sp needed
 461 0086 BDE8F08F 		pop	{r4, r5, r6, r7, r8, r9, r10, fp, pc}
 462              	.LVL33:
 463              	.L77:
 464              		.cfi_restore_state
 465 008a 0BF10601 		add	r1, fp, #6
 466              	.LBB39:
 467              	.LBB28:
 468              		.loc 2 76 0
 469 008e A446     		mov	ip, r4
 470              	.LBB18:
 471              	.LBB19:
 472              		.loc 2 142 0
 473 0090 0022     		movs	r2, #0
 474              	.LVL34:
 475              	.L40:
 476              	.LBB20:
 477              		.loc 2 144 0
 478 0092 1CF801EF 		ldrb	lr, [ip, #1]!	@ zero_extendqisi2
 479              	.LVL35:
 480              	.LBB21:
 481              	.LBB22:
 482              		.loc 2 133 0
 483 0096 AEF13003 		sub	r3, lr, #48
 484 009a 5FFA83FB 		uxtb	fp, r3
 485 009e BBF1090F 		cmp	fp, #9
 486 00a2 2BD8     		bhi	.L39
 487              	.LVL36:
 488              	.LBE22:
 489              	.LBE21:
 490              		.loc 2 145 0
 491 00a4 1A44     		add	r2, r2, r3
 492              	.LVL37:
 493 00a6 92B2     		uxth	r2, r2
 494              	.LVL38:
 495              		.loc 2 151 0
 496 00a8 02EB8202 		add	r2, r2, r2, lsl #2
 497              	.LVL39:
 498 00ac 5200     		lsls	r2, r2, #1
 499              		.loc 2 143 0
 500 00ae 6145     		cmp	r1, ip
 501              		.loc 2 151 0
 502 00b0 92B2     		uxth	r2, r2
 503              	.LVL40:
 504              		.loc 2 143 0
 505 00b2 EED1     		bne	.L40
 506              	.LVL41:
 507              	.L41:
 508              	.LBE20:
 509              		.loc 2 153 0
 510 00b4 1E4B     		ldr	r3, .L81+12
 511 00b6 A3FB0232 		umull	r3, r2, r3, r2
 512              	.LVL42:
 513              		.loc 2 154 0
ARM GAS  /tmp/ccy9dddG.s 			page 10


 514 00ba 42F3CF02 		sbfx	r2, r2, #3, #16
 515              	.LVL43:
 516 00be C1E7     		b	.L38
 517              	.LVL44:
 518              	.L57:
 519              	.LBE19:
 520              	.LBE18:
 521              	.LBE28:
 522              		.loc 2 70 0
 523 00c0 AC42     		cmp	r4, r5
 524              	.LBB29:
 525              		.loc 2 84 0
 526 00c2 0746     		mov	r7, r0
 527              		.loc 2 102 0
 528 00c4 0090     		str	r0, [sp]
 529              	.LVL45:
 530 00c6 A346     		mov	fp, r4
 531              	.LBE29:
 532              		.loc 2 70 0
 533 00c8 AED1     		bne	.L36
 534 00ca D2E7     		b	.L75
 535              	.LVL46:
 536              	.L46:
 537              	.LBB30:
 538              		.loc 2 90 0
 539 00cc 194B     		ldr	r3, .L81+16
 540              	.LBE30:
 541              		.loc 2 70 0
 542 00ce AC42     		cmp	r4, r5
 543              	.LBB31:
 544              		.loc 2 90 0
 545 00d0 1A80     		strh	r2, [r3]	@ movhi
 546              	.LVL47:
 547 00d2 A346     		mov	fp, r4
 548              	.LBE31:
 549              		.loc 2 70 0
 550 00d4 A8D1     		bne	.L36
 551 00d6 CCE7     		b	.L75
 552              	.LVL48:
 553              	.L45:
 554 00d8 AC42     		cmp	r4, r5
 555              	.LBB32:
 556              		.loc 2 107 0
 557 00da 8046     		mov	r8, r0
 558              		.loc 2 106 0
 559 00dc 0190     		str	r0, [sp, #4]
 560              	.LVL49:
 561 00de A346     		mov	fp, r4
 562              	.LBE32:
 563              		.loc 2 70 0
 564 00e0 A2D1     		bne	.L36
 565 00e2 C6E7     		b	.L75
 566              	.LVL50:
 567              	.L43:
 568              	.LBB33:
 569              		.loc 2 86 0
 570 00e4 134B     		ldr	r3, .L81+16
ARM GAS  /tmp/ccy9dddG.s 			page 11


 571              	.LBE33:
 572              		.loc 2 70 0
 573 00e6 AC42     		cmp	r4, r5
 574              	.LBB34:
 575              		.loc 2 86 0
 576 00e8 5A80     		strh	r2, [r3, #2]	@ movhi
 577              	.LVL51:
 578 00ea A346     		mov	fp, r4
 579              	.LBE34:
 580              		.loc 2 70 0
 581 00ec 9CD1     		bne	.L36
 582 00ee C0E7     		b	.L75
 583              	.LVL52:
 584              	.L47:
 585              	.LBB35:
 586              		.loc 2 94 0
 587 00f0 0E4B     		ldr	r3, .L81+8
 588              	.LBE35:
 589              		.loc 2 70 0
 590 00f2 AC42     		cmp	r4, r5
 591              	.LBB36:
 592              		.loc 2 94 0
 593 00f4 1A80     		strh	r2, [r3]	@ movhi
 594              	.LVL53:
 595 00f6 A346     		mov	fp, r4
 596              	.LBE36:
 597              		.loc 2 70 0
 598 00f8 96D1     		bne	.L36
 599 00fa BAE7     		b	.L75
 600              	.LVL54:
 601              	.L39:
 602              	.LBB37:
 603              	.LBB25:
 604              	.LBB24:
 605              	.LBB23:
 606              		.loc 2 146 0
 607 00fc BEF1200F 		cmp	lr, #32
 608 0100 D8D0     		beq	.L41
 609              	.LVL55:
 610              	.LBE23:
 611              	.LBE24:
 612              	.LBE25:
 613              	.LBE37:
 614              		.loc 2 70 0
 615 0102 AC42     		cmp	r4, r5
 616 0104 A346     		mov	fp, r4
 617 0106 8FD1     		bne	.L36
 618 0108 B3E7     		b	.L75
 619              	.LVL56:
 620              	.L80:
 621              	.LBE39:
 622              		.loc 2 115 0
 623 010a FFF7FEFF 		bl	__stack_chk_fail
 624              	.LVL57:
 625              	.L79:
 626 010e 064B     		ldr	r3, .L81+4
 627 0110 9DF80420 		ldrb	r2, [sp, #4]	@ zero_extendqisi2
ARM GAS  /tmp/ccy9dddG.s 			page 12


 628 0114 1A70     		strb	r2, [r3]
 629 0116 B1E7     		b	.L35
 630              	.L78:
 631 0118 9DF80030 		ldrb	r3, [sp]	@ zero_extendqisi2
 632 011c 89F80030 		strb	r3, [r9]
 633 0120 A9E7     		b	.L53
 634              	.L82:
 635 0122 00BF     		.align	2
 636              	.L81:
 637 0124 00000000 		.word	__stack_chk_guard
 638 0128 00000000 		.word	.LANCHOR1
 639 012c 00000000 		.word	.LANCHOR3
 640 0130 CDCCCCCC 		.word	-858993459
 641 0134 00000000 		.word	.LANCHOR2
 642 0138 00000000 		.word	.LANCHOR0
 643              		.cfi_endproc
 644              	.LFE259:
 645              		.size	process_input_bfr, .-process_input_bfr
 646              		.section	.text.BluetoothComm,"ax",%progbits
 647              		.align	1
 648              		.p2align 4,,15
 649              		.syntax unified
 650              		.thumb
 651              		.thumb_func
 652              		.fpu fpv4-sp-d16
 653              		.type	BluetoothComm, %function
 654              	BluetoothComm:
 655              	.LFB257:
 656              		.loc 2 40 0
 657              		.cfi_startproc
 658              		@ Volatile: function does not return.
 659              		@ args = 0, pretend = 0, frame = 8
 660              		@ frame_needed = 0, uses_anonymous_args = 0
 661              	.LVL58:
 662 0000 00B5     		push	{lr}
 663              		.cfi_def_cfa_offset 4
 664              		.cfi_offset 14, -4
 665              	.LBB40:
 666              	.LBB41:
 667              		.file 3 "../../lib/e-puck2_main-processor/ChibiOS//os/rt/include/chregistry.h"
 668              		.loc 3 135 0
 669 0002 0A4A     		ldr	r2, .L87
 670              	.LBE41:
 671              	.LBE40:
 672              		.loc 2 40 0
 673 0004 0A4B     		ldr	r3, .L87+4
 674              	.LBB44:
 675              	.LBB42:
 676              		.loc 3 135 0
 677 0006 9269     		ldr	r2, [r2, #24]
 678 0008 0A49     		ldr	r1, .L87+8
 679              	.LBE42:
 680              	.LBE44:
 681              		.loc 2 40 0
 682 000a 1B68     		ldr	r3, [r3]
 683              		.loc 2 48 0
 684 000c 0A4C     		ldr	r4, .L87+12
ARM GAS  /tmp/ccy9dddG.s 			page 13


 685              	.LBB45:
 686              	.LBB43:
 687              		.loc 3 135 0
 688 000e 9161     		str	r1, [r2, #24]
 689              	.LBE43:
 690              	.LBE45:
 691              		.loc 2 40 0
 692 0010 83B0     		sub	sp, sp, #12
 693              		.cfi_def_cfa_offset 16
 694              		.loc 2 40 0
 695 0012 0193     		str	r3, [sp, #4]
 696              	.LVL59:
 697              	.L84:
 698              		.loc 2 48 0 discriminator 1
 699 0014 2046     		mov	r0, r4
 700 0016 FFF7FEFF 		bl	get_input_buffer
 701              	.LVL60:
 702              		.loc 2 49 0 discriminator 1
 703 001a 2046     		mov	r0, r4
 704 001c FFF7FEFF 		bl	process_input_bfr
 705              	.LVL61:
 706              		.loc 2 50 0 discriminator 1
 707 0020 FFF7FEFF 		bl	send_position
 708              	.LVL62:
 709              		.loc 2 51 0 discriminator 1
 710 0024 3220     		movs	r0, #50
 711 0026 FFF7FEFF 		bl	chThdSleep
 712              	.LVL63:
 713 002a F3E7     		b	.L84
 714              	.L88:
 715              		.align	2
 716              	.L87:
 717 002c 00000000 		.word	ch
 718 0030 00000000 		.word	__stack_chk_guard
 719 0034 00000000 		.word	.LANCHOR4
 720 0038 00000000 		.word	.LANCHOR5
 721              		.cfi_endproc
 722              	.LFE257:
 723              		.size	BluetoothComm, .-BluetoothComm
 724              		.section	.text.is_number,"ax",%progbits
 725              		.align	1
 726              		.p2align 4,,15
 727              		.global	is_number
 728              		.syntax unified
 729              		.thumb
 730              		.thumb_func
 731              		.fpu fpv4-sp-d16
 732              		.type	is_number, %function
 733              	is_number:
 734              	.LFB262:
 735              		.loc 2 132 0
 736              		.cfi_startproc
 737              		@ args = 0, pretend = 0, frame = 8
 738              		@ frame_needed = 0, uses_anonymous_args = 0
 739              	.LVL64:
 740 0000 00B5     		push	{lr}
 741              		.cfi_def_cfa_offset 4
ARM GAS  /tmp/ccy9dddG.s 			page 14


 742              		.cfi_offset 14, -4
 743 0002 094B     		ldr	r3, .L93
 744 0004 83B0     		sub	sp, sp, #12
 745              		.cfi_def_cfa_offset 16
 746              		.loc 2 132 0
 747 0006 1A68     		ldr	r2, [r3]
 748 0008 0192     		str	r2, [sp, #4]
 749              		.loc 2 133 0
 750 000a 3038     		subs	r0, r0, #48
 751              	.LVL65:
 752              		.loc 2 138 0
 753 000c 019A     		ldr	r2, [sp, #4]
 754 000e 1B68     		ldr	r3, [r3]
 755 0010 0928     		cmp	r0, #9
 756 0012 8CBF     		ite	hi
 757 0014 0020     		movhi	r0, #0
 758 0016 0120     		movls	r0, #1
 759 0018 9A42     		cmp	r2, r3
 760 001a 02D1     		bne	.L92
 761 001c 03B0     		add	sp, sp, #12
 762              		.cfi_remember_state
 763              		.cfi_def_cfa_offset 4
 764              		@ sp needed
 765 001e 5DF804FB 		ldr	pc, [sp], #4
 766              	.L92:
 767              		.cfi_restore_state
 768 0022 FFF7FEFF 		bl	__stack_chk_fail
 769              	.LVL66:
 770              	.L94:
 771 0026 00BF     		.align	2
 772              	.L93:
 773 0028 00000000 		.word	__stack_chk_guard
 774              		.cfi_endproc
 775              	.LFE262:
 776              		.size	is_number, .-is_number
 777              		.section	.text.get_recieved_integer,"ax",%progbits
 778              		.align	1
 779              		.p2align 4,,15
 780              		.global	get_recieved_integer
 781              		.syntax unified
 782              		.thumb
 783              		.thumb_func
 784              		.fpu fpv4-sp-d16
 785              		.type	get_recieved_integer, %function
 786              	get_recieved_integer:
 787              	.LFB263:
 788              		.loc 2 140 0
 789              		.cfi_startproc
 790              		@ args = 0, pretend = 0, frame = 8
 791              		@ frame_needed = 0, uses_anonymous_args = 0
 792              	.LVL67:
 793 0000 70B5     		push	{r4, r5, r6, lr}
 794              		.cfi_def_cfa_offset 16
 795              		.cfi_offset 4, -16
 796              		.cfi_offset 5, -12
 797              		.cfi_offset 6, -8
 798              		.cfi_offset 14, -4
ARM GAS  /tmp/ccy9dddG.s 			page 15


 799 0002 144D     		ldr	r5, .L105
 800 0004 82B0     		sub	sp, sp, #8
 801              		.cfi_def_cfa_offset 24
 802              		.loc 2 140 0
 803 0006 2B68     		ldr	r3, [r5]
 804 0008 0193     		str	r3, [sp, #4]
 805              	.LVL68:
 806 000a 421E     		subs	r2, r0, #1
 807              		.loc 2 142 0
 808 000c 0023     		movs	r3, #0
 809 000e 0430     		adds	r0, r0, #4
 810              	.LVL69:
 811              	.L97:
 812              	.LBB46:
 813              		.loc 2 144 0
 814 0010 12F8014F 		ldrb	r4, [r2, #1]!	@ zero_extendqisi2
 815              	.LVL70:
 816              	.LBB47:
 817              	.LBB48:
 818              		.loc 2 133 0
 819 0014 A4F13001 		sub	r1, r4, #48
 820 0018 CEB2     		uxtb	r6, r1
 821 001a 092E     		cmp	r6, #9
 822 001c 12D8     		bhi	.L96
 823              	.LVL71:
 824              	.LBE48:
 825              	.LBE47:
 826              		.loc 2 145 0
 827 001e 0B44     		add	r3, r3, r1
 828              	.LVL72:
 829 0020 9BB2     		uxth	r3, r3
 830              	.LVL73:
 831              		.loc 2 151 0
 832 0022 03EB8303 		add	r3, r3, r3, lsl #2
 833              	.LVL74:
 834 0026 5B00     		lsls	r3, r3, #1
 835              		.loc 2 143 0
 836 0028 9042     		cmp	r0, r2
 837              		.loc 2 151 0
 838 002a 9BB2     		uxth	r3, r3
 839              	.LVL75:
 840              		.loc 2 143 0
 841 002c F0D1     		bne	.L97
 842              	.LVL76:
 843              	.L98:
 844              	.LBE46:
 845              		.loc 2 153 0
 846 002e 0A48     		ldr	r0, .L105+4
 847              	.LVL77:
 848 0030 A0FB0323 		umull	r2, r3, r0, r3
 849              	.LVL78:
 850              		.loc 2 154 0
 851 0034 43F3CF00 		sbfx	r0, r3, #3, #16
 852              	.L99:
 853              		.loc 2 155 0
 854 0038 019A     		ldr	r2, [sp, #4]
 855 003a 2B68     		ldr	r3, [r5]
ARM GAS  /tmp/ccy9dddG.s 			page 16


 856 003c 9A42     		cmp	r2, r3
 857 003e 06D1     		bne	.L104
 858 0040 02B0     		add	sp, sp, #8
 859              		.cfi_remember_state
 860              		.cfi_def_cfa_offset 16
 861              		@ sp needed
 862 0042 70BD     		pop	{r4, r5, r6, pc}
 863              	.LVL79:
 864              	.L96:
 865              		.cfi_restore_state
 866              	.LBB49:
 867              		.loc 2 146 0
 868 0044 202C     		cmp	r4, #32
 869 0046 F2D0     		beq	.L98
 870              		.loc 2 149 0
 871 0048 4FF0FF30 		mov	r0, #-1
 872 004c F4E7     		b	.L99
 873              	.LVL80:
 874              	.L104:
 875              	.LBE49:
 876              		.loc 2 155 0
 877 004e FFF7FEFF 		bl	__stack_chk_fail
 878              	.LVL81:
 879              	.L106:
 880 0052 00BF     		.align	2
 881              	.L105:
 882 0054 00000000 		.word	__stack_chk_guard
 883 0058 CDCCCCCC 		.word	-858993459
 884              		.cfi_endproc
 885              	.LFE263:
 886              		.size	get_recieved_integer, .-get_recieved_integer
 887              		.section	.text.get_BT_enemy_position,"ax",%progbits
 888              		.align	1
 889              		.p2align 4,,15
 890              		.global	get_BT_enemy_position
 891              		.syntax unified
 892              		.thumb
 893              		.thumb_func
 894              		.fpu fpv4-sp-d16
 895              		.type	get_BT_enemy_position, %function
 896              	get_BT_enemy_position:
 897              	.LFB264:
 898              		.loc 2 157 0
 899              		.cfi_startproc
 900              		@ args = 0, pretend = 0, frame = 8
 901              		@ frame_needed = 0, uses_anonymous_args = 0
 902 0000 00B5     		push	{lr}
 903              		.cfi_def_cfa_offset 4
 904              		.cfi_offset 14, -4
 905 0002 074B     		ldr	r3, .L111
 906 0004 83B0     		sub	sp, sp, #12
 907              		.cfi_def_cfa_offset 16
 908              		.loc 2 157 0
 909 0006 1A68     		ldr	r2, [r3]
 910 0008 0192     		str	r2, [sp, #4]
 911 000a 019A     		ldr	r2, [sp, #4]
 912 000c 1B68     		ldr	r3, [r3]
ARM GAS  /tmp/ccy9dddG.s 			page 17


 913 000e 9A42     		cmp	r2, r3
 914 0010 03D1     		bne	.L110
 915 0012 0448     		ldr	r0, .L111+4
 916 0014 03B0     		add	sp, sp, #12
 917              		.cfi_remember_state
 918              		.cfi_def_cfa_offset 4
 919              		@ sp needed
 920 0016 5DF804FB 		ldr	pc, [sp], #4
 921              	.L110:
 922              		.cfi_restore_state
 923 001a FFF7FEFF 		bl	__stack_chk_fail
 924              	.LVL82:
 925              	.L112:
 926 001e 00BF     		.align	2
 927              	.L111:
 928 0020 00000000 		.word	__stack_chk_guard
 929 0024 00000000 		.word	.LANCHOR3
 930              		.cfi_endproc
 931              	.LFE264:
 932              		.size	get_BT_enemy_position, .-get_BT_enemy_position
 933              		.section	.text.get_BT_controller_joystick_polar,"ax",%progbits
 934              		.align	1
 935              		.p2align 4,,15
 936              		.global	get_BT_controller_joystick_polar
 937              		.syntax unified
 938              		.thumb
 939              		.thumb_func
 940              		.fpu fpv4-sp-d16
 941              		.type	get_BT_controller_joystick_polar, %function
 942              	get_BT_controller_joystick_polar:
 943              	.LFB265:
 944              		.loc 2 159 0
 945              		.cfi_startproc
 946              		@ args = 0, pretend = 0, frame = 8
 947              		@ frame_needed = 0, uses_anonymous_args = 0
 948 0000 00B5     		push	{lr}
 949              		.cfi_def_cfa_offset 4
 950              		.cfi_offset 14, -4
 951 0002 074B     		ldr	r3, .L117
 952 0004 83B0     		sub	sp, sp, #12
 953              		.cfi_def_cfa_offset 16
 954              		.loc 2 159 0
 955 0006 1A68     		ldr	r2, [r3]
 956 0008 0192     		str	r2, [sp, #4]
 957 000a 019A     		ldr	r2, [sp, #4]
 958 000c 1B68     		ldr	r3, [r3]
 959 000e 9A42     		cmp	r2, r3
 960 0010 03D1     		bne	.L116
 961 0012 0448     		ldr	r0, .L117+4
 962 0014 03B0     		add	sp, sp, #12
 963              		.cfi_remember_state
 964              		.cfi_def_cfa_offset 4
 965              		@ sp needed
 966 0016 5DF804FB 		ldr	pc, [sp], #4
 967              	.L116:
 968              		.cfi_restore_state
 969 001a FFF7FEFF 		bl	__stack_chk_fail
ARM GAS  /tmp/ccy9dddG.s 			page 18


 970              	.LVL83:
 971              	.L118:
 972 001e 00BF     		.align	2
 973              	.L117:
 974 0020 00000000 		.word	__stack_chk_guard
 975 0024 00000000 		.word	.LANCHOR2
 976              		.cfi_endproc
 977              	.LFE265:
 978              		.size	get_BT_controller_joystick_polar, .-get_BT_controller_joystick_polar
 979              		.section	.text.get_BT_controller_shoot,"ax",%progbits
 980              		.align	1
 981              		.p2align 4,,15
 982              		.global	get_BT_controller_shoot
 983              		.syntax unified
 984              		.thumb
 985              		.thumb_func
 986              		.fpu fpv4-sp-d16
 987              		.type	get_BT_controller_shoot, %function
 988              	get_BT_controller_shoot:
 989              	.LFB266:
 990              		.loc 2 161 0
 991              		.cfi_startproc
 992              		@ args = 0, pretend = 0, frame = 8
 993              		@ frame_needed = 0, uses_anonymous_args = 0
 994 0000 00B5     		push	{lr}
 995              		.cfi_def_cfa_offset 4
 996              		.cfi_offset 14, -4
 997 0002 074B     		ldr	r3, .L123
 998 0004 0749     		ldr	r1, .L123+4
 999 0006 1A68     		ldr	r2, [r3]
 1000 0008 0878     		ldrb	r0, [r1]	@ zero_extendqisi2
 1001 000a 83B0     		sub	sp, sp, #12
 1002              		.cfi_def_cfa_offset 16
 1003              		.loc 2 161 0
 1004 000c 0192     		str	r2, [sp, #4]
 1005 000e 019A     		ldr	r2, [sp, #4]
 1006 0010 1B68     		ldr	r3, [r3]
 1007 0012 9A42     		cmp	r2, r3
 1008 0014 02D1     		bne	.L122
 1009 0016 03B0     		add	sp, sp, #12
 1010              		.cfi_remember_state
 1011              		.cfi_def_cfa_offset 4
 1012              		@ sp needed
 1013 0018 5DF804FB 		ldr	pc, [sp], #4
 1014              	.L122:
 1015              		.cfi_restore_state
 1016 001c FFF7FEFF 		bl	__stack_chk_fail
 1017              	.LVL84:
 1018              	.L124:
 1019              		.align	2
 1020              	.L123:
 1021 0020 00000000 		.word	__stack_chk_guard
 1022 0024 00000000 		.word	.LANCHOR0
 1023              		.cfi_endproc
 1024              	.LFE266:
 1025              		.size	get_BT_controller_shoot, .-get_BT_controller_shoot
 1026              		.section	.text.get_BT_calibrate,"ax",%progbits
ARM GAS  /tmp/ccy9dddG.s 			page 19


 1027              		.align	1
 1028              		.p2align 4,,15
 1029              		.global	get_BT_calibrate
 1030              		.syntax unified
 1031              		.thumb
 1032              		.thumb_func
 1033              		.fpu fpv4-sp-d16
 1034              		.type	get_BT_calibrate, %function
 1035              	get_BT_calibrate:
 1036              	.LFB267:
 1037              		.loc 2 163 0
 1038              		.cfi_startproc
 1039              		@ args = 0, pretend = 0, frame = 8
 1040              		@ frame_needed = 0, uses_anonymous_args = 0
 1041 0000 00B5     		push	{lr}
 1042              		.cfi_def_cfa_offset 4
 1043              		.cfi_offset 14, -4
 1044 0002 074B     		ldr	r3, .L129
 1045 0004 0749     		ldr	r1, .L129+4
 1046 0006 1A68     		ldr	r2, [r3]
 1047 0008 0878     		ldrb	r0, [r1]	@ zero_extendqisi2
 1048 000a 83B0     		sub	sp, sp, #12
 1049              		.cfi_def_cfa_offset 16
 1050              		.loc 2 163 0
 1051 000c 0192     		str	r2, [sp, #4]
 1052 000e 019A     		ldr	r2, [sp, #4]
 1053 0010 1B68     		ldr	r3, [r3]
 1054 0012 9A42     		cmp	r2, r3
 1055 0014 02D1     		bne	.L128
 1056 0016 03B0     		add	sp, sp, #12
 1057              		.cfi_remember_state
 1058              		.cfi_def_cfa_offset 4
 1059              		@ sp needed
 1060 0018 5DF804FB 		ldr	pc, [sp], #4
 1061              	.L128:
 1062              		.cfi_restore_state
 1063 001c FFF7FEFF 		bl	__stack_chk_fail
 1064              	.LVL85:
 1065              	.L130:
 1066              		.align	2
 1067              	.L129:
 1068 0020 00000000 		.word	__stack_chk_guard
 1069 0024 00000000 		.word	.LANCHOR1
 1070              		.cfi_endproc
 1071              	.LFE267:
 1072              		.size	get_BT_calibrate, .-get_BT_calibrate
 1073              		.section	.text.reset_shoot,"ax",%progbits
 1074              		.align	1
 1075              		.p2align 4,,15
 1076              		.global	reset_shoot
 1077              		.syntax unified
 1078              		.thumb
 1079              		.thumb_func
 1080              		.fpu fpv4-sp-d16
 1081              		.type	reset_shoot, %function
 1082              	reset_shoot:
 1083              	.LFB268:
ARM GAS  /tmp/ccy9dddG.s 			page 20


 1084              		.loc 2 165 0
 1085              		.cfi_startproc
 1086              		@ args = 0, pretend = 0, frame = 8
 1087              		@ frame_needed = 0, uses_anonymous_args = 0
 1088 0000 00B5     		push	{lr}
 1089              		.cfi_def_cfa_offset 4
 1090              		.cfi_offset 14, -4
 1091 0002 084B     		ldr	r3, .L135
 1092 0004 0849     		ldr	r1, .L135+4
 1093 0006 1A68     		ldr	r2, [r3]
 1094 0008 83B0     		sub	sp, sp, #12
 1095              		.cfi_def_cfa_offset 16
 1096              		.loc 2 165 0
 1097 000a 0020     		movs	r0, #0
 1098 000c 0192     		str	r2, [sp, #4]
 1099 000e 019A     		ldr	r2, [sp, #4]
 1100 0010 1B68     		ldr	r3, [r3]
 1101 0012 0870     		strb	r0, [r1]
 1102 0014 9A42     		cmp	r2, r3
 1103 0016 02D1     		bne	.L134
 1104 0018 03B0     		add	sp, sp, #12
 1105              		.cfi_remember_state
 1106              		.cfi_def_cfa_offset 4
 1107              		@ sp needed
 1108 001a 5DF804FB 		ldr	pc, [sp], #4
 1109              	.L134:
 1110              		.cfi_restore_state
 1111 001e FFF7FEFF 		bl	__stack_chk_fail
 1112              	.LVL86:
 1113              	.L136:
 1114 0022 00BF     		.align	2
 1115              	.L135:
 1116 0024 00000000 		.word	__stack_chk_guard
 1117 0028 00000000 		.word	.LANCHOR0
 1118              		.cfi_endproc
 1119              	.LFE268:
 1120              		.size	reset_shoot, .-reset_shoot
 1121              		.section	.text.bt_communication_start,"ax",%progbits
 1122              		.align	1
 1123              		.p2align 4,,15
 1124              		.global	bt_communication_start
 1125              		.syntax unified
 1126              		.thumb
 1127              		.thumb_func
 1128              		.fpu fpv4-sp-d16
 1129              		.type	bt_communication_start, %function
 1130              	bt_communication_start:
 1131              	.LFB269:
 1132              		.loc 2 167 0
 1133              		.cfi_startproc
 1134              		@ args = 0, pretend = 0, frame = 8
 1135              		@ frame_needed = 0, uses_anonymous_args = 0
 1136 0000 10B5     		push	{r4, lr}
 1137              		.cfi_def_cfa_offset 8
 1138              		.cfi_offset 4, -8
 1139              		.cfi_offset 14, -4
 1140 0002 0A4C     		ldr	r4, .L141
ARM GAS  /tmp/ccy9dddG.s 			page 21


 1141              		.loc 2 168 0
 1142 0004 0A4B     		ldr	r3, .L141+4
 1143              		.loc 2 167 0
 1144 0006 2268     		ldr	r2, [r4]
 1145              		.loc 2 168 0
 1146 0008 0A48     		ldr	r0, .L141+8
 1147              		.loc 2 167 0
 1148 000a 84B0     		sub	sp, sp, #16
 1149              		.cfi_def_cfa_offset 24
 1150              		.loc 2 168 0
 1151 000c 4FF45E71 		mov	r1, #888
 1152              		.loc 2 167 0
 1153 0010 0392     		str	r2, [sp, #12]
 1154              		.loc 2 168 0
 1155 0012 0022     		movs	r2, #0
 1156 0014 0092     		str	r2, [sp]
 1157 0016 4022     		movs	r2, #64
 1158 0018 FFF7FEFF 		bl	chThdCreateStatic
 1159              	.LVL87:
 1160              		.loc 2 169 0
 1161 001c 039A     		ldr	r2, [sp, #12]
 1162 001e 2368     		ldr	r3, [r4]
 1163 0020 9A42     		cmp	r2, r3
 1164 0022 01D1     		bne	.L140
 1165 0024 04B0     		add	sp, sp, #16
 1166              		.cfi_remember_state
 1167              		.cfi_def_cfa_offset 8
 1168              		@ sp needed
 1169 0026 10BD     		pop	{r4, pc}
 1170              	.L140:
 1171              		.cfi_restore_state
 1172 0028 FFF7FEFF 		bl	__stack_chk_fail
 1173              	.LVL88:
 1174              	.L142:
 1175              		.align	2
 1176              	.L141:
 1177 002c 00000000 		.word	__stack_chk_guard
 1178 0030 00000000 		.word	BluetoothComm
 1179 0034 00000000 		.word	.LANCHOR6
 1180              		.cfi_endproc
 1181              	.LFE269:
 1182              		.size	bt_communication_start, .-bt_communication_start
 1183              		.section	.bss.calibrate,"aw",%nobits
 1184              		.set	.LANCHOR1,. + 0
 1185              		.type	calibrate, %object
 1186              		.size	calibrate, 1
 1187              	calibrate:
 1188 0000 00       		.space	1
 1189              		.section	.bss.ctrl_joystick_polar,"aw",%nobits
 1190              		.align	2
 1191              		.set	.LANCHOR2,. + 0
 1192              		.type	ctrl_joystick_polar, %object
 1193              		.size	ctrl_joystick_polar, 4
 1194              	ctrl_joystick_polar:
 1195 0000 00000000 		.space	4
 1196              		.section	.bss.ctrl_shoot,"aw",%nobits
 1197              		.set	.LANCHOR0,. + 0
ARM GAS  /tmp/ccy9dddG.s 			page 22


 1198              		.type	ctrl_shoot, %object
 1199              		.size	ctrl_shoot, 1
 1200              	ctrl_shoot:
 1201 0000 00       		.space	1
 1202              		.section	.bss.enemy_position,"aw",%nobits
 1203              		.align	2
 1204              		.set	.LANCHOR3,. + 0
 1205              		.type	enemy_position, %object
 1206              		.size	enemy_position, 4
 1207              	enemy_position:
 1208 0000 00000000 		.space	4
 1209              		.section	.bss.incoming_message_bfr.10865,"aw",%nobits
 1210              		.align	2
 1211              		.set	.LANCHOR5,. + 0
 1212              		.type	incoming_message_bfr.10865, %object
 1213              		.size	incoming_message_bfr.10865, 48
 1214              	incoming_message_bfr.10865:
 1215 0000 00000000 		.space	48
 1215      00000000 
 1215      00000000 
 1215      00000000 
 1215      00000000 
 1216              		.section	.bss.waBluetoothComm,"aw",%nobits
 1217              		.align	3
 1218              		.set	.LANCHOR6,. + 0
 1219              		.type	waBluetoothComm, %object
 1220              		.size	waBluetoothComm, 888
 1221              	waBluetoothComm:
 1222 0000 00000000 		.space	888
 1222      00000000 
 1222      00000000 
 1222      00000000 
 1222      00000000 
 1223              		.section	.rodata.__FUNCTION__.10864,"a",%progbits
 1224              		.align	2
 1225              		.set	.LANCHOR4,. + 0
 1226              		.type	__FUNCTION__.10864, %object
 1227              		.size	__FUNCTION__.10864, 14
 1228              	__FUNCTION__.10864:
 1229 0000 426C7565 		.ascii	"BluetoothComm\000"
 1229      746F6F74 
 1229      68436F6D 
 1229      6D00
 1230              		.section	.rodata.chprintf.constprop.1.str1.4,"aMS",%progbits,1
 1231              		.align	2
 1232              	.LC0:
 1233 0000 783A2564 		.ascii	"x:%d y:%d -\000"
 1233      20793A25 
 1233      64202D00 
 1234              		.text
 1235              	.Letext0:
 1236              		.file 4 "/home/taras/Documents/EPFL/Robotique/TP/eclipse/Eclipse_e-puck2/Tools/gcc-arm-none-eabi-7
 1237              		.file 5 "/home/taras/Documents/EPFL/Robotique/TP/eclipse/Eclipse_e-puck2/Tools/gcc-arm-none-eabi-7
 1238              		.file 6 "/home/taras/Documents/EPFL/Robotique/TP/eclipse/Eclipse_e-puck2/Tools/gcc-arm-none-eabi-7
 1239              		.file 7 "../../lib/e-puck2_main-processor/ChibiOS//os/rt/ports/ARMCMx/compilers/GCC/chtypes.h"
 1240              		.file 8 "../../lib/e-puck2_main-processor/ChibiOS//os/rt/include/chsystypes.h"
 1241              		.file 9 "../../lib/e-puck2_main-processor/ChibiOS//os/rt/include/chschd.h"
ARM GAS  /tmp/ccy9dddG.s 			page 23


 1242              		.file 10 "../../lib/e-puck2_main-processor/ChibiOS//os/ext/CMSIS/include/core_cm4.h"
 1243              		.file 11 "../../lib/e-puck2_main-processor/ChibiOS//os/ext/CMSIS/ST/system_stm32f4xx.h"
 1244              		.file 12 "../../lib/e-puck2_main-processor/ChibiOS//os/ext/CMSIS/ST/stm32f407xx.h"
 1245              		.file 13 "../../lib/e-puck2_main-processor/ChibiOS//os/rt/ports/ARMCMx/chcore.h"
 1246              		.file 14 "../../lib/e-puck2_main-processor/ChibiOS//os/rt/ports/ARMCMx/chcore_v7m.h"
 1247              		.file 15 "../../lib/e-puck2_main-processor/ChibiOS//os/rt/include/chdebug.h"
 1248              		.file 16 "../../lib/e-puck2_main-processor/ChibiOS//os/rt/include/chtm.h"
 1249              		.file 17 "../../lib/e-puck2_main-processor/ChibiOS//os/rt/include/chstats.h"
 1250              		.file 18 "../../lib/e-puck2_main-processor/ChibiOS//os/rt/include/chsem.h"
 1251              		.file 19 "../../lib/e-puck2_main-processor/ChibiOS//os/rt/include/chmtx.h"
 1252              		.file 20 "../../lib/e-puck2_main-processor/ChibiOS//os/rt/include/chevents.h"
 1253              		.file 21 "../../lib/e-puck2_main-processor/ChibiOS//os/rt/include/chqueues.h"
 1254              		.file 22 "../../lib/e-puck2_main-processor/ChibiOS//os/rt/include/chstreams.h"
 1255              		.file 23 "../../lib/e-puck2_main-processor/ChibiOS//os/hal/ports/STM32/STM32F4xx/stm32_dma.h"
 1256              		.file 24 "../../lib/e-puck2_main-processor/ChibiOS//os/hal/include/hal_ioblock.h"
 1257              		.file 25 "../../lib/e-puck2_main-processor/ChibiOS//os/hal/ports/STM32/LLD/GPIOv2/pal_lld.h"
 1258              		.file 26 "../../lib/e-puck2_main-processor/ChibiOS//os/hal/include/adc.h"
 1259              		.file 27 "../../lib/e-puck2_main-processor/ChibiOS//os/hal/ports/STM32/STM32F4xx/adc_lld.h"
 1260              		.file 28 "../../lib/e-puck2_main-processor/ChibiOS//os/hal/include/can.h"
 1261              		.file 29 "../../lib/e-puck2_main-processor/ChibiOS//os/hal/ports/STM32/LLD/can_lld.h"
 1262              		.file 30 "../../lib/e-puck2_main-processor/ChibiOS//os/hal/include/dac.h"
 1263              		.file 31 "../../lib/e-puck2_main-processor/ChibiOS//os/hal/ports/STM32/LLD/DACv1/dac_lld.h"
 1264              		.file 32 "../../lib/e-puck2_main-processor/ChibiOS//os/hal/include/ext.h"
 1265              		.file 33 "../../lib/e-puck2_main-processor/ChibiOS//os/hal/ports/STM32/LLD/ext_lld.h"
 1266              		.file 34 "../../lib/e-puck2_main-processor/ChibiOS//os/hal/include/gpt.h"
 1267              		.file 35 "../../lib/e-puck2_main-processor/ChibiOS//os/hal/ports/STM32/LLD/TIMv1/gpt_lld.h"
 1268              		.file 36 "../../lib/e-puck2_main-processor/ChibiOS//os/hal/ports/STM32/LLD/TIMv1/stm32_tim.h"
 1269              		.file 37 "../../lib/e-puck2_main-processor/ChibiOS//os/hal/include/i2c.h"
 1270              		.file 38 "../../lib/e-puck2_main-processor/ChibiOS//os/hal/ports/STM32/LLD/I2Cv1/i2c_lld.h"
 1271              		.file 39 "../../lib/e-puck2_main-processor/ChibiOS//os/hal/include/i2s.h"
 1272              		.file 40 "../../lib/e-puck2_main-processor/ChibiOS//os/hal/ports/STM32/LLD/SPIv1/i2s_lld.h"
 1273              		.file 41 "../../lib/e-puck2_main-processor/ChibiOS//os/hal/include/pwm.h"
 1274              		.file 42 "../../lib/e-puck2_main-processor/ChibiOS//os/hal/ports/STM32/LLD/TIMv1/pwm_lld.h"
 1275              		.file 43 "../../lib/e-puck2_main-processor/ChibiOS//os/hal/include/serial.h"
 1276              		.file 44 "../../lib/e-puck2_main-processor/ChibiOS//os/hal/ports/STM32/LLD/USARTv1/serial_lld.h"
 1277              		.file 45 "../../lib/e-puck2_main-processor/ChibiOS//os/hal/include/sdc.h"
 1278              		.file 46 "../../lib/e-puck2_main-processor/ChibiOS//os/hal/ports/STM32/LLD/sdc_lld.h"
 1279              		.file 47 "../../lib/e-puck2_main-processor/ChibiOS//os/hal/include/spi.h"
 1280              		.file 48 "../../lib/e-puck2_main-processor/ChibiOS//os/hal/ports/STM32/LLD/SPIv1/spi_lld.h"
 1281              		.file 49 "../../lib/e-puck2_main-processor/ChibiOS//os/hal/include/usb.h"
 1282              		.file 50 "../../lib/e-puck2_main-processor/ChibiOS//os/hal/ports/STM32/LLD/OTGv1/usb_lld.h"
 1283              		.file 51 "../../lib/e-puck2_main-processor/ChibiOS//os/hal/ports/STM32/LLD/OTGv1/stm32_otg.h"
 1284              		.file 52 "../../lib/e-puck2_main-processor/ChibiOS//os/hal/include/serial_usb.h"
 1285              		.file 53 "/home/taras/Documents/EPFL/Robotique/TP/eclipse/Eclipse_e-puck2/Tools/gcc-arm-none-eabi-
 1286              		.file 54 "<built-in>"
 1287              		.file 55 "/home/taras/Documents/EPFL/Robotique/TP/eclipse/Eclipse_e-puck2/Tools/gcc-arm-none-eabi-
 1288              		.file 56 "/home/taras/Documents/EPFL/Robotique/TP/eclipse/Eclipse_e-puck2/Tools/gcc-arm-none-eabi-
 1289              		.file 57 "/home/taras/Documents/EPFL/Robotique/TP/eclipse/Eclipse_e-puck2/Tools/gcc-arm-none-eabi-
 1290              		.file 58 "/home/taras/Documents/EPFL/Robotique/TP/eclipse/Eclipse_e-puck2/Tools/gcc-arm-none-eabi-
 1291              		.file 59 "../../lib/e-puck2_main-processor/src/usbcfg.h"
 1292              		.file 60 "../../lib/e-puck2_main-processor/ChibiOS//os/rt/include/chthreads.h"
 1293              		.file 61 "motors_controller.h"
 1294              		.file 62 "/home/taras/Documents/EPFL/Robotique/TP/eclipse/Eclipse_e-puck2/Tools/gcc-arm-none-eabi-