ARM GAS  /tmp/ccUaq9iq.s 			page 1


   1              		.cpu cortex-m4
   2              		.eabi_attribute 27, 1
   3              		.eabi_attribute 28, 1
   4              		.eabi_attribute 20, 1
   5              		.eabi_attribute 21, 1
   6              		.eabi_attribute 23, 3
   7              		.eabi_attribute 24, 1
   8              		.eabi_attribute 25, 1
   9              		.eabi_attribute 26, 1
  10              		.eabi_attribute 30, 2
  11              		.eabi_attribute 34, 1
  12              		.eabi_attribute 18, 4
  13              		.file	"collision_manager.c"
  14              		.text
  15              	.Ltext0:
  16              		.cfi_sections	.debug_frame
  17              		.section	.text.update_IR_sensors,"ax",%progbits
  18              		.align	1
  19              		.p2align 4,,15
  20              		.global	update_IR_sensors
  21              		.syntax unified
  22              		.thumb
  23              		.thumb_func
  24              		.fpu fpv4-sp-d16
  25              		.type	update_IR_sensors, %function
  26              	update_IR_sensors:
  27              	.LFB260:
  28              		.file 1 "collision_manager.c"
  29              		.loc 1 151 0
  30              		.cfi_startproc
  31              		@ args = 0, pretend = 0, frame = 8
  32              		@ frame_needed = 0, uses_anonymous_args = 0
  33              	.LVL0:
  34 0000 F0B5     		push	{r4, r5, r6, r7, lr}
  35              		.cfi_def_cfa_offset 20
  36              		.cfi_offset 4, -20
  37              		.cfi_offset 5, -16
  38              		.cfi_offset 6, -12
  39              		.cfi_offset 7, -8
  40              		.cfi_offset 14, -4
  41 0002 284F     		ldr	r7, .L13
  42 0004 83B0     		sub	sp, sp, #12
  43              		.cfi_def_cfa_offset 32
  44              		.loc 1 151 0
  45 0006 0446     		mov	r4, r0
  46 0008 3B68     		ldr	r3, [r7]
  47 000a 0193     		str	r3, [sp, #4]
  48              		.loc 1 154 0
  49 000c 0220     		movs	r0, #2
  50              	.LVL1:
  51              		.loc 1 151 0
  52 000e 0E46     		mov	r6, r1
  53              		.loc 1 154 0
  54 0010 FFF7FEFF 		bl	get_calibrated_prox
  55              	.LVL2:
  56 0014 6428     		cmp	r0, #100
  57 0016 D4BF     		ite	le
ARM GAS  /tmp/ccUaq9iq.s 			page 2


  58 0018 0020     		movle	r0, #0
  59 001a 0120     		movgt	r0, #1
  60 001c 2070     		strb	r0, [r4]
  61              		.loc 1 155 0
  62 001e 0120     		movs	r0, #1
  63 0020 FFF7FEFF 		bl	get_calibrated_prox
  64              	.LVL3:
  65 0024 6428     		cmp	r0, #100
  66 0026 D4BF     		ite	le
  67 0028 0020     		movle	r0, #0
  68 002a 0120     		movgt	r0, #1
  69 002c 6070     		strb	r0, [r4, #1]
  70              		.loc 1 156 0
  71 002e 0020     		movs	r0, #0
  72 0030 FFF7FEFF 		bl	get_calibrated_prox
  73              	.LVL4:
  74 0034 6428     		cmp	r0, #100
  75 0036 D4BF     		ite	le
  76 0038 0020     		movle	r0, #0
  77 003a 0120     		movgt	r0, #1
  78 003c A070     		strb	r0, [r4, #2]
  79              		.loc 1 157 0
  80 003e 0720     		movs	r0, #7
  81 0040 FFF7FEFF 		bl	get_calibrated_prox
  82              	.LVL5:
  83 0044 6428     		cmp	r0, #100
  84 0046 D4BF     		ite	le
  85 0048 0020     		movle	r0, #0
  86 004a 0120     		movgt	r0, #1
  87 004c E070     		strb	r0, [r4, #3]
  88              		.loc 1 158 0
  89 004e 0620     		movs	r0, #6
  90 0050 FFF7FEFF 		bl	get_calibrated_prox
  91              	.LVL6:
  92 0054 6428     		cmp	r0, #100
  93 0056 D4BF     		ite	le
  94 0058 0020     		movle	r0, #0
  95 005a 0120     		movgt	r0, #1
  96 005c 2071     		strb	r0, [r4, #4]
  97              		.loc 1 159 0
  98 005e 0520     		movs	r0, #5
  99 0060 FFF7FEFF 		bl	get_calibrated_prox
 100              	.LVL7:
 101 0064 6428     		cmp	r0, #100
 102              	.LBB16:
 103              		.loc 1 162 0
 104 0066 4FF00003 		mov	r3, #0
 105              	.LBE16:
 106              		.loc 1 159 0
 107 006a D4BF     		ite	le
 108 006c 0020     		movle	r0, #0
 109 006e 0120     		movgt	r0, #1
 110 0070 6071     		strb	r0, [r4, #5]
 111              	.LVL8:
 112 0072 621E     		subs	r2, r4, #1
 113              		.loc 1 161 0
 114 0074 1D46     		mov	r5, r3
ARM GAS  /tmp/ccUaq9iq.s 			page 3


 115              		.loc 1 160 0
 116 0076 1846     		mov	r0, r3
 117              	.LVL9:
 118              	.L4:
 119              	.LBB17:
 120              		.loc 1 163 0
 121 0078 12F8014F 		ldrb	r4, [r2, #1]!	@ zero_extendqisi2
 122 007c 2CB1     		cbz	r4, .L2
 123              		.loc 1 164 0
 124 007e 0130     		adds	r0, r0, #1
 125              	.LVL10:
 126 0080 C0B2     		uxtb	r0, r0
 127              	.LVL11:
 128              		.loc 1 165 0
 129 0082 05B9     		cbnz	r5, .L3
 130              	.LVL12:
 131              		.loc 1 167 0
 132 0084 3370     		strb	r3, [r6]
 133              	.LVL13:
 134              	.L3:
 135              		.loc 1 169 0
 136 0086 7370     		strb	r3, [r6, #1]
 137 0088 2546     		mov	r5, r4
 138              	.LVL14:
 139              	.L2:
 140              		.loc 1 162 0 discriminator 2
 141 008a 0133     		adds	r3, r3, #1
 142              	.LVL15:
 143 008c DBB2     		uxtb	r3, r3
 144              	.LVL16:
 145 008e 062B     		cmp	r3, #6
 146 0090 F2D1     		bne	.L4
 147              	.LBE17:
 148              		.loc 1 173 0
 149 0092 019A     		ldr	r2, [sp, #4]
 150 0094 3B68     		ldr	r3, [r7]
 151              	.LVL17:
 152 0096 9A42     		cmp	r2, r3
 153 0098 01D1     		bne	.L12
 154 009a 03B0     		add	sp, sp, #12
 155              		.cfi_remember_state
 156              		.cfi_def_cfa_offset 20
 157              		@ sp needed
 158 009c F0BD     		pop	{r4, r5, r6, r7, pc}
 159              	.LVL18:
 160              	.L12:
 161              		.cfi_restore_state
 162 009e FFF7FEFF 		bl	__stack_chk_fail
 163              	.LVL19:
 164              	.L14:
 165 00a2 00BF     		.align	2
 166              	.L13:
 167 00a4 00000000 		.word	__stack_chk_guard
 168              		.cfi_endproc
 169              	.LFE260:
 170              		.size	update_IR_sensors, .-update_IR_sensors
 171              		.section	.text.CollisionManager,"ax",%progbits
ARM GAS  /tmp/ccUaq9iq.s 			page 4


 172              		.align	1
 173              		.p2align 4,,15
 174              		.syntax unified
 175              		.thumb
 176              		.thumb_func
 177              		.fpu fpv4-sp-d16
 178              		.type	CollisionManager, %function
 179              	CollisionManager:
 180              	.LFB259:
 181              		.loc 1 40 0
 182              		.cfi_startproc
 183              		@ args = 0, pretend = 0, frame = 152
 184              		@ frame_needed = 0, uses_anonymous_args = 0
 185              	.LVL20:
 186 0000 2DE9F041 		push	{r4, r5, r6, r7, r8, lr}
 187              		.cfi_def_cfa_offset 24
 188              		.cfi_offset 4, -24
 189              		.cfi_offset 5, -20
 190              		.cfi_offset 6, -16
 191              		.cfi_offset 7, -12
 192              		.cfi_offset 8, -8
 193              		.cfi_offset 14, -4
 194 0004 2DED048B 		vpush.64	{d8, d9}
 195              		.cfi_def_cfa_offset 40
 196              		.cfi_offset 80, -40
 197              		.cfi_offset 81, -36
 198              		.cfi_offset 82, -32
 199              		.cfi_offset 83, -28
 200              	.LBB18:
 201              	.LBB19:
 202              		.file 2 "../../lib/e-puck2_main-processor/ChibiOS//os/rt/include/chregistry.h"
 203              		.loc 2 135 0
 204 0008 D64A     		ldr	r2, .L68
 205              	.LBE19:
 206              	.LBE18:
 207              		.loc 1 40 0
 208 000a D74B     		ldr	r3, .L68+4
 209              	.LBB22:
 210              	.LBB20:
 211              		.loc 2 135 0
 212 000c 9269     		ldr	r2, [r2, #24]
 213 000e D749     		ldr	r1, .L68+8
 214              	.LBE20:
 215              	.LBE22:
 216              		.loc 1 40 0
 217 0010 1B68     		ldr	r3, [r3]
 218              	.LBB23:
 219              	.LBB21:
 220              		.loc 2 135 0
 221 0012 9161     		str	r1, [r2, #24]
 222              	.LBE21:
 223              	.LBE23:
 224              		.loc 1 40 0
 225 0014 A6B0     		sub	sp, sp, #152
 226              		.cfi_def_cfa_offset 192
 227              		.loc 1 45 0
 228 0016 D649     		ldr	r1, .L68+12
ARM GAS  /tmp/ccUaq9iq.s 			page 5


 229 0018 D648     		ldr	r0, .L68+16
 230              	.LVL21:
 231              		.loc 1 40 0
 232 001a 2593     		str	r3, [sp, #148]
 233              		.loc 1 45 0
 234 001c FFF7FEFF 		bl	messagebus_find_topic_blocking
 235              	.LVL22:
 236 0020 0546     		mov	r5, r0
 237              	.LVL23:
 238              		.loc 1 48 0
 239 0022 FFF7FEFF 		bl	calibrate_ir
 240              	.LVL24:
 241              		.loc 1 51 0
 242 0026 0023     		movs	r3, #0
 243 0028 D34E     		ldr	r6, .L68+20
 244 002a D44F     		ldr	r7, .L68+24
 245              		.loc 1 105 0
 246 002c 9FEDD49A 		vldr.32	s18, .L68+28
 247 0030 DFEDD48A 		vldr.32	s17, .L68+32
 248 0034 9FEDD48A 		vldr.32	s16, .L68+36
 249              		.loc 1 51 0
 250 0038 ADF80C30 		strh	r3, [sp, #12]	@ movhi
 251              	.LVL25:
 252 003c 0293     		str	r3, [sp, #8]
 253              		.loc 1 53 0
 254 003e ADF89030 		strh	r3, [sp, #144]	@ movhi
 255              	.LVL26:
 256              		.loc 1 57 0
 257 0042 CDE90033 		strd	r3, r3, [sp]
 258 0046 02E0     		b	.L37
 259              	.LVL27:
 260              	.L17:
 261              		.loc 1 147 0
 262 0048 1420     		movs	r0, #20
 263 004a FFF7FEFF 		bl	chThdSleep
 264              	.LVL28:
 265              	.L37:
 266              		.loc 1 60 0
 267 004e 8022     		movs	r2, #128
 268 0050 04A9     		add	r1, sp, #16
 269 0052 2846     		mov	r0, r5
 270 0054 FFF7FEFF 		bl	messagebus_topic_wait
 271              	.LVL29:
 272              		.loc 1 62 0
 273 0058 FFF7FEFF 		bl	get_position_achieved
 274              	.LVL30:
 275 005c 0446     		mov	r4, r0
 276 005e 0028     		cmp	r0, #0
 277 0060 F2D1     		bne	.L17
 278              		.loc 1 62 0 is_stmt 0 discriminator 1
 279 0062 FFF7FEFF 		bl	get_angle_achieved
 280              	.LVL31:
 281 0066 0028     		cmp	r0, #0
 282 0068 EED0     		beq	.L17
 283              		.loc 1 62 0 discriminator 2
 284 006a 3378     		ldrb	r3, [r6]	@ zero_extendqisi2
 285 006c 002B     		cmp	r3, #0
ARM GAS  /tmp/ccUaq9iq.s 			page 6


 286 006e EBD0     		beq	.L17
 287              		.loc 1 63 0 is_stmt 1
 288 0070 24A9     		add	r1, sp, #144
 289 0072 02A8     		add	r0, sp, #8
 290 0074 FFF7FEFF 		bl	update_IR_sensors
 291              	.LVL32:
 292              		.loc 1 65 0
 293 0078 3B78     		ldrb	r3, [r7]	@ zero_extendqisi2
 294 007a 4BB1     		cbz	r3, .L19
 295 007c 012B     		cmp	r3, #1
 296 007e E3D1     		bne	.L17
 297              		.loc 1 138 0
 298 0080 FFF7FEFF 		bl	get_intermediate_achieved
 299              	.LVL33:
 300 0084 0028     		cmp	r0, #0
 301 0086 DFD0     		beq	.L17
 302              		.loc 1 139 0
 303 0088 FFF7FEFF 		bl	continue_main_obj
 304              	.LVL34:
 305              		.loc 1 140 0
 306 008c 3C70     		strb	r4, [r7]
 307 008e DBE7     		b	.L17
 308              	.LVL35:
 309              	.L19:
 310              		.loc 1 68 0
 311 0090 0128     		cmp	r0, #1
 312 0092 00F0B980 		beq	.L67
 313              		.loc 1 101 0
 314 0096 D7D9     		bls	.L17
 315              		.loc 1 102 0
 316 0098 0228     		cmp	r0, #2
 317 009a 06D1     		bne	.L31
 318              		.loc 1 102 0 is_stmt 0 discriminator 1
 319 009c 9DF89030 		ldrb	r3, [sp, #144]	@ zero_extendqisi2
 320 00a0 1BB9     		cbnz	r3, .L31
 321              		.loc 1 102 0 discriminator 2
 322 00a2 9DF89130 		ldrb	r3, [sp, #145]	@ zero_extendqisi2
 323 00a6 052B     		cmp	r3, #5
 324 00a8 CED0     		beq	.L17
 325              	.L31:
 326              		.loc 1 104 0 is_stmt 1
 327 00aa FFF7FEFF 		bl	get_self_angle
 328              	.LVL36:
 329 00ae 9DF89030 		ldrb	r3, [sp, #144]	@ zero_extendqisi2
 330 00b2 03EBC303 		add	r3, r3, r3, lsl #3
 331 00b6 00EB8303 		add	r3, r0, r3, lsl #2
 332 00ba B43B     		subs	r3, r3, #180
 333 00bc 1CB2     		sxth	r4, r3
 334              	.LVL37:
 335              		.loc 1 105 0
 336 00be FFF7FEFF 		bl	get_self_position
 337              	.LVL38:
 338 00c2 07EE904A 		vmov	s15, r4	@ int
 339 00c6 F8EEE77A 		vcvt.f32.s32	s15, s15
 340 00ca 8046     		mov	r8, r0
 341 00cc 67EE897A 		vmul.f32	s15, s15, s18
 342 00d0 C7EEA89A 		vdiv.f32	s19, s15, s17
ARM GAS  /tmp/ccUaq9iq.s 			page 7


 343 00d4 B0EE690A 		vmov.f32	s0, s19
 344 00d8 FFF7FEFF 		bl	cosf
 345              	.LVL39:
 346 00dc B8F90030 		ldrsh	r3, [r8]
 347 00e0 07EE903A 		vmov	s15, r3	@ int
 348 00e4 F8EEE77A 		vcvt.f32.s32	s15, s15
 349 00e8 E0EE087A 		vfma.f32	s15, s0, s16
 350 00ec FDEEE77A 		vcvt.s32.f32	s15, s15
 351 00f0 17EE903A 		vmov	r3, s15	@ int
 352 00f4 ADF80030 		strh	r3, [sp]	@ movhi
 353              		.loc 1 106 0
 354 00f8 FFF7FEFF 		bl	get_self_position
 355              	.LVL40:
 356 00fc 0446     		mov	r4, r0
 357              	.LVL41:
 358 00fe B0EE690A 		vmov.f32	s0, s19
 359 0102 FFF7FEFF 		bl	sinf
 360              	.LVL42:
 361 0106 B4F90230 		ldrsh	r3, [r4, #2]
 362 010a 07EE903A 		vmov	s15, r3	@ int
 363 010e F8EEE77A 		vcvt.f32.s32	s15, s15
 364 0112 E0EE087A 		vfma.f32	s15, s0, s16
 365 0116 FDEEE77A 		vcvt.s32.f32	s15, s15
 366 011a 17EE903A 		vmov	r3, s15	@ int
 367 011e ADF80230 		strh	r3, [sp, #2]	@ movhi
 368              		.loc 1 108 0
 369 0122 FFF7FEFF 		bl	get_self_angle
 370              	.LVL43:
 371 0126 9DF89130 		ldrb	r3, [sp, #145]	@ zero_extendqisi2
 372 012a 03EBC303 		add	r3, r3, r3, lsl #3
 373 012e 00EB8303 		add	r3, r0, r3, lsl #2
 374 0132 1CB2     		sxth	r4, r3
 375              	.LVL44:
 376              		.loc 1 109 0
 377 0134 FFF7FEFF 		bl	get_self_position
 378              	.LVL45:
 379 0138 07EE904A 		vmov	s15, r4	@ int
 380 013c F8EEE77A 		vcvt.f32.s32	s15, s15
 381 0140 8046     		mov	r8, r0
 382 0142 67EE897A 		vmul.f32	s15, s15, s18
 383 0146 C7EEA89A 		vdiv.f32	s19, s15, s17
 384 014a B0EE690A 		vmov.f32	s0, s19
 385 014e FFF7FEFF 		bl	cosf
 386              	.LVL46:
 387 0152 B8F90030 		ldrsh	r3, [r8]
 388 0156 07EE903A 		vmov	s15, r3	@ int
 389 015a F8EEE77A 		vcvt.f32.s32	s15, s15
 390 015e E0EE087A 		vfma.f32	s15, s0, s16
 391 0162 FDEEE77A 		vcvt.s32.f32	s15, s15
 392 0166 17EE903A 		vmov	r3, s15	@ int
 393 016a ADF80430 		strh	r3, [sp, #4]	@ movhi
 394              		.loc 1 110 0
 395 016e FFF7FEFF 		bl	get_self_position
 396              	.LVL47:
 397 0172 0446     		mov	r4, r0
 398              	.LVL48:
 399 0174 B0EE690A 		vmov.f32	s0, s19
ARM GAS  /tmp/ccUaq9iq.s 			page 8


 400 0178 FFF7FEFF 		bl	sinf
 401              	.LVL49:
 402 017c B4F90230 		ldrsh	r3, [r4, #2]
 403              	.LBB24:
 404              	.LBB25:
 405              		.loc 1 177 0
 406 0180 BDF80020 		ldrh	r2, [sp]
 407              	.LBE25:
 408              	.LBE24:
 409              		.loc 1 110 0
 410 0184 07EE903A 		vmov	s15, r3	@ int
 411 0188 F8EEE77A 		vcvt.f32.s32	s15, s15
 412              	.LBB29:
 413              	.LBB26:
 414              		.loc 1 177 0
 415 018c 293A     		subs	r2, r2, #41
 416              	.LBE26:
 417              	.LBE29:
 418              		.loc 1 110 0
 419 018e E0EE087A 		vfma.f32	s15, s0, s16
 420              	.LBB30:
 421              	.LBB27:
 422              		.loc 1 177 0
 423 0192 92B2     		uxth	r2, r2
 424 0194 40F20620 		movw	r0, #518
 425 0198 8242     		cmp	r2, r0
 426              	.LBE27:
 427              	.LBE30:
 428              		.loc 1 110 0
 429 019a FDEEE77A 		vcvt.s32.f32	s15, s15
 430 019e 17EE903A 		vmov	r3, s15	@ int
 431 01a2 1BB2     		sxth	r3, r3
 432 01a4 ADF80630 		strh	r3, [sp, #6]	@ movhi
 433              	.LVL50:
 434              	.LBB31:
 435              	.LBB28:
 436              		.loc 1 177 0
 437 01a8 18D8     		bhi	.L66
 438 01aa BDF80210 		ldrh	r1, [sp, #2]
 439 01ae BDF80420 		ldrh	r2, [sp, #4]
 440 01b2 2939     		subs	r1, r1, #41
 441 01b4 89B2     		uxth	r1, r1
 442 01b6 40F29634 		movw	r4, #918
 443 01ba 293A     		subs	r2, r2, #41
 444 01bc A142     		cmp	r1, r4
 445 01be 92B2     		uxth	r2, r2
 446 01c0 10D8     		bhi	.L33
 447              	.LVL51:
 448              	.LBE28:
 449              	.LBE31:
 450              	.LBB32:
 451              	.LBB33:
 452 01c2 8242     		cmp	r2, r0
 453 01c4 04D8     		bhi	.L25
 454 01c6 293B     		subs	r3, r3, #41
 455 01c8 9BB2     		uxth	r3, r3
 456 01ca A342     		cmp	r3, r4
ARM GAS  /tmp/ccUaq9iq.s 			page 9


 457 01cc 40F2BC80 		bls	.L64
 458              	.LVL52:
 459              	.L25:
 460              	.LBE33:
 461              	.LBE32:
 462              		.loc 1 89 0
 463 01d0 6846     		mov	r0, sp
 464 01d2 FFF7FEFF 		bl	set_intermediate_point
 465              	.LVL53:
 466              		.loc 1 90 0
 467 01d6 0123     		movs	r3, #1
 468 01d8 3B70     		strb	r3, [r7]
 469 01da 35E7     		b	.L17
 470              	.L66:
 471 01dc BDF80420 		ldrh	r2, [sp, #4]
 472 01e0 293A     		subs	r2, r2, #41
 473 01e2 92B2     		uxth	r2, r2
 474              	.L33:
 475              	.LVL54:
 476              	.LBB34:
 477              	.LBB35:
 478              		.loc 1 177 0
 479 01e4 40F20621 		movw	r1, #518
 480 01e8 8A42     		cmp	r2, r1
 481 01ea 06D8     		bhi	.L36
 482 01ec 293B     		subs	r3, r3, #41
 483 01ee 9BB2     		uxth	r3, r3
 484 01f0 40F29632 		movw	r2, #918
 485 01f4 9342     		cmp	r3, r2
 486 01f6 40F2AE80 		bls	.L30
 487              	.L36:
 488              	.LVL55:
 489              	.LBE35:
 490              	.LBE34:
 491              		.loc 1 130 0
 492 01fa FFF7FEFF 		bl	get_self_angle
 493              	.LVL56:
 494 01fe 0530     		adds	r0, r0, #5
 495 0200 80B2     		uxth	r0, r0
 496 0202 FFF7FEFF 		bl	set_angle_obj
 497              	.LVL57:
 498 0206 1FE7     		b	.L17
 499              	.LVL58:
 500              	.L67:
 501              		.loc 1 69 0
 502 0208 9DF89030 		ldrb	r3, [sp, #144]	@ zero_extendqisi2
 503 020c 002B     		cmp	r3, #0
 504 020e 3FF41BAF 		beq	.L17
 505              		.loc 1 69 0 is_stmt 0 discriminator 1
 506 0212 052B     		cmp	r3, #5
 507 0214 3FF418AF 		beq	.L17
 508              		.loc 1 71 0 is_stmt 1
 509 0218 FFF7FEFF 		bl	get_self_angle
 510              	.LVL59:
 511 021c 9DF89030 		ldrb	r3, [sp, #144]	@ zero_extendqisi2
 512 0220 03EBC303 		add	r3, r3, r3, lsl #3
 513 0224 00EB8303 		add	r3, r0, r3, lsl #2
ARM GAS  /tmp/ccUaq9iq.s 			page 10


 514 0228 1CB2     		sxth	r4, r3
 515              	.LVL60:
 516              		.loc 1 72 0
 517 022a FFF7FEFF 		bl	get_self_position
 518              	.LVL61:
 519 022e 07EE904A 		vmov	s15, r4	@ int
 520 0232 F8EEE77A 		vcvt.f32.s32	s15, s15
 521 0236 8046     		mov	r8, r0
 522 0238 67EE897A 		vmul.f32	s15, s15, s18
 523 023c C7EEA89A 		vdiv.f32	s19, s15, s17
 524 0240 B0EE690A 		vmov.f32	s0, s19
 525 0244 FFF7FEFF 		bl	cosf
 526              	.LVL62:
 527 0248 B8F90030 		ldrsh	r3, [r8]
 528 024c 07EE903A 		vmov	s15, r3	@ int
 529 0250 F8EEE77A 		vcvt.f32.s32	s15, s15
 530 0254 E0EE087A 		vfma.f32	s15, s0, s16
 531 0258 FDEEE77A 		vcvt.s32.f32	s15, s15
 532 025c 17EE903A 		vmov	r3, s15	@ int
 533 0260 ADF80030 		strh	r3, [sp]	@ movhi
 534              		.loc 1 73 0
 535 0264 FFF7FEFF 		bl	get_self_position
 536              	.LVL63:
 537 0268 0446     		mov	r4, r0
 538              	.LVL64:
 539 026a B0EE690A 		vmov.f32	s0, s19
 540 026e FFF7FEFF 		bl	sinf
 541              	.LVL65:
 542 0272 B4F90230 		ldrsh	r3, [r4, #2]
 543 0276 07EE903A 		vmov	s15, r3	@ int
 544 027a F8EEE77A 		vcvt.f32.s32	s15, s15
 545 027e E0EE087A 		vfma.f32	s15, s0, s16
 546 0282 FDEEE77A 		vcvt.s32.f32	s15, s15
 547 0286 17EE903A 		vmov	r3, s15	@ int
 548 028a ADF80230 		strh	r3, [sp, #2]	@ movhi
 549              		.loc 1 75 0
 550 028e FFF7FEFF 		bl	get_self_angle
 551              	.LVL66:
 552 0292 9DF89030 		ldrb	r3, [sp, #144]	@ zero_extendqisi2
 553 0296 03EBC303 		add	r3, r3, r3, lsl #3
 554 029a 00EB8303 		add	r3, r0, r3, lsl #2
 555 029e B43B     		subs	r3, r3, #180
 556 02a0 1CB2     		sxth	r4, r3
 557              	.LVL67:
 558              		.loc 1 76 0
 559 02a2 FFF7FEFF 		bl	get_self_position
 560              	.LVL68:
 561 02a6 07EE904A 		vmov	s15, r4	@ int
 562 02aa F8EEE77A 		vcvt.f32.s32	s15, s15
 563 02ae 8046     		mov	r8, r0
 564 02b0 67EE897A 		vmul.f32	s15, s15, s18
 565 02b4 C7EEA89A 		vdiv.f32	s19, s15, s17
 566 02b8 B0EE690A 		vmov.f32	s0, s19
 567 02bc FFF7FEFF 		bl	cosf
 568              	.LVL69:
 569 02c0 B8F90030 		ldrsh	r3, [r8]
 570 02c4 07EE903A 		vmov	s15, r3	@ int
ARM GAS  /tmp/ccUaq9iq.s 			page 11


 571 02c8 F8EEE77A 		vcvt.f32.s32	s15, s15
 572 02cc E0EE087A 		vfma.f32	s15, s0, s16
 573 02d0 FDEEE77A 		vcvt.s32.f32	s15, s15
 574 02d4 17EE903A 		vmov	r3, s15	@ int
 575 02d8 ADF80430 		strh	r3, [sp, #4]	@ movhi
 576              		.loc 1 77 0
 577 02dc FFF7FEFF 		bl	get_self_position
 578              	.LVL70:
 579 02e0 0446     		mov	r4, r0
 580              	.LVL71:
 581 02e2 B0EE690A 		vmov.f32	s0, s19
 582 02e6 FFF7FEFF 		bl	sinf
 583              	.LVL72:
 584 02ea B4F90230 		ldrsh	r3, [r4, #2]
 585              	.LBB36:
 586              	.LBB37:
 587              		.loc 1 177 0
 588 02ee BDF80020 		ldrh	r2, [sp]
 589              	.LBE37:
 590              	.LBE36:
 591              		.loc 1 77 0
 592 02f2 07EE903A 		vmov	s15, r3	@ int
 593 02f6 F8EEE77A 		vcvt.f32.s32	s15, s15
 594              	.LBB41:
 595              	.LBB38:
 596              		.loc 1 177 0
 597 02fa 293A     		subs	r2, r2, #41
 598              	.LBE38:
 599              	.LBE41:
 600              		.loc 1 77 0
 601 02fc E0EE087A 		vfma.f32	s15, s0, s16
 602              	.LBB42:
 603              	.LBB39:
 604              		.loc 1 177 0
 605 0300 92B2     		uxth	r2, r2
 606 0302 40F20620 		movw	r0, #518
 607 0306 8242     		cmp	r2, r0
 608              	.LBE39:
 609              	.LBE42:
 610              		.loc 1 77 0
 611 0308 FDEEE77A 		vcvt.s32.f32	s15, s15
 612 030c 17EE903A 		vmov	r3, s15	@ int
 613 0310 1BB2     		sxth	r3, r3
 614 0312 ADF80630 		strh	r3, [sp, #6]	@ movhi
 615              	.LVL73:
 616              	.LBB43:
 617              	.LBB40:
 618              		.loc 1 177 0
 619 0316 3FF661AF 		bhi	.L66
 620 031a BDF80210 		ldrh	r1, [sp, #2]
 621 031e BDF80420 		ldrh	r2, [sp, #4]
 622 0322 2939     		subs	r1, r1, #41
 623 0324 89B2     		uxth	r1, r1
 624 0326 40F29634 		movw	r4, #918
 625 032a 293A     		subs	r2, r2, #41
 626 032c A142     		cmp	r1, r4
 627 032e 92B2     		uxth	r2, r2
ARM GAS  /tmp/ccUaq9iq.s 			page 12


 628 0330 3FF658AF 		bhi	.L33
 629              	.LVL74:
 630              	.LBE40:
 631              	.LBE43:
 632              	.LBB44:
 633              	.LBB45:
 634 0334 8242     		cmp	r2, r0
 635 0336 3FF64BAF 		bhi	.L25
 636 033a 293B     		subs	r3, r3, #41
 637 033c 9BB2     		uxth	r3, r3
 638 033e 40F29632 		movw	r2, #918
 639 0342 9342     		cmp	r3, r2
 640 0344 3FF644AF 		bhi	.L25
 641              	.LVL75:
 642              	.L64:
 643              	.LBE45:
 644              	.LBE44:
 645              		.loc 1 114 0
 646 0348 01A9     		add	r1, sp, #4
 647 034a 6846     		mov	r0, sp
 648 034c FFF7FEFF 		bl	closest_point_to_obj
 649              	.LVL76:
 650 0350 0128     		cmp	r0, #1
 651 0352 3FF43DAF 		beq	.L25
 652              	.L30:
 653              		.loc 1 85 0
 654 0356 01A8     		add	r0, sp, #4
 655 0358 FFF7FEFF 		bl	set_intermediate_point
 656              	.LVL77:
 657              		.loc 1 86 0
 658 035c 0123     		movs	r3, #1
 659 035e 3B70     		strb	r3, [r7]
 660 0360 72E6     		b	.L17
 661              	.L69:
 662 0362 00BF     		.align	2
 663              	.L68:
 664 0364 00000000 		.word	ch
 665 0368 00000000 		.word	__stack_chk_guard
 666 036c 00000000 		.word	.LANCHOR0
 667 0370 00000000 		.word	.LC0
 668 0374 00000000 		.word	.LANCHOR1
 669 0378 00000000 		.word	.LANCHOR2
 670 037c 00000000 		.word	.LANCHOR3
 671 0380 DB0F4940 		.word	1078530011
 672 0384 00003443 		.word	1127481344
 673 0388 00002042 		.word	1109393408
 674              		.cfi_endproc
 675              	.LFE259:
 676              		.size	CollisionManager, .-CollisionManager
 677              		.section	.text.intermediate_inside_field,"ax",%progbits
 678              		.align	1
 679              		.p2align 4,,15
 680              		.global	intermediate_inside_field
 681              		.syntax unified
 682              		.thumb
 683              		.thumb_func
 684              		.fpu fpv4-sp-d16
ARM GAS  /tmp/ccUaq9iq.s 			page 13


 685              		.type	intermediate_inside_field, %function
 686              	intermediate_inside_field:
 687              	.LFB261:
 688              		.loc 1 175 0
 689              		.cfi_startproc
 690              		@ args = 0, pretend = 0, frame = 8
 691              		@ frame_needed = 0, uses_anonymous_args = 0
 692              	.LVL78:
 693 0000 00B5     		push	{lr}
 694              		.cfi_def_cfa_offset 4
 695              		.cfi_offset 14, -4
 696 0002 0F4A     		ldr	r2, .L76
 697              		.loc 1 177 0
 698 0004 0388     		ldrh	r3, [r0]
 699              		.loc 1 175 0
 700 0006 1168     		ldr	r1, [r2]
 701 0008 83B0     		sub	sp, sp, #12
 702              		.cfi_def_cfa_offset 16
 703              		.loc 1 177 0
 704 000a 293B     		subs	r3, r3, #41
 705              		.loc 1 175 0
 706 000c 0191     		str	r1, [sp, #4]
 707              		.loc 1 177 0
 708 000e 9BB2     		uxth	r3, r3
 709 0010 40F20621 		movw	r1, #518
 710 0014 8B42     		cmp	r3, r1
 711 0016 0FD8     		bhi	.L73
 712              		.loc 1 177 0 is_stmt 0 discriminator 1
 713 0018 4088     		ldrh	r0, [r0, #2]
 714              	.LVL79:
 715 001a 2938     		subs	r0, r0, #41
 716 001c 80B2     		uxth	r0, r0
 717 001e 40F29633 		movw	r3, #918
 718 0022 9842     		cmp	r0, r3
 719 0024 8CBF     		ite	hi
 720 0026 0020     		movhi	r0, #0
 721 0028 0120     		movls	r0, #1
 722              	.L71:
 723              		.loc 1 182 0 is_stmt 1
 724 002a 0199     		ldr	r1, [sp, #4]
 725 002c 1368     		ldr	r3, [r2]
 726 002e 9942     		cmp	r1, r3
 727 0030 04D1     		bne	.L75
 728 0032 03B0     		add	sp, sp, #12
 729              		.cfi_remember_state
 730              		.cfi_def_cfa_offset 4
 731              		@ sp needed
 732 0034 5DF804FB 		ldr	pc, [sp], #4
 733              	.LVL80:
 734              	.L73:
 735              		.cfi_restore_state
 736              		.loc 1 180 0
 737 0038 0020     		movs	r0, #0
 738              	.LVL81:
 739 003a F6E7     		b	.L71
 740              	.L75:
 741              		.loc 1 182 0
ARM GAS  /tmp/ccUaq9iq.s 			page 14


 742 003c FFF7FEFF 		bl	__stack_chk_fail
 743              	.LVL82:
 744              	.L77:
 745              		.align	2
 746              	.L76:
 747 0040 00000000 		.word	__stack_chk_guard
 748              		.cfi_endproc
 749              	.LFE261:
 750              		.size	intermediate_inside_field, .-intermediate_inside_field
 751              		.section	.text.set_avoid_collision,"ax",%progbits
 752              		.align	1
 753              		.p2align 4,,15
 754              		.global	set_avoid_collision
 755              		.syntax unified
 756              		.thumb
 757              		.thumb_func
 758              		.fpu fpv4-sp-d16
 759              		.type	set_avoid_collision, %function
 760              	set_avoid_collision:
 761              	.LFB262:
 762              		.loc 1 184 0
 763              		.cfi_startproc
 764              		@ args = 0, pretend = 0, frame = 8
 765              		@ frame_needed = 0, uses_anonymous_args = 0
 766              	.LVL83:
 767 0000 00B5     		push	{lr}
 768              		.cfi_def_cfa_offset 4
 769              		.cfi_offset 14, -4
 770 0002 074B     		ldr	r3, .L82
 771              		.loc 1 185 0
 772 0004 0749     		ldr	r1, .L82+4
 773              		.loc 1 184 0
 774 0006 1A68     		ldr	r2, [r3]
 775              		.loc 1 185 0
 776 0008 0870     		strb	r0, [r1]
 777              		.loc 1 184 0
 778 000a 83B0     		sub	sp, sp, #12
 779              		.cfi_def_cfa_offset 16
 780              		.loc 1 184 0
 781 000c 0192     		str	r2, [sp, #4]
 782              		.loc 1 186 0
 783 000e 019A     		ldr	r2, [sp, #4]
 784 0010 1B68     		ldr	r3, [r3]
 785 0012 9A42     		cmp	r2, r3
 786 0014 02D1     		bne	.L81
 787 0016 03B0     		add	sp, sp, #12
 788              		.cfi_remember_state
 789              		.cfi_def_cfa_offset 4
 790              		@ sp needed
 791 0018 5DF804FB 		ldr	pc, [sp], #4
 792              	.L81:
 793              		.cfi_restore_state
 794 001c FFF7FEFF 		bl	__stack_chk_fail
 795              	.LVL84:
 796              	.L83:
 797              		.align	2
 798              	.L82:
ARM GAS  /tmp/ccUaq9iq.s 			page 15


 799 0020 00000000 		.word	__stack_chk_guard
 800 0024 00000000 		.word	.LANCHOR2
 801              		.cfi_endproc
 802              	.LFE262:
 803              		.size	set_avoid_collision, .-set_avoid_collision
 804              		.section	.text.object_right_in_front,"ax",%progbits
 805              		.align	1
 806              		.p2align 4,,15
 807              		.global	object_right_in_front
 808              		.syntax unified
 809              		.thumb
 810              		.thumb_func
 811              		.fpu fpv4-sp-d16
 812              		.type	object_right_in_front, %function
 813              	object_right_in_front:
 814              	.LFB263:
 815              		.loc 1 188 0
 816              		.cfi_startproc
 817              		@ args = 0, pretend = 0, frame = 8
 818              		@ frame_needed = 0, uses_anonymous_args = 0
 819 0000 10B5     		push	{r4, lr}
 820              		.cfi_def_cfa_offset 8
 821              		.cfi_offset 4, -8
 822              		.cfi_offset 14, -4
 823 0002 0D4C     		ldr	r4, .L91
 824 0004 82B0     		sub	sp, sp, #8
 825              		.cfi_def_cfa_offset 16
 826              		.loc 1 188 0
 827 0006 2368     		ldr	r3, [r4]
 828 0008 0193     		str	r3, [sp, #4]
 829              		.loc 1 189 0
 830 000a 0020     		movs	r0, #0
 831 000c FFF7FEFF 		bl	get_calibrated_prox
 832              	.LVL85:
 833 0010 0A28     		cmp	r0, #10
 834 0012 06DC     		bgt	.L89
 835              		.loc 1 192 0
 836 0014 0020     		movs	r0, #0
 837              	.L85:
 838              		.loc 1 194 0
 839 0016 019A     		ldr	r2, [sp, #4]
 840 0018 2368     		ldr	r3, [r4]
 841 001a 9A42     		cmp	r2, r3
 842 001c 09D1     		bne	.L90
 843 001e 02B0     		add	sp, sp, #8
 844              		.cfi_remember_state
 845              		.cfi_def_cfa_offset 8
 846              		@ sp needed
 847 0020 10BD     		pop	{r4, pc}
 848              	.L89:
 849              		.cfi_restore_state
 850              		.loc 1 189 0 discriminator 1
 851 0022 0720     		movs	r0, #7
 852 0024 FFF7FEFF 		bl	get_calibrated_prox
 853              	.LVL86:
 854 0028 0A28     		cmp	r0, #10
 855 002a D4BF     		ite	le
ARM GAS  /tmp/ccUaq9iq.s 			page 16


 856 002c 0020     		movle	r0, #0
 857 002e 0120     		movgt	r0, #1
 858 0030 F1E7     		b	.L85
 859              	.L90:
 860              		.loc 1 194 0
 861 0032 FFF7FEFF 		bl	__stack_chk_fail
 862              	.LVL87:
 863              	.L92:
 864 0036 00BF     		.align	2
 865              	.L91:
 866 0038 00000000 		.word	__stack_chk_guard
 867              		.cfi_endproc
 868              	.LFE263:
 869              		.size	object_right_in_front, .-object_right_in_front
 870              		.section	.text.collision_manager_start,"ax",%progbits
 871              		.align	1
 872              		.p2align 4,,15
 873              		.global	collision_manager_start
 874              		.syntax unified
 875              		.thumb
 876              		.thumb_func
 877              		.fpu fpv4-sp-d16
 878              		.type	collision_manager_start, %function
 879              	collision_manager_start:
 880              	.LFB264:
 881              		.loc 1 196 0
 882              		.cfi_startproc
 883              		@ args = 0, pretend = 0, frame = 8
 884              		@ frame_needed = 0, uses_anonymous_args = 0
 885 0000 10B5     		push	{r4, lr}
 886              		.cfi_def_cfa_offset 8
 887              		.cfi_offset 4, -8
 888              		.cfi_offset 14, -4
 889 0002 0A4C     		ldr	r4, .L97
 890              		.loc 1 197 0
 891 0004 0A4B     		ldr	r3, .L97+4
 892              		.loc 1 196 0
 893 0006 2268     		ldr	r2, [r4]
 894              		.loc 1 197 0
 895 0008 0A48     		ldr	r0, .L97+8
 896              		.loc 1 196 0
 897 000a 84B0     		sub	sp, sp, #16
 898              		.cfi_def_cfa_offset 24
 899              		.loc 1 197 0
 900 000c 4FF45E71 		mov	r1, #888
 901              		.loc 1 196 0
 902 0010 0392     		str	r2, [sp, #12]
 903              		.loc 1 197 0
 904 0012 0022     		movs	r2, #0
 905 0014 0092     		str	r2, [sp]
 906 0016 4122     		movs	r2, #65
 907 0018 FFF7FEFF 		bl	chThdCreateStatic
 908              	.LVL88:
 909              		.loc 1 198 0
 910 001c 039A     		ldr	r2, [sp, #12]
 911 001e 2368     		ldr	r3, [r4]
 912 0020 9A42     		cmp	r2, r3
ARM GAS  /tmp/ccUaq9iq.s 			page 17


 913 0022 01D1     		bne	.L96
 914 0024 04B0     		add	sp, sp, #16
 915              		.cfi_remember_state
 916              		.cfi_def_cfa_offset 8
 917              		@ sp needed
 918 0026 10BD     		pop	{r4, pc}
 919              	.L96:
 920              		.cfi_restore_state
 921 0028 FFF7FEFF 		bl	__stack_chk_fail
 922              	.LVL89:
 923              	.L98:
 924              		.align	2
 925              	.L97:
 926 002c 00000000 		.word	__stack_chk_guard
 927 0030 00000000 		.word	CollisionManager
 928 0034 00000000 		.word	.LANCHOR4
 929              		.cfi_endproc
 930              	.LFE264:
 931              		.size	collision_manager_start, .-collision_manager_start
 932              		.global	bus
 933              		.section	.bss.bus,"aw",%nobits
 934              		.align	2
 935              		.set	.LANCHOR1,. + 0
 936              		.type	bus, %object
 937              		.size	bus, 12
 938              	bus:
 939 0000 00000000 		.space	12
 939      00000000 
 939      00000000 
 940              		.section	.bss.ir_state,"aw",%nobits
 941              		.set	.LANCHOR3,. + 0
 942              		.type	ir_state, %object
 943              		.size	ir_state, 1
 944              	ir_state:
 945 0000 00       		.space	1
 946              		.section	.bss.waCollisionManager,"aw",%nobits
 947              		.align	3
 948              		.set	.LANCHOR4,. + 0
 949              		.type	waCollisionManager, %object
 950              		.size	waCollisionManager, 888
 951              	waCollisionManager:
 952 0000 00000000 		.space	888
 952      00000000 
 952      00000000 
 952      00000000 
 952      00000000 
 953              		.section	.data.avoid_collision,"aw",%progbits
 954              		.set	.LANCHOR2,. + 0
 955              		.type	avoid_collision, %object
 956              		.size	avoid_collision, 1
 957              	avoid_collision:
 958 0000 01       		.byte	1
 959              		.section	.rodata.CollisionManager.str1.4,"aMS",%progbits,1
 960              		.align	2
 961              	.LC0:
 962 0000 2F70726F 		.ascii	"/proximity\000"
 962      78696D69 
ARM GAS  /tmp/ccUaq9iq.s 			page 18


 962      747900
 963              		.section	.rodata.__FUNCTION__.12610,"a",%progbits
 964              		.align	2
 965              		.set	.LANCHOR0,. + 0
 966              		.type	__FUNCTION__.12610, %object
 967              		.size	__FUNCTION__.12610, 17
 968              	__FUNCTION__.12610:
 969 0000 436F6C6C 		.ascii	"CollisionManager\000"
 969      6973696F 
 969      6E4D616E 
 969      61676572 
 969      00
 970              		.text
 971              	.Letext0:
 972              		.file 3 "/home/taras/Documents/EPFL/Robotique/TP/eclipse/Eclipse_e-puck2/Tools/gcc-arm-none-eabi-7
 973              		.file 4 "/home/taras/Documents/EPFL/Robotique/TP/eclipse/Eclipse_e-puck2/Tools/gcc-arm-none-eabi-7
 974              		.file 5 "/home/taras/Documents/EPFL/Robotique/TP/eclipse/Eclipse_e-puck2/Tools/gcc-arm-none-eabi-7
 975              		.file 6 "../../lib/e-puck2_main-processor/ChibiOS//os/rt/ports/ARMCMx/compilers/GCC/chtypes.h"
 976              		.file 7 "../../lib/e-puck2_main-processor/ChibiOS//os/rt/include/chsystypes.h"
 977              		.file 8 "../../lib/e-puck2_main-processor/ChibiOS//os/rt/include/chschd.h"
 978              		.file 9 "../../lib/e-puck2_main-processor/ChibiOS//os/ext/CMSIS/include/core_cm4.h"
 979              		.file 10 "../../lib/e-puck2_main-processor/ChibiOS//os/ext/CMSIS/ST/system_stm32f4xx.h"
 980              		.file 11 "../../lib/e-puck2_main-processor/ChibiOS//os/ext/CMSIS/ST/stm32f407xx.h"
 981              		.file 12 "../../lib/e-puck2_main-processor/ChibiOS//os/rt/ports/ARMCMx/chcore.h"
 982              		.file 13 "../../lib/e-puck2_main-processor/ChibiOS//os/rt/ports/ARMCMx/chcore_v7m.h"
 983              		.file 14 "../../lib/e-puck2_main-processor/ChibiOS//os/rt/include/chdebug.h"
 984              		.file 15 "../../lib/e-puck2_main-processor/ChibiOS//os/rt/include/chtm.h"
 985              		.file 16 "../../lib/e-puck2_main-processor/ChibiOS//os/rt/include/chstats.h"
 986              		.file 17 "../../lib/e-puck2_main-processor/ChibiOS//os/rt/include/chsem.h"
 987              		.file 18 "../../lib/e-puck2_main-processor/ChibiOS//os/rt/include/chmtx.h"
 988              		.file 19 "../../lib/e-puck2_main-processor/ChibiOS//os/rt/include/chevents.h"
 989              		.file 20 "../../lib/e-puck2_main-processor/ChibiOS//os/rt/include/chqueues.h"
 990              		.file 21 "../../lib/e-puck2_main-processor/ChibiOS//os/hal/ports/STM32/STM32F4xx/stm32_dma.h"
 991              		.file 22 "../../lib/e-puck2_main-processor/ChibiOS//os/hal/include/hal_ioblock.h"
 992              		.file 23 "../../lib/e-puck2_main-processor/ChibiOS//os/hal/ports/STM32/LLD/GPIOv2/pal_lld.h"
 993              		.file 24 "../../lib/e-puck2_main-processor/ChibiOS//os/hal/include/adc.h"
 994              		.file 25 "../../lib/e-puck2_main-processor/ChibiOS//os/hal/ports/STM32/STM32F4xx/adc_lld.h"
 995              		.file 26 "../../lib/e-puck2_main-processor/ChibiOS//os/hal/include/can.h"
 996              		.file 27 "../../lib/e-puck2_main-processor/ChibiOS//os/hal/ports/STM32/LLD/can_lld.h"
 997              		.file 28 "../../lib/e-puck2_main-processor/ChibiOS//os/hal/include/dac.h"
 998              		.file 29 "../../lib/e-puck2_main-processor/ChibiOS//os/hal/ports/STM32/LLD/DACv1/dac_lld.h"
 999              		.file 30 "../../lib/e-puck2_main-processor/ChibiOS//os/hal/include/ext.h"
 1000              		.file 31 "../../lib/e-puck2_main-processor/ChibiOS//os/hal/ports/STM32/LLD/ext_lld.h"
 1001              		.file 32 "../../lib/e-puck2_main-processor/ChibiOS//os/hal/include/gpt.h"
 1002              		.file 33 "../../lib/e-puck2_main-processor/ChibiOS//os/hal/ports/STM32/LLD/TIMv1/gpt_lld.h"
 1003              		.file 34 "../../lib/e-puck2_main-processor/ChibiOS//os/hal/ports/STM32/LLD/TIMv1/stm32_tim.h"
 1004              		.file 35 "../../lib/e-puck2_main-processor/ChibiOS//os/hal/include/i2c.h"
 1005              		.file 36 "../../lib/e-puck2_main-processor/ChibiOS//os/hal/ports/STM32/LLD/I2Cv1/i2c_lld.h"
 1006              		.file 37 "../../lib/e-puck2_main-processor/ChibiOS//os/hal/include/i2s.h"
 1007              		.file 38 "../../lib/e-puck2_main-processor/ChibiOS//os/hal/ports/STM32/LLD/SPIv1/i2s_lld.h"
 1008              		.file 39 "../../lib/e-puck2_main-processor/ChibiOS//os/hal/include/pwm.h"
 1009              		.file 40 "../../lib/e-puck2_main-processor/ChibiOS//os/hal/ports/STM32/LLD/TIMv1/pwm_lld.h"
 1010              		.file 41 "../../lib/e-puck2_main-processor/ChibiOS//os/hal/include/serial.h"
 1011              		.file 42 "../../lib/e-puck2_main-processor/ChibiOS//os/hal/ports/STM32/LLD/USARTv1/serial_lld.h"
 1012              		.file 43 "../../lib/e-puck2_main-processor/ChibiOS//os/hal/include/sdc.h"
 1013              		.file 44 "../../lib/e-puck2_main-processor/ChibiOS//os/hal/ports/STM32/LLD/sdc_lld.h"
 1014              		.file 45 "../../lib/e-puck2_main-processor/ChibiOS//os/hal/include/spi.h"
ARM GAS  /tmp/ccUaq9iq.s 			page 19


 1015              		.file 46 "../../lib/e-puck2_main-processor/ChibiOS//os/hal/ports/STM32/LLD/SPIv1/spi_lld.h"
 1016              		.file 47 "../../lib/e-puck2_main-processor/ChibiOS//os/hal/include/usb.h"
 1017              		.file 48 "../../lib/e-puck2_main-processor/ChibiOS//os/hal/ports/STM32/LLD/OTGv1/usb_lld.h"
 1018              		.file 49 "../../lib/e-puck2_main-processor/ChibiOS//os/hal/ports/STM32/LLD/OTGv1/stm32_otg.h"
 1019              		.file 50 "/home/taras/Documents/EPFL/Robotique/TP/eclipse/Eclipse_e-puck2/Tools/gcc-arm-none-eabi-
 1020              		.file 51 "/home/taras/Documents/EPFL/Robotique/TP/eclipse/Eclipse_e-puck2/Tools/gcc-arm-none-eabi-
 1021              		.file 52 "/home/taras/Documents/EPFL/Robotique/TP/eclipse/Eclipse_e-puck2/Tools/gcc-arm-none-eabi-
 1022              		.file 53 "/home/taras/Documents/EPFL/Robotique/TP/eclipse/Eclipse_e-puck2/Tools/gcc-arm-none-eabi-
 1023              		.file 54 "../../lib/e-puck2_main-processor/src/sensors/proximity.h"
 1024              		.file 55 "/home/taras/Documents/EPFL/Robotique/TP/eclipse/Eclipse_e-puck2/Tools/gcc-arm-none-eabi-
 1025              		.file 56 "../../lib/e-puck2_main-processor/src/msgbus/messagebus.h"
 1026              		.file 57 "../../lib/e-puck2_main-processor/ChibiOS_ext/os/hal/include/../ports/STM32/STM32F4xx/dcm
 1027              		.file 58 "../../lib/e-puck2_main-processor/src/parameter/parameter.h"
 1028              		.file 59 "main.h"
 1029              		.file 60 "/home/taras/Documents/EPFL/Robotique/TP/eclipse/Eclipse_e-puck2/Tools/gcc-arm-none-eabi-
 1030              		.file 61 "../../lib/e-puck2_main-processor/ChibiOS//os/rt/include/chthreads.h"
 1031              		.file 62 "./motors_controller.h"