ARM GAS  /tmp/ccQKT6tI.s 			page 1


   1              		.cpu cortex-m4
   2              		.eabi_attribute 27, 1
   3              		.eabi_attribute 28, 1
   4              		.eabi_attribute 20, 1
   5              		.eabi_attribute 21, 1
   6              		.eabi_attribute 23, 3
   7              		.eabi_attribute 24, 1
   8              		.eabi_attribute 25, 1
   9              		.eabi_attribute 26, 1
  10              		.eabi_attribute 30, 2
  11              		.eabi_attribute 34, 1
  12              		.eabi_attribute 18, 4
  13              		.file	"main.c"
  14              		.text
  15              	.Ltext0:
  16              		.cfi_sections	.debug_frame
  17              		.section	.text.__stack_chk_fail,"ax",%progbits
  18              		.align	1
  19              		.p2align 4,,15
  20              		.global	__stack_chk_fail
  21              		.syntax unified
  22              		.thumb
  23              		.thumb_func
  24              		.fpu fpv4-sp-d16
  25              		.type	__stack_chk_fail, %function
  26              	__stack_chk_fail:
  27              	.LFB262:
  28              		.file 1 "main.c"
  29              		.loc 1 154 0
  30              		.cfi_startproc
  31              		@ args = 0, pretend = 0, frame = 8
  32              		@ frame_needed = 0, uses_anonymous_args = 0
  33 0000 00B5     		push	{lr}
  34              		.cfi_def_cfa_offset 4
  35              		.cfi_offset 14, -4
  36 0002 084B     		ldr	r3, .L7
  37 0004 83B0     		sub	sp, sp, #12
  38              		.cfi_def_cfa_offset 16
  39              		.loc 1 154 0
  40 0006 1A68     		ldr	r2, [r3]
  41 0008 0192     		str	r2, [sp, #4]
  42              		.loc 1 155 0
  43 000a 019A     		ldr	r2, [sp, #4]
  44 000c 1B68     		ldr	r3, [r3]
  45 000e 9A42     		cmp	r2, r3
  46 0010 05D1     		bne	.L6
  47 0012 0548     		ldr	r0, .L7+4
  48              		.loc 1 156 0
  49 0014 03B0     		add	sp, sp, #12
  50              		.cfi_remember_state
  51              		.cfi_def_cfa_offset 4
  52              		@ sp needed
  53 0016 5DF804EB 		ldr	lr, [sp], #4
  54              		.cfi_restore 14
  55              		.cfi_def_cfa_offset 0
  56              		.loc 1 155 0
  57 001a FFF7FEBF 		b	chSysHalt
ARM GAS  /tmp/ccQKT6tI.s 			page 2


  58              	.LVL0:
  59              	.L6:
  60              		.cfi_restore_state
  61 001e FFF7FEFF 		bl	__stack_chk_fail
  62              	.LVL1:
  63              	.L8:
  64 0022 00BF     		.align	2
  65              	.L7:
  66 0024 00000000 		.word	__stack_chk_guard
  67 0028 00000000 		.word	.LC1
  68              		.cfi_endproc
  69              	.LFE262:
  70              		.size	__stack_chk_fail, .-__stack_chk_fail
  71              		.section	.text.bt_control,"ax",%progbits
  72              		.align	1
  73              		.p2align 4,,15
  74              		.global	bt_control
  75              		.syntax unified
  76              		.thumb
  77              		.thumb_func
  78              		.fpu fpv4-sp-d16
  79              		.type	bt_control, %function
  80              	bt_control:
  81              	.LFB263:
  82              		.loc 1 158 0
  83              		.cfi_startproc
  84              		@ args = 0, pretend = 0, frame = 8
  85              		@ frame_needed = 0, uses_anonymous_args = 0
  86 0000 10B5     		push	{r4, lr}
  87              		.cfi_def_cfa_offset 8
  88              		.cfi_offset 4, -8
  89              		.cfi_offset 14, -4
  90 0002 124C     		ldr	r4, .L17
  91 0004 82B0     		sub	sp, sp, #8
  92              		.cfi_def_cfa_offset 16
  93              		.loc 1 158 0
  94 0006 2368     		ldr	r3, [r4]
  95 0008 0193     		str	r3, [sp, #4]
  96              		.loc 1 159 0
  97 000a FFF7FEFF 		bl	get_BT_controller_shoot
  98              	.LVL2:
  99 000e 50B9     		cbnz	r0, .L16
 100              		.loc 1 165 0
 101 0010 FFF7FEFF 		bl	get_BT_controller_joystick_polar
 102              	.LVL3:
 103 0014 019A     		ldr	r2, [sp, #4]
 104 0016 2368     		ldr	r3, [r4]
 105 0018 9A42     		cmp	r2, r3
 106 001a 15D1     		bne	.L15
 107              		.loc 1 167 0
 108 001c 02B0     		add	sp, sp, #8
 109              		.cfi_remember_state
 110              		.cfi_def_cfa_offset 8
 111              		@ sp needed
 112 001e BDE81040 		pop	{r4, lr}
 113              		.cfi_restore 14
 114              		.cfi_restore 4
ARM GAS  /tmp/ccQKT6tI.s 			page 3


 115              		.cfi_def_cfa_offset 0
 116              		.loc 1 165 0
 117 0022 FFF7FEBF 		b	control_motors_BT
 118              	.LVL4:
 119              	.L16:
 120              		.cfi_restore_state
 121              	.LBB21:
 122              	.LBB22:
 123              		.loc 1 160 0
 124 0026 FFF7FEFF 		bl	motor_shoot
 125              	.LVL5:
 126              		.loc 1 161 0
 127 002a 4FF42F70 		mov	r0, #700
 128 002e FFF7FEFF 		bl	chThdSleep
 129              	.LVL6:
 130              		.loc 1 162 0
 131 0032 FFF7FEFF 		bl	reset_BT_shoot
 132              	.LVL7:
 133              		.loc 1 163 0
 134 0036 019A     		ldr	r2, [sp, #4]
 135 0038 2368     		ldr	r3, [r4]
 136 003a 9A42     		cmp	r2, r3
 137 003c 04D1     		bne	.L15
 138              	.LBE22:
 139              	.LBE21:
 140              		.loc 1 167 0
 141 003e 02B0     		add	sp, sp, #8
 142              		.cfi_remember_state
 143              		.cfi_def_cfa_offset 8
 144              		@ sp needed
 145 0040 BDE81040 		pop	{r4, lr}
 146              		.cfi_restore 14
 147              		.cfi_restore 4
 148              		.cfi_def_cfa_offset 0
 149              	.LBB24:
 150              	.LBB23:
 151              		.loc 1 163 0
 152 0044 FFF7FEBF 		b	reset_motor_shoot
 153              	.LVL8:
 154              	.L15:
 155              		.cfi_restore_state
 156              	.LBE23:
 157              	.LBE24:
 158              		.loc 1 165 0
 159 0048 FFF7FEFF 		bl	__stack_chk_fail
 160              	.LVL9:
 161              	.L18:
 162              		.align	2
 163              	.L17:
 164 004c 00000000 		.word	__stack_chk_guard
 165              		.cfi_endproc
 166              	.LFE263:
 167              		.size	bt_control, .-bt_control
 168              		.section	.text.keeper_FSM,"ax",%progbits
 169              		.align	1
 170              		.p2align 4,,15
 171              		.global	keeper_FSM
ARM GAS  /tmp/ccQKT6tI.s 			page 4


 172              		.syntax unified
 173              		.thumb
 174              		.thumb_func
 175              		.fpu fpv4-sp-d16
 176              		.type	keeper_FSM, %function
 177              	keeper_FSM:
 178              	.LFB264:
 179              		.loc 1 169 0
 180              		.cfi_startproc
 181              		@ args = 0, pretend = 0, frame = 8
 182              		@ frame_needed = 0, uses_anonymous_args = 0
 183              	.LVL10:
 184 0000 2DE9F041 		push	{r4, r5, r6, r7, r8, lr}
 185              		.cfi_def_cfa_offset 24
 186              		.cfi_offset 4, -24
 187              		.cfi_offset 5, -20
 188              		.cfi_offset 6, -16
 189              		.cfi_offset 7, -12
 190              		.cfi_offset 8, -8
 191              		.cfi_offset 14, -4
 192 0004 2DED028B 		vpush.64	{d8}
 193              		.cfi_def_cfa_offset 32
 194              		.cfi_offset 80, -32
 195              		.cfi_offset 81, -28
 196 0008 CD4C     		ldr	r4, .L82
 197 000a 82B0     		sub	sp, sp, #8
 198              		.cfi_def_cfa_offset 40
 199              		.loc 1 169 0
 200 000c 2368     		ldr	r3, [r4]
 201 000e 0193     		str	r3, [sp, #4]
 202              		.loc 1 174 0
 203 0010 0028     		cmp	r0, #0
 204 0012 40F0AF80 		bne	.L76
 205              		.loc 1 187 0
 206 0016 CB4D     		ldr	r5, .L82+4
 207 0018 2B78     		ldrb	r3, [r5]	@ zero_extendqisi2
 208 001a 042B     		cmp	r3, #4
 209 001c 00F2A080 		bhi	.L19
 210 0020 DFE813F0 		tbh	[pc, r3, lsl #1]
 211              	.L25:
 212 0024 C200     		.2byte	(.L23-.L25)/2
 213 0026 EF00     		.2byte	(.L22-.L25)/2
 214 0028 0500     		.2byte	(.L26-.L25)/2
 215 002a D700     		.2byte	(.L27-.L25)/2
 216 002c CC00     		.2byte	(.L28-.L25)/2
 217              		.p2align 1
 218              	.L26:
 219              		.loc 1 214 0
 220 002e FFF7FEFF 		bl	get_ball_visibility
 221              	.LVL11:
 222 0032 0128     		cmp	r0, #1
 223 0034 00F03181 		beq	.L77
 224              		.loc 1 221 0
 225 0038 FFF7FEFF 		bl	get_ball_visibility
 226              	.LVL12:
 227 003c 0028     		cmp	r0, #0
 228 003e 40F02481 		bne	.L41
ARM GAS  /tmp/ccQKT6tI.s 			page 5


 229              		.loc 1 223 0
 230 0042 FFF7FEFF 		bl	get_ball_movement
 231              	.LVL13:
 232 0046 B0F90230 		ldrsh	r3, [r0, #2]
 233 004a 002B     		cmp	r3, #0
 234 004c 80F28880 		bge	.L19
 235              		.loc 1 223 0 is_stmt 0 discriminator 1
 236 0050 FFF7FEFF 		bl	get_ball_movement
 237              	.LVL14:
 238 0054 B0F90070 		ldrsh	r7, [r0]
 239 0058 FFF7FEFF 		bl	get_ball_movement
 240              	.LVL15:
 241 005c B0F90060 		ldrsh	r6, [r0]
 242 0060 FFF7FEFF 		bl	get_ball_movement
 243              	.LVL16:
 244 0064 B0F90280 		ldrsh	r8, [r0, #2]
 245 0068 FFF7FEFF 		bl	get_ball_movement
 246              	.LVL17:
 247 006c 4388     		ldrh	r3, [r0, #2]
 248 006e 13FB08F3 		smulbb	r3, r3, r8
 249 0072 07FB0636 		mla	r6, r7, r6, r3
 250 0076 082E     		cmp	r6, #8
 251 0078 72DD     		ble	.L19
 252              	.LVL18:
 253              	.LBB25:
 254              		.loc 1 225 0 is_stmt 1
 255 007a FFF7FEFF 		bl	get_ball_position
 256              	.LVL19:
 257 007e B0F90260 		ldrsh	r6, [r0, #2]
 258 0082 FFF7FEFF 		bl	get_ball_movement
 259              	.LVL20:
 260              		.loc 1 226 0
 261 0086 B04B     		ldr	r3, .L82+8
 262              		.loc 1 225 0
 263 0088 B0F90220 		ldrsh	r2, [r0, #2]
 264              		.loc 1 226 0
 265 008c 1B68     		ldr	r3, [r3]
 266 008e 0093     		str	r3, [sp]
 267              		.loc 1 225 0
 268 0090 C6F13206 		rsb	r6, r6, #50
 269 0094 96FBF2F6 		sdiv	r6, r6, r2
 270 0098 07EE906A 		vmov	s15, r6	@ int
 271 009c F8EEE78A 		vcvt.f32.s32	s17, s15
 272              	.LVL21:
 273              		.loc 1 227 0
 274 00a0 FFF7FEFF 		bl	get_ball_position
 275              	.LVL22:
 276 00a4 B0F90030 		ldrsh	r3, [r0]
 277 00a8 07EE903A 		vmov	s15, r3	@ int
 278 00ac B8EEE78A 		vcvt.f32.s32	s16, s15
 279 00b0 FFF7FEFF 		bl	get_ball_movement
 280              	.LVL23:
 281 00b4 B0F90030 		ldrsh	r3, [r0]
 282 00b8 07EE903A 		vmov	s15, r3	@ int
 283 00bc F8EEE77A 		vcvt.f32.s32	s15, s15
 284 00c0 A7EEA88A 		vfma.f32	s16, s15, s17
 285 00c4 FDEEC87A 		vcvt.s32.f32	s15, s16
ARM GAS  /tmp/ccQKT6tI.s 			page 6


 286 00c8 17EE903A 		vmov	r3, s15	@ int
 287 00cc 1EB2     		sxth	r6, r3
 288              		.loc 1 228 0
 289 00ce A6F19703 		sub	r3, r6, #151
 290 00d2 9BB2     		uxth	r3, r3
 291 00d4 B3F5957F 		cmp	r3, #298
 292              		.loc 1 227 0
 293 00d8 ADF80060 		strh	r6, [sp]	@ movhi
 294              		.loc 1 228 0
 295 00dc 40D8     		bhi	.L19
 296              		.loc 1 229 0
 297 00de FFF7FEFF 		bl	get_self_position
 298              	.LVL24:
 299 00e2 B0F90030 		ldrsh	r3, [r0]
 300 00e6 0A33     		adds	r3, r3, #10
 301 00e8 9E42     		cmp	r6, r3
 302 00ea 08DC     		bgt	.L47
 303              		.loc 1 229 0 is_stmt 0 discriminator 1
 304 00ec BDF90060 		ldrsh	r6, [sp]
 305 00f0 FFF7FEFF 		bl	get_self_position
 306              	.LVL25:
 307 00f4 B0F90030 		ldrsh	r3, [r0]
 308 00f8 0A3B     		subs	r3, r3, #10
 309 00fa 9E42     		cmp	r6, r3
 310 00fc 30DA     		bge	.L19
 311              	.L47:
 312              		.loc 1 230 0 is_stmt 1
 313 00fe 6846     		mov	r0, sp
 314 0100 FFF7FEFF 		bl	set_position_obj
 315              	.LVL26:
 316              		.loc 1 231 0
 317 0104 FFF7FEFF 		bl	get_ball_position
 318              	.LVL27:
 319 0108 BDF90220 		ldrsh	r2, [sp, #2]
 320 010c B0F90230 		ldrsh	r3, [r0, #2]
 321 0110 9B1A     		subs	r3, r3, r2
 322 0112 07EE903A 		vmov	s15, r3	@ int
 323 0116 B8EEE78A 		vcvt.f32.s32	s16, s15
 324 011a FFF7FEFF 		bl	get_ball_position
 325              	.LVL28:
 326 011e BDF90020 		ldrsh	r2, [sp]
 327 0122 B0F90030 		ldrsh	r3, [r0]
 328 0126 9B1A     		subs	r3, r3, r2
 329 0128 00EE903A 		vmov	s1, r3	@ int
 330 012c B0EE480A 		vmov.f32	s0, s16
 331 0130 F8EEE00A 		vcvt.f32.s32	s1, s1
 332 0134 FFF7FEFF 		bl	atan2f
 333              	.LVL29:
 334 0138 DFED847A 		vldr.32	s15, .L82+12
 335 013c 9FED847A 		vldr.32	s14, .L82+16
 336 0140 20EE270A 		vmul.f32	s0, s0, s15
 337 0144 C0EE077A 		vdiv.f32	s15, s0, s14
 338 0148 FDEEE77A 		vcvt.s32.f32	s15, s15
 339 014c 17EE903A 		vmov	r3, s15	@ int
 340 0150 1BB2     		sxth	r3, r3
 341              		.loc 1 232 0
 342 0152 002B     		cmp	r3, #0
ARM GAS  /tmp/ccQKT6tI.s 			page 7


 343 0154 C0F2EC80 		blt	.L78
 344              		.loc 1 231 0
 345 0158 7E4A     		ldr	r2, .L82+20
 346 015a 1380     		strh	r3, [r2]	@ movhi
 347              	.L49:
 348              		.loc 1 235 0
 349 015c 0323     		movs	r3, #3
 350 015e 2B70     		strb	r3, [r5]
 351              	.LVL30:
 352              	.L19:
 353              	.LBE25:
 354              		.loc 1 265 0
 355 0160 019A     		ldr	r2, [sp, #4]
 356 0162 2368     		ldr	r3, [r4]
 357 0164 9A42     		cmp	r2, r3
 358 0166 40F0E880 		bne	.L79
 359 016a 02B0     		add	sp, sp, #8
 360              		.cfi_remember_state
 361              		.cfi_def_cfa_offset 32
 362              		@ sp needed
 363 016c BDEC028B 		vldm	sp!, {d8}
 364              		.cfi_restore 80
 365              		.cfi_restore 81
 366              		.cfi_def_cfa_offset 24
 367 0170 BDE8F081 		pop	{r4, r5, r6, r7, r8, pc}
 368              	.LVL31:
 369              	.L76:
 370              		.cfi_restore_state
 371              		.loc 1 175 0
 372 0174 FFF7FEFF 		bl	get_self_position
 373              	.LVL32:
 374 0178 0388     		ldrh	r3, [r0]
 375 017a 962B     		cmp	r3, #150
 376 017c 0AD9     		bls	.L21
 377              		.loc 1 175 0 is_stmt 0 discriminator 1
 378 017e FFF7FEFF 		bl	get_self_position
 379              	.LVL33:
 380 0182 0388     		ldrh	r3, [r0]
 381 0184 B3F5E17F 		cmp	r3, #450
 382 0188 04D2     		bcs	.L21
 383              		.loc 1 176 0 is_stmt 1 discriminator 2
 384 018a FFF7FEFF 		bl	get_self_position
 385              	.LVL34:
 386              		.loc 1 175 0 discriminator 2
 387 018e 4388     		ldrh	r3, [r0, #2]
 388 0190 282B     		cmp	r3, #40
 389 0192 29D8     		bhi	.L80
 390              	.L21:
 391              	.LBB26:
 392              		.loc 1 181 0
 393 0194 6C4B     		ldr	r3, .L82+8
 394              		.loc 1 183 0
 395 0196 6B4D     		ldr	r5, .L82+4
 396              		.loc 1 181 0
 397 0198 1B68     		ldr	r3, [r3]
 398 019a 02A8     		add	r0, sp, #8
 399 019c 40F8083D 		str	r3, [r0, #-8]!
ARM GAS  /tmp/ccQKT6tI.s 			page 8


 400              		.loc 1 182 0
 401 01a0 FFF7FEFF 		bl	set_position_obj
 402              	.LVL35:
 403              		.loc 1 183 0
 404 01a4 0023     		movs	r3, #0
 405 01a6 2B70     		strb	r3, [r5]
 406              	.L23:
 407              	.LBE26:
 408              		.loc 1 189 0
 409 01a8 FFF7FEFF 		bl	get_position_achieved
 410              	.LVL36:
 411 01ac 0028     		cmp	r0, #0
 412 01ae D7D0     		beq	.L19
 413              		.loc 1 190 0
 414 01b0 A020     		movs	r0, #160
 415 01b2 FFF7FEFF 		bl	set_angle_obj
 416              	.LVL37:
 417              		.loc 1 191 0
 418 01b6 0123     		movs	r3, #1
 419 01b8 2B70     		strb	r3, [r5]
 420 01ba D1E7     		b	.L19
 421              	.LVL38:
 422              	.L28:
 423              		.loc 1 253 0
 424 01bc FFF7FEFF 		bl	get_direction_achieved
 425              	.LVL39:
 426 01c0 0028     		cmp	r0, #0
 427 01c2 CDD0     		beq	.L19
 428              		.loc 1 254 0
 429 01c4 FFF7FEFF 		bl	get_ball_visibility
 430              	.LVL40:
 431 01c8 0028     		cmp	r0, #0
 432 01ca 5AD1     		bne	.L50
 433              	.L51:
 434              		.loc 1 255 0
 435 01cc 0223     		movs	r3, #2
 436 01ce 2B70     		strb	r3, [r5]
 437 01d0 C6E7     		b	.L19
 438              	.LVL41:
 439              	.L27:
 440              		.loc 1 246 0
 441 01d2 FFF7FEFF 		bl	get_position_achieved
 442              	.LVL42:
 443 01d6 0028     		cmp	r0, #0
 444 01d8 C2D0     		beq	.L19
 445              		.loc 1 247 0
 446 01da 5E4B     		ldr	r3, .L82+20
 447 01dc 1888     		ldrh	r0, [r3]
 448 01de FFF7FEFF 		bl	set_angle_obj
 449              	.LVL43:
 450              		.loc 1 248 0
 451 01e2 0423     		movs	r3, #4
 452 01e4 2B70     		strb	r3, [r5]
 453 01e6 BBE7     		b	.L19
 454              	.L80:
 455              		.loc 1 176 0
 456 01e8 FFF7FEFF 		bl	get_self_position
ARM GAS  /tmp/ccQKT6tI.s 			page 9


 457              	.LVL44:
 458 01ec 4388     		ldrh	r3, [r0, #2]
 459 01ee 312B     		cmp	r3, #49
 460 01f0 D0D8     		bhi	.L21
 461              		.loc 1 177 0
 462 01f2 A020     		movs	r0, #160
 463 01f4 FFF7FEFF 		bl	set_angle_obj
 464              	.LVL45:
 465              		.loc 1 179 0
 466 01f8 524D     		ldr	r5, .L82+4
 467              		.loc 1 178 0
 468 01fa 574A     		ldr	r2, .L82+24
 469 01fc 0123     		movs	r3, #1
 470 01fe 1370     		strb	r3, [r2]
 471              		.loc 1 179 0
 472 0200 2B70     		strb	r3, [r5]
 473              	.L22:
 474              		.loc 1 196 0
 475 0202 FFF7FEFF 		bl	get_ball_visibility
 476              	.LVL46:
 477 0206 18B1     		cbz	r0, .L33
 478              		.loc 1 196 0 is_stmt 0 discriminator 1
 479 0208 FFF7FEFF 		bl	get_ball_visibility
 480              	.LVL47:
 481 020c 0128     		cmp	r0, #1
 482 020e 7BD1     		bne	.L81
 483              	.L33:
 484              	.LVL48:
 485              	.LBB27:
 486              		.loc 1 198 0 is_stmt 1
 487 0210 FFF7FEFF 		bl	get_ball_position
 488              	.LVL49:
 489 0214 B0F90260 		ldrsh	r6, [r0, #2]
 490 0218 FFF7FEFF 		bl	get_self_position
 491              	.LVL50:
 492 021c B0F90230 		ldrsh	r3, [r0, #2]
 493 0220 F61A     		subs	r6, r6, r3
 494 0222 07EE906A 		vmov	s15, r6	@ int
 495 0226 B8EEE78A 		vcvt.f32.s32	s16, s15
 496 022a FFF7FEFF 		bl	get_ball_position
 497              	.LVL51:
 498 022e B0F90060 		ldrsh	r6, [r0]
 499 0232 FFF7FEFF 		bl	get_self_position
 500              	.LVL52:
 501 0236 B0F90230 		ldrsh	r3, [r0, #2]
 502 023a F31A     		subs	r3, r6, r3
 503 023c 00EE903A 		vmov	s1, r3	@ int
 504 0240 B0EE480A 		vmov.f32	s0, s16
 505 0244 F8EEE00A 		vcvt.f32.s32	s1, s1
 506 0248 FFF7FEFF 		bl	atan2f
 507              	.LVL53:
 508 024c DFED3F7A 		vldr.32	s15, .L82+12
 509 0250 9FED3F7A 		vldr.32	s14, .L82+16
 510 0254 20EE270A 		vmul.f32	s0, s0, s15
 511 0258 C0EE077A 		vdiv.f32	s15, s0, s14
 512              	.LVL54:
 513              		.loc 1 199 0
ARM GAS  /tmp/ccQKT6tI.s 			page 10


 514 025c F5EEC07A 		vcmpe.f32	s15, #0
 515 0260 F1EE10FA 		vmrs	APSR_nzcv, FPSCR
 516 0264 03D5     		bpl	.L32
 517              		.loc 1 200 0
 518 0266 9FED3D7A 		vldr.32	s14, .L82+28
 519 026a 77EE877A 		vadd.f32	s15, s15, s14
 520              	.LVL55:
 521              	.L32:
 522              		.loc 1 202 0
 523 026e FCEEE77A 		vcvt.u32.f32	s15, s15
 524              	.LVL56:
 525 0272 17EE903A 		vmov	r3, s15	@ int
 526 0276 98B2     		uxth	r0, r3
 527 0278 FFF7FEFF 		bl	set_angle_obj
 528              	.LVL57:
 529              		.loc 1 203 0
 530 027c 0223     		movs	r3, #2
 531 027e 2B70     		strb	r3, [r5]
 532              	.LBE27:
 533              		.loc 1 196 0
 534 0280 6EE7     		b	.L19
 535              	.L50:
 536              		.loc 1 254 0 discriminator 1
 537 0282 FFF7FEFF 		bl	get_ball_visibility
 538              	.LVL58:
 539 0286 0128     		cmp	r0, #1
 540 0288 A0D0     		beq	.L51
 541              	.L41:
 542              		.loc 1 240 0
 543 028a FFF7FEFF 		bl	get_ball_visibility
 544              	.LVL59:
 545 028e 0228     		cmp	r0, #2
 546 0290 7FF466AF 		bne	.L19
 547              		.loc 1 241 0
 548 0294 0123     		movs	r3, #1
 549 0296 2B70     		strb	r3, [r5]
 550 0298 62E7     		b	.L19
 551              	.L77:
 552              	.LVL60:
 553              	.LBB28:
 554              		.loc 1 216 0
 555 029a FFF7FEFF 		bl	get_ball_position
 556              	.LVL61:
 557 029e B0F90250 		ldrsh	r5, [r0, #2]
 558 02a2 FFF7FEFF 		bl	get_self_position
 559              	.LVL62:
 560 02a6 B0F90230 		ldrsh	r3, [r0, #2]
 561 02aa ED1A     		subs	r5, r5, r3
 562 02ac 07EE905A 		vmov	s15, r5	@ int
 563 02b0 B8EEE78A 		vcvt.f32.s32	s16, s15
 564 02b4 FFF7FEFF 		bl	get_ball_position
 565              	.LVL63:
 566 02b8 B0F90050 		ldrsh	r5, [r0]
 567 02bc FFF7FEFF 		bl	get_self_position
 568              	.LVL64:
 569 02c0 B0F90030 		ldrsh	r3, [r0]
 570 02c4 EB1A     		subs	r3, r5, r3
ARM GAS  /tmp/ccQKT6tI.s 			page 11


 571 02c6 00EE903A 		vmov	s1, r3	@ int
 572 02ca B0EE480A 		vmov.f32	s0, s16
 573 02ce F8EEE00A 		vcvt.f32.s32	s1, s1
 574 02d2 FFF7FEFF 		bl	atan2f
 575              	.LVL65:
 576 02d6 DFED1D7A 		vldr.32	s15, .L82+12
 577 02da 9FED1D7A 		vldr.32	s14, .L82+16
 578 02de 20EE270A 		vmul.f32	s0, s0, s15
 579 02e2 C0EE077A 		vdiv.f32	s15, s0, s14
 580              	.LVL66:
 581              		.loc 1 217 0
 582 02e6 F5EEC07A 		vcmpe.f32	s15, #0
 583 02ea F1EE10FA 		vmrs	APSR_nzcv, FPSCR
 584              		.loc 1 218 0
 585 02ee 44BF     		itt	mi
 586 02f0 9FED1A7A 		vldrmi.32	s14, .L82+28
 587 02f4 77EE877A 		vaddmi.f32	s15, s15, s14
 588              	.LVL67:
 589              		.loc 1 220 0
 590 02f8 FCEEE77A 		vcvt.u32.f32	s15, s15
 591              	.LVL68:
 592 02fc 17EE903A 		vmov	r3, s15	@ int
 593 0300 98B2     		uxth	r0, r3
 594 0302 FFF7FEFF 		bl	set_angle_obj
 595              	.LVL69:
 596              	.LBE28:
 597 0306 2BE7     		b	.L19
 598              	.L81:
 599              		.loc 1 205 0
 600 0308 FFF7FEFF 		bl	get_direction_achieved
 601              	.LVL70:
 602 030c 0028     		cmp	r0, #0
 603 030e 3FF427AF 		beq	.L19
 604              		.loc 1 207 0
 605 0312 114D     		ldr	r5, .L82+24
 606 0314 2B78     		ldrb	r3, [r5]	@ zero_extendqisi2
 607 0316 3BB1     		cbz	r3, .L36
 608              		.loc 1 207 0 is_stmt 0 discriminator 1
 609 0318 1420     		movs	r0, #20
 610 031a FFF7FEFF 		bl	set_angle_obj
 611              	.LVL71:
 612              	.L37:
 613              		.loc 1 208 0 is_stmt 1
 614 031e 2B78     		ldrb	r3, [r5]	@ zero_extendqisi2
 615 0320 83F00103 		eor	r3, r3, #1
 616 0324 2B70     		strb	r3, [r5]
 617 0326 1BE7     		b	.L19
 618              	.L36:
 619              		.loc 1 207 0 discriminator 2
 620 0328 A020     		movs	r0, #160
 621 032a FFF7FEFF 		bl	set_angle_obj
 622              	.LVL72:
 623 032e F6E7     		b	.L37
 624              	.LVL73:
 625              	.L78:
 626              	.LBB29:
 627              		.loc 1 233 0
ARM GAS  /tmp/ccQKT6tI.s 			page 12


 628 0330 084A     		ldr	r2, .L82+20
 629 0332 03F5B473 		add	r3, r3, #360
 630 0336 1380     		strh	r3, [r2]	@ movhi
 631 0338 10E7     		b	.L49
 632              	.LVL74:
 633              	.L79:
 634              	.LBE29:
 635              		.loc 1 265 0
 636 033a FFF7FEFF 		bl	__stack_chk_fail
 637              	.LVL75:
 638              	.L83:
 639 033e 00BF     		.align	2
 640              	.L82:
 641 0340 00000000 		.word	__stack_chk_guard
 642 0344 00000000 		.word	.LANCHOR1
 643 0348 00000000 		.word	.LANCHOR2
 644 034c 00003443 		.word	1127481344
 645 0350 DB0F4940 		.word	1078530011
 646 0354 00000000 		.word	.LANCHOR3
 647 0358 00000000 		.word	.LANCHOR0
 648 035c 0000B443 		.word	1135869952
 649              		.cfi_endproc
 650              	.LFE264:
 651              		.size	keeper_FSM, .-keeper_FSM
 652              		.section	.text.attack_FSM,"ax",%progbits
 653              		.align	1
 654              		.p2align 4,,15
 655              		.global	attack_FSM
 656              		.syntax unified
 657              		.thumb
 658              		.thumb_func
 659              		.fpu fpv4-sp-d16
 660              		.type	attack_FSM, %function
 661              	attack_FSM:
 662              	.LFB265:
 663              		.loc 1 267 0
 664              		.cfi_startproc
 665              		@ args = 0, pretend = 0, frame = 8
 666              		@ frame_needed = 0, uses_anonymous_args = 0
 667              	.LVL76:
 668 0000 2DE9F041 		push	{r4, r5, r6, r7, r8, lr}
 669              		.cfi_def_cfa_offset 24
 670              		.cfi_offset 4, -24
 671              		.cfi_offset 5, -20
 672              		.cfi_offset 6, -16
 673              		.cfi_offset 7, -12
 674              		.cfi_offset 8, -8
 675              		.cfi_offset 14, -4
 676 0004 2DED048B 		vpush.64	{d8, d9}
 677              		.cfi_def_cfa_offset 40
 678              		.cfi_offset 80, -40
 679              		.cfi_offset 81, -36
 680              		.cfi_offset 82, -32
 681              		.cfi_offset 83, -28
 682 0008 C54D     		ldr	r5, .L135
 683 000a 82B0     		sub	sp, sp, #8
 684              		.cfi_def_cfa_offset 48
ARM GAS  /tmp/ccQKT6tI.s 			page 13


 685              		.loc 1 267 0
 686 000c 2B68     		ldr	r3, [r5]
 687 000e 0193     		str	r3, [sp, #4]
 688              		.loc 1 270 0
 689 0010 0028     		cmp	r0, #0
 690 0012 40F0BE80 		bne	.L85
 691 0016 C34C     		ldr	r4, .L135+4
 692 0018 2178     		ldrb	r1, [r4]	@ zero_extendqisi2
 693 001a B1FA81F1 		clz	r1, r1
 694 001e 4909     		lsrs	r1, r1, #5
 695              	.LVL77:
 696              	.L86:
 697              		.loc 1 280 0
 698 0020 0020     		movs	r0, #0
 699 0022 FFF7FEFF 		bl	set_led
 700              	.LVL78:
 701              		.loc 1 281 0
 702 0026 2178     		ldrb	r1, [r4]	@ zero_extendqisi2
 703 0028 0120     		movs	r0, #1
 704 002a 091A     		subs	r1, r1, r0
 705 002c B1FA81F1 		clz	r1, r1
 706 0030 4909     		lsrs	r1, r1, #5
 707 0032 FFF7FEFF 		bl	set_led
 708              	.LVL79:
 709              		.loc 1 282 0
 710 0036 2178     		ldrb	r1, [r4]	@ zero_extendqisi2
 711 0038 0220     		movs	r0, #2
 712 003a 091A     		subs	r1, r1, r0
 713 003c B1FA81F1 		clz	r1, r1
 714 0040 4909     		lsrs	r1, r1, #5
 715 0042 FFF7FEFF 		bl	set_led
 716              	.LVL80:
 717              		.loc 1 283 0
 718 0046 2178     		ldrb	r1, [r4]	@ zero_extendqisi2
 719 0048 0320     		movs	r0, #3
 720 004a 091A     		subs	r1, r1, r0
 721 004c B1FA81F1 		clz	r1, r1
 722 0050 4909     		lsrs	r1, r1, #5
 723 0052 FFF7FEFF 		bl	set_led
 724              	.LVL81:
 725              		.loc 1 285 0
 726 0056 2378     		ldrb	r3, [r4]	@ zero_extendqisi2
 727 0058 042B     		cmp	r3, #4
 728 005a 00F29080 		bhi	.L84
 729 005e DFE813F0 		tbh	[pc, r3, lsl #1]
 730              	.L89:
 731 0062 AD00     		.2byte	(.L88-.L89)/2
 732 0064 0500     		.2byte	(.L90-.L89)/2
 733 0066 ED00     		.2byte	(.L91-.L89)/2
 734 0068 F800     		.2byte	(.L92-.L89)/2
 735 006a A200     		.2byte	(.L93-.L89)/2
 736              		.p2align 1
 737              	.L90:
 738              		.loc 1 299 0
 739 006c FFF7FEFF 		bl	get_ball_visibility
 740              	.LVL82:
 741 0070 0028     		cmp	r0, #0
ARM GAS  /tmp/ccQKT6tI.s 			page 14


 742 0072 40F00781 		bne	.L98
 743              		.loc 1 301 0
 744 0076 FFF7FEFF 		bl	get_ball_position
 745              	.LVL83:
 746 007a B0F90230 		ldrsh	r3, [r0, #2]
 747              		.loc 1 303 0
 748 007e AA4E     		ldr	r6, .L135+8
 749              		.loc 1 306 0
 750 0080 9FEDAD9A 		vldr.32	s18, .L135+24
 751 0084 DFEDAB8A 		vldr.32	s17, .L135+20
 752 0088 A84F     		ldr	r7, .L135+12
 753              		.loc 1 301 0
 754 008a C3F57A73 		rsb	r3, r3, #1000
 755 008e 07EE903A 		vmov	s15, r3	@ int
 756 0092 B8EEE78A 		vcvt.f32.s32	s16, s15
 757 0096 FFF7FEFF 		bl	get_ball_position
 758              	.LVL84:
 759 009a B0F90030 		ldrsh	r3, [r0]
 760 009e C3F59673 		rsb	r3, r3, #300
 761 00a2 00EE903A 		vmov	s1, r3	@ int
 762 00a6 B0EE480A 		vmov.f32	s0, s16
 763 00aa F8EEE00A 		vcvt.f32.s32	s1, s1
 764 00ae FFF7FEFF 		bl	atan2f
 765              	.LVL85:
 766 00b2 DFEDA07A 		vldr.32	s15, .L135+20
 767 00b6 9FEDA07A 		vldr.32	s14, .L135+24
 768              		.loc 1 306 0
 769 00ba 9FED9D8A 		vldr.32	s16, .L135+16
 770              		.loc 1 301 0
 771 00be 20EE270A 		vmul.f32	s0, s0, s15
 772 00c2 C0EE077A 		vdiv.f32	s15, s0, s14
 773 00c6 FDEEE77A 		vcvt.s32.f32	s15, s15
 774 00ca 17EE903A 		vmov	r3, s15	@ int
 775 00ce 1BB2     		sxth	r3, r3
 776              		.loc 1 302 0
 777 00d0 002B     		cmp	r3, #0
 778              		.loc 1 303 0
 779 00d2 B8BF     		it	lt
 780 00d4 03F5B473 		addlt	r3, r3, #360
 781 00d8 3380     		strh	r3, [r6]	@ movhi
 782              		.loc 1 306 0
 783 00da FFF7FEFF 		bl	get_ball_position
 784              	.LVL86:
 785 00de B6F90030 		ldrsh	r3, [r6]
 786 00e2 00EE103A 		vmov	s0, r3	@ int
 787 00e6 B8EEC00A 		vcvt.f32.s32	s0, s0
 788 00ea 8046     		mov	r8, r0
 789 00ec 20EE090A 		vmul.f32	s0, s0, s18
 790 00f0 80EE280A 		vdiv.f32	s0, s0, s17
 791 00f4 FFF7FEFF 		bl	cosf
 792              	.LVL87:
 793 00f8 B8F90030 		ldrsh	r3, [r8]
 794 00fc 07EE903A 		vmov	s15, r3	@ int
 795 0100 F8EEE77A 		vcvt.f32.s32	s15, s15
 796 0104 E0EE487A 		vfms.f32	s15, s0, s16
 797 0108 FDEEE77A 		vcvt.s32.f32	s15, s15
 798 010c 17EE903A 		vmov	r3, s15	@ int
ARM GAS  /tmp/ccQKT6tI.s 			page 15


 799 0110 3B80     		strh	r3, [r7]	@ movhi
 800              		.loc 1 307 0
 801 0112 FFF7FEFF 		bl	get_ball_position
 802              	.LVL88:
 803 0116 B6F90030 		ldrsh	r3, [r6]
 804 011a 00EE103A 		vmov	s0, r3	@ int
 805 011e B8EEC00A 		vcvt.f32.s32	s0, s0
 806 0122 8046     		mov	r8, r0
 807 0124 20EE090A 		vmul.f32	s0, s0, s18
 808 0128 80EE280A 		vdiv.f32	s0, s0, s17
 809 012c FFF7FEFF 		bl	sinf
 810              	.LVL89:
 811 0130 B8F90230 		ldrsh	r3, [r8, #2]
 812              		.loc 1 309 0
 813 0134 B7F90020 		ldrsh	r2, [r7]
 814 0138 282A     		cmp	r2, #40
 815              		.loc 1 307 0
 816 013a 07EE903A 		vmov	s15, r3	@ int
 817 013e F8EEE77A 		vcvt.f32.s32	s15, s15
 818 0142 E0EE487A 		vfms.f32	s15, s0, s16
 819 0146 FDEEE77A 		vcvt.s32.f32	s15, s15
 820 014a 17EE903A 		vmov	r3, s15	@ int
 821 014e 1BB2     		sxth	r3, r3
 822 0150 7B80     		strh	r3, [r7, #2]	@ movhi
 823              		.loc 1 309 0
 824 0152 40F3DF80 		ble	.L133
 825              		.loc 1 312 0
 826 0156 B2F50C7F 		cmp	r2, #560
 827 015a 04DB     		blt	.L102
 828              		.loc 1 313 0
 829 015c 4FF40C71 		mov	r1, #560
 830              		.loc 1 314 0
 831 0160 5A22     		movs	r2, #90
 832              		.loc 1 313 0
 833 0162 3980     		strh	r1, [r7]	@ movhi
 834              		.loc 1 314 0
 835 0164 3280     		strh	r2, [r6]	@ movhi
 836              	.L102:
 837              		.loc 1 316 0
 838 0166 282B     		cmp	r3, #40
 839 0168 00F32381 		bgt	.L103
 840              		.loc 1 317 0
 841 016c 2822     		movs	r2, #40
 842              		.loc 1 318 0
 843 016e 0023     		movs	r3, #0
 844              		.loc 1 317 0
 845 0170 7A80     		strh	r2, [r7, #2]	@ movhi
 846              		.loc 1 318 0
 847 0172 3380     		strh	r3, [r6]	@ movhi
 848              	.L104:
 849              		.loc 1 323 0
 850 0174 6D48     		ldr	r0, .L135+12
 851 0176 FFF7FEFF 		bl	set_position_obj
 852              	.LVL90:
 853              		.loc 1 324 0
 854 017a 0223     		movs	r3, #2
 855 017c 2370     		strb	r3, [r4]
ARM GAS  /tmp/ccQKT6tI.s 			page 16


 856              	.L84:
 857              		.loc 1 376 0
 858 017e 019A     		ldr	r2, [sp, #4]
 859 0180 2B68     		ldr	r3, [r5]
 860 0182 9A42     		cmp	r2, r3
 861 0184 40F01F81 		bne	.L132
 862 0188 02B0     		add	sp, sp, #8
 863              		.cfi_remember_state
 864              		.cfi_def_cfa_offset 40
 865              		@ sp needed
 866 018a BDEC048B 		vldm	sp!, {d8-d9}
 867              		.cfi_restore 82
 868              		.cfi_restore 83
 869              		.cfi_restore 80
 870              		.cfi_restore 81
 871              		.cfi_def_cfa_offset 24
 872 018e BDE8F081 		pop	{r4, r5, r6, r7, r8, pc}
 873              	.LVL91:
 874              	.L85:
 875              		.cfi_restore_state
 876              		.loc 1 271 0
 877 0192 0021     		movs	r1, #0
 878 0194 4FF45C70 		mov	r0, #880
 879              	.LVL92:
 880              		.loc 1 272 0
 881 0198 624C     		ldr	r4, .L135+4
 882              		.loc 1 271 0
 883 019a FFF7FEFF 		bl	set_rotation_speed
 884              	.LVL93:
 885              		.loc 1 272 0
 886 019e 0023     		movs	r3, #0
 887 01a0 2370     		strb	r3, [r4]
 888 01a2 0121     		movs	r1, #1
 889 01a4 3CE7     		b	.L86
 890              	.L93:
 891              		.loc 1 368 0
 892 01a6 FFF7FEFF 		bl	motor_shoot
 893              	.LVL94:
 894              		.loc 1 369 0
 895 01aa 4FF46170 		mov	r0, #900
 896 01ae FFF7FEFF 		bl	chThdSleep
 897              	.LVL95:
 898              		.loc 1 370 0
 899 01b2 FFF7FEFF 		bl	reset_motor_shoot
 900              	.LVL96:
 901              		.loc 1 371 0
 902 01b6 0123     		movs	r3, #1
 903 01b8 2370     		strb	r3, [r4]
 904              		.loc 1 376 0
 905 01ba E0E7     		b	.L84
 906              	.L88:
 907              		.loc 1 287 0
 908 01bc FFF7FEFF 		bl	get_ball_visibility
 909              	.LVL97:
 910 01c0 18B1     		cbz	r0, .L97
 911              		.loc 1 287 0 is_stmt 0 discriminator 1
 912 01c2 FFF7FEFF 		bl	get_ball_visibility
ARM GAS  /tmp/ccQKT6tI.s 			page 17


 913              	.LVL98:
 914 01c6 0128     		cmp	r0, #1
 915 01c8 D9D1     		bne	.L84
 916              	.L97:
 917              	.LVL99:
 918              	.LBB30:
 919              		.loc 1 289 0 is_stmt 1
 920 01ca FFF7FEFF 		bl	get_ball_position
 921              	.LVL100:
 922 01ce B0F90260 		ldrsh	r6, [r0, #2]
 923 01d2 FFF7FEFF 		bl	get_self_position
 924              	.LVL101:
 925 01d6 B0F90230 		ldrsh	r3, [r0, #2]
 926 01da F61A     		subs	r6, r6, r3
 927 01dc 07EE906A 		vmov	s15, r6	@ int
 928 01e0 B8EEE78A 		vcvt.f32.s32	s16, s15
 929 01e4 FFF7FEFF 		bl	get_ball_position
 930              	.LVL102:
 931 01e8 B0F90060 		ldrsh	r6, [r0]
 932 01ec FFF7FEFF 		bl	get_self_position
 933              	.LVL103:
 934 01f0 B0F90030 		ldrsh	r3, [r0]
 935 01f4 F31A     		subs	r3, r6, r3
 936 01f6 00EE903A 		vmov	s1, r3	@ int
 937 01fa B0EE480A 		vmov.f32	s0, s16
 938 01fe F8EEE00A 		vcvt.f32.s32	s1, s1
 939 0202 FFF7FEFF 		bl	atan2f
 940              	.LVL104:
 941 0206 DFED4B7A 		vldr.32	s15, .L135+20
 942 020a 9FED4B7A 		vldr.32	s14, .L135+24
 943 020e 20EE270A 		vmul.f32	s0, s0, s15
 944 0212 C0EE077A 		vdiv.f32	s15, s0, s14
 945              	.LVL105:
 946              		.loc 1 290 0
 947 0216 F5EEC07A 		vcmpe.f32	s15, #0
 948 021a F1EE10FA 		vmrs	APSR_nzcv, FPSCR
 949 021e 03D5     		bpl	.L96
 950              		.loc 1 291 0
 951 0220 9FED467A 		vldr.32	s14, .L135+28
 952 0224 77EE877A 		vadd.f32	s15, s15, s14
 953              	.LVL106:
 954              	.L96:
 955              		.loc 1 293 0
 956 0228 FCEEE77A 		vcvt.u32.f32	s15, s15
 957              	.LVL107:
 958 022c 17EE903A 		vmov	r3, s15	@ int
 959 0230 98B2     		uxth	r0, r3
 960 0232 FFF7FEFF 		bl	set_angle_obj
 961              	.LVL108:
 962              		.loc 1 294 0
 963 0236 0123     		movs	r3, #1
 964 0238 2370     		strb	r3, [r4]
 965 023a A0E7     		b	.L84
 966              	.L91:
 967              	.LBE30:
 968              		.loc 1 340 0
 969 023c FFF7FEFF 		bl	get_position_achieved
ARM GAS  /tmp/ccQKT6tI.s 			page 18


 970              	.LVL109:
 971 0240 0028     		cmp	r0, #0
 972 0242 9CD0     		beq	.L84
 973              		.loc 1 341 0
 974 0244 384B     		ldr	r3, .L135+8
 975 0246 1888     		ldrh	r0, [r3]
 976 0248 FFF7FEFF 		bl	set_angle_obj
 977              	.LVL110:
 978              		.loc 1 342 0
 979 024c 0323     		movs	r3, #3
 980 024e 2370     		strb	r3, [r4]
 981 0250 95E7     		b	.L84
 982              	.L92:
 983              		.loc 1 347 0
 984 0252 FFF7FEFF 		bl	get_direction_achieved
 985              	.LVL111:
 986 0256 0028     		cmp	r0, #0
 987 0258 91D0     		beq	.L84
 988              		.loc 1 348 0
 989 025a FFF7FEFF 		bl	get_ball_visibility
 990              	.LVL112:
 991 025e 08B9     		cbnz	r0, .L110
 992              		.loc 1 349 0
 993 0260 0423     		movs	r3, #4
 994 0262 2370     		strb	r3, [r4]
 995              	.L110:
 996              		.loc 1 351 0
 997 0264 FFF7FEFF 		bl	get_ball_visibility
 998              	.LVL113:
 999 0268 0128     		cmp	r0, #1
 1000 026a 69D0     		beq	.L134
 1001              	.L111:
 1002              		.loc 1 360 0
 1003 026c FFF7FEFF 		bl	get_ball_visibility
 1004              	.LVL114:
 1005 0270 0228     		cmp	r0, #2
 1006 0272 84D1     		bne	.L84
 1007              	.L114:
 1008              		.loc 1 326 0
 1009 0274 0021     		movs	r1, #0
 1010 0276 4FF45C70 		mov	r0, #880
 1011 027a FFF7FEFF 		bl	set_rotation_speed
 1012              	.LVL115:
 1013              		.loc 1 327 0
 1014 027e 0023     		movs	r3, #0
 1015 0280 2370     		strb	r3, [r4]
 1016 0282 7CE7     		b	.L84
 1017              	.L98:
 1018              		.loc 1 325 0
 1019 0284 FFF7FEFF 		bl	get_ball_visibility
 1020              	.LVL116:
 1021 0288 0228     		cmp	r0, #2
 1022 028a F3D0     		beq	.L114
 1023              		.loc 1 328 0
 1024 028c FFF7FEFF 		bl	get_ball_visibility
 1025              	.LVL117:
 1026 0290 0128     		cmp	r0, #1
ARM GAS  /tmp/ccQKT6tI.s 			page 19


 1027 0292 7FF474AF 		bne	.L84
 1028              	.LVL118:
 1029              	.LBB31:
 1030              		.loc 1 330 0
 1031 0296 FFF7FEFF 		bl	get_ball_position
 1032              	.LVL119:
 1033 029a B0F90240 		ldrsh	r4, [r0, #2]
 1034 029e FFF7FEFF 		bl	get_self_position
 1035              	.LVL120:
 1036 02a2 B0F90230 		ldrsh	r3, [r0, #2]
 1037 02a6 E41A     		subs	r4, r4, r3
 1038 02a8 07EE904A 		vmov	s15, r4	@ int
 1039 02ac B8EEE78A 		vcvt.f32.s32	s16, s15
 1040 02b0 FFF7FEFF 		bl	get_ball_position
 1041              	.LVL121:
 1042 02b4 B0F90040 		ldrsh	r4, [r0]
 1043 02b8 FFF7FEFF 		bl	get_self_position
 1044              	.LVL122:
 1045 02bc B0F90030 		ldrsh	r3, [r0]
 1046 02c0 E31A     		subs	r3, r4, r3
 1047 02c2 00EE903A 		vmov	s1, r3	@ int
 1048 02c6 B0EE480A 		vmov.f32	s0, s16
 1049 02ca F8EEE00A 		vcvt.f32.s32	s1, s1
 1050 02ce FFF7FEFF 		bl	atan2f
 1051              	.LVL123:
 1052 02d2 DFED187A 		vldr.32	s15, .L135+20
 1053 02d6 9FED187A 		vldr.32	s14, .L135+24
 1054              		.loc 1 334 0
 1055 02da 019A     		ldr	r2, [sp, #4]
 1056 02dc 2B68     		ldr	r3, [r5]
 1057              		.loc 1 330 0
 1058 02de 20EE270A 		vmul.f32	s0, s0, s15
 1059 02e2 C0EE077A 		vdiv.f32	s15, s0, s14
 1060              	.LVL124:
 1061              		.loc 1 331 0
 1062 02e6 F5EEC07A 		vcmpe.f32	s15, #0
 1063 02ea F1EE10FA 		vmrs	APSR_nzcv, FPSCR
 1064              		.loc 1 332 0
 1065 02ee 44BF     		itt	mi
 1066 02f0 9FED127A 		vldrmi.32	s14, .L135+28
 1067 02f4 77EE877A 		vaddmi.f32	s15, s15, s14
 1068              	.LVL125:
 1069              		.loc 1 334 0
 1070 02f8 9A42     		cmp	r2, r3
 1071 02fa 64D1     		bne	.L132
 1072 02fc FCEEE77A 		vcvt.u32.f32	s15, s15
 1073              	.LVL126:
 1074 0300 17EE903A 		vmov	r3, s15	@ int
 1075 0304 98B2     		uxth	r0, r3
 1076              	.LBE31:
 1077              		.loc 1 376 0
 1078 0306 02B0     		add	sp, sp, #8
 1079              		.cfi_remember_state
 1080              		.cfi_def_cfa_offset 40
 1081              		@ sp needed
 1082 0308 BDEC048B 		vldm	sp!, {d8-d9}
 1083              		.cfi_restore 82
ARM GAS  /tmp/ccQKT6tI.s 			page 20


 1084              		.cfi_restore 83
 1085              		.cfi_restore 80
 1086              		.cfi_restore 81
 1087              		.cfi_def_cfa_offset 24
 1088 030c BDE8F041 		pop	{r4, r5, r6, r7, r8, lr}
 1089              		.cfi_restore 14
 1090              		.cfi_restore 8
 1091              		.cfi_restore 7
 1092              		.cfi_restore 6
 1093              		.cfi_restore 5
 1094              		.cfi_restore 4
 1095              		.cfi_def_cfa_offset 0
 1096              	.LBB32:
 1097              		.loc 1 334 0
 1098 0310 FFF7FEBF 		b	set_angle_obj
 1099              	.LVL127:
 1100              	.L133:
 1101              		.cfi_restore_state
 1102              	.LBE32:
 1103              		.loc 1 310 0
 1104 0314 2821     		movs	r1, #40
 1105              		.loc 1 311 0
 1106 0316 5A22     		movs	r2, #90
 1107              		.loc 1 310 0
 1108 0318 3980     		strh	r1, [r7]	@ movhi
 1109              		.loc 1 311 0
 1110 031a 3280     		strh	r2, [r6]	@ movhi
 1111 031c 23E7     		b	.L102
 1112              	.L136:
 1113 031e 00BF     		.align	2
 1114              	.L135:
 1115 0320 00000000 		.word	__stack_chk_guard
 1116 0324 00000000 		.word	.LANCHOR4
 1117 0328 00000000 		.word	.LANCHOR5
 1118 032c 00000000 		.word	.LANCHOR6
 1119 0330 0000C842 		.word	1120403456
 1120 0334 00003443 		.word	1127481344
 1121 0338 DB0F4940 		.word	1078530011
 1122 033c 0000B443 		.word	1135869952
 1123              	.L134:
 1124              	.LVL128:
 1125              	.LBB33:
 1126              		.loc 1 353 0
 1127 0340 FFF7FEFF 		bl	get_ball_position
 1128              	.LVL129:
 1129 0344 B0F90260 		ldrsh	r6, [r0, #2]
 1130 0348 FFF7FEFF 		bl	get_self_position
 1131              	.LVL130:
 1132 034c B0F90230 		ldrsh	r3, [r0, #2]
 1133 0350 F61A     		subs	r6, r6, r3
 1134 0352 07EE906A 		vmov	s15, r6	@ int
 1135 0356 B8EEE78A 		vcvt.f32.s32	s16, s15
 1136 035a FFF7FEFF 		bl	get_ball_position
 1137              	.LVL131:
 1138 035e B0F90060 		ldrsh	r6, [r0]
 1139 0362 FFF7FEFF 		bl	get_self_position
 1140              	.LVL132:
ARM GAS  /tmp/ccQKT6tI.s 			page 21


 1141 0366 B0F90030 		ldrsh	r3, [r0]
 1142 036a F31A     		subs	r3, r6, r3
 1143 036c 00EE903A 		vmov	s1, r3	@ int
 1144 0370 B0EE480A 		vmov.f32	s0, s16
 1145 0374 F8EEE00A 		vcvt.f32.s32	s1, s1
 1146 0378 FFF7FEFF 		bl	atan2f
 1147              	.LVL133:
 1148 037c 5FED137A 		vldr.32	s15, .L135+20
 1149 0380 1FED137A 		vldr.32	s14, .L135+24
 1150 0384 20EE270A 		vmul.f32	s0, s0, s15
 1151 0388 C0EE077A 		vdiv.f32	s15, s0, s14
 1152              	.LVL134:
 1153              		.loc 1 354 0
 1154 038c F5EEC07A 		vcmpe.f32	s15, #0
 1155 0390 F1EE10FA 		vmrs	APSR_nzcv, FPSCR
 1156              		.loc 1 355 0
 1157 0394 44BF     		itt	mi
 1158 0396 1FED177A 		vldrmi.32	s14, .L135+28
 1159 039a 77EE877A 		vaddmi.f32	s15, s15, s14
 1160              	.LVL135:
 1161              		.loc 1 357 0
 1162 039e FCEEE77A 		vcvt.u32.f32	s15, s15
 1163              	.LVL136:
 1164 03a2 17EE903A 		vmov	r3, s15	@ int
 1165 03a6 98B2     		uxth	r0, r3
 1166 03a8 FFF7FEFF 		bl	set_angle_obj
 1167              	.LVL137:
 1168              		.loc 1 358 0
 1169 03ac 0123     		movs	r3, #1
 1170 03ae 2370     		strb	r3, [r4]
 1171 03b0 5CE7     		b	.L111
 1172              	.L103:
 1173              	.LBE33:
 1174              		.loc 1 319 0
 1175 03b2 B3F5707F 		cmp	r3, #960
 1176 03b6 FFF6DDAE 		blt	.L104
 1177              		.loc 1 320 0
 1178 03ba 4FF47072 		mov	r2, #960
 1179              		.loc 1 321 0
 1180 03be 0023     		movs	r3, #0
 1181              		.loc 1 320 0
 1182 03c0 7A80     		strh	r2, [r7, #2]	@ movhi
 1183              		.loc 1 321 0
 1184 03c2 3380     		strh	r3, [r6]	@ movhi
 1185 03c4 D6E6     		b	.L104
 1186              	.L132:
 1187              		.loc 1 376 0
 1188 03c6 FFF7FEFF 		bl	__stack_chk_fail
 1189              	.LVL138:
 1190              		.cfi_endproc
 1191              	.LFE265:
 1192              		.size	attack_FSM, .-attack_FSM
 1193 03ca 00BF     		.section	.text.attacking_score,"ax",%progbits
 1194              		.align	1
 1195              		.p2align 4,,15
 1196              		.global	attacking_score
 1197              		.syntax unified
ARM GAS  /tmp/ccQKT6tI.s 			page 22


 1198              		.thumb
 1199              		.thumb_func
 1200              		.fpu fpv4-sp-d16
 1201              		.type	attacking_score, %function
 1202              	attacking_score:
 1203              	.LFB266:
 1204              		.loc 1 383 0
 1205              		.cfi_startproc
 1206              		@ args = 0, pretend = 0, frame = 24
 1207              		@ frame_needed = 0, uses_anonymous_args = 0
 1208              	.LVL139:
 1209 0000 2DE9F041 		push	{r4, r5, r6, r7, r8, lr}
 1210              		.cfi_def_cfa_offset 24
 1211              		.cfi_offset 4, -24
 1212              		.cfi_offset 5, -20
 1213              		.cfi_offset 6, -16
 1214              		.cfi_offset 7, -12
 1215              		.cfi_offset 8, -8
 1216              		.cfi_offset 14, -4
 1217 0004 2DED048B 		vpush.64	{d8, d9}
 1218              		.cfi_def_cfa_offset 40
 1219              		.cfi_offset 80, -40
 1220              		.cfi_offset 81, -36
 1221              		.cfi_offset 82, -32
 1222              		.cfi_offset 83, -28
 1223              	.LBB34:
 1224              	.LBB35:
 1225              		.loc 1 404 0
 1226 0008 B0F90260 		ldrsh	r6, [r0, #2]
 1227 000c B1F90240 		ldrsh	r4, [r1, #2]
 1228 0010 B0F90050 		ldrsh	r5, [r0]
 1229 0014 B1F90030 		ldrsh	r3, [r1]
 1230 0018 A41B     		subs	r4, r4, r6
 1231 001a 5B1B     		subs	r3, r3, r5
 1232 001c 04FB04F4 		mul	r4, r4, r4
 1233 0020 03FB0343 		mla	r3, r3, r3, r4
 1234 0024 07EE903A 		vmov	s15, r3	@ int
 1235 0028 B8EEE70A 		vcvt.f32.s32	s0, s15
 1236              	.LBE35:
 1237              	.LBE34:
 1238              		.loc 1 383 0
 1239 002c 734D     		ldr	r5, .L151
 1240 002e 86B0     		sub	sp, sp, #24
 1241              		.cfi_def_cfa_offset 64
 1242 0030 B5EE400A 		vcmp.f32	s0, #0
 1243              		.loc 1 383 0
 1244 0034 2B68     		ldr	r3, [r5]
 1245 0036 0593     		str	r3, [sp, #20]
 1246              	.LVL140:
 1247 0038 F1EE10FA 		vmrs	APSR_nzcv, FPSCR
 1248              	.LBB38:
 1249              	.LBB36:
 1250              		.loc 1 404 0
 1251 003c B1EEC08A 		vsqrt.f32	s16, s0
 1252 0040 00F18F80 		bmi	.L145
 1253              	.LVL141:
 1254              	.L138:
ARM GAS  /tmp/ccQKT6tI.s 			page 23


 1255 0044 B5EE408A 		vcmp.f32	s16, #0
 1256 0048 F1EE10FA 		vmrs	APSR_nzcv, FPSCR
 1257              	.LBE36:
 1258              	.LBE38:
 1259              		.loc 1 389 0
 1260 004c F1EEC88A 		vsqrt.f32	s17, s16
 1261 0050 00F1C680 		bmi	.L146
 1262              	.L139:
 1263              	.LBB39:
 1264              	.LBB40:
 1265              		.loc 1 404 0
 1266 0054 B1F902E0 		ldrsh	lr, [r1, #2]
 1267 0058 B0F902C0 		ldrsh	ip, [r0, #2]
 1268 005c B1F90030 		ldrsh	r3, [r1]
 1269 0060 B0F90070 		ldrsh	r7, [r0]
 1270 0064 AEEB0C04 		sub	r4, lr, ip
 1271 0068 04FB04F6 		mul	r6, r4, r4
 1272 006c DC1B     		subs	r4, r3, r7
 1273 006e 04FB0464 		mla	r4, r4, r4, r6
 1274 0072 07EE904A 		vmov	s15, r4	@ int
 1275              	.LBE40:
 1276              	.LBE39:
 1277              		.loc 1 389 0
 1278 0076 9FED627A 		vldr.32	s14, .L151+4
 1279              	.LBB45:
 1280              	.LBB41:
 1281              		.loc 1 404 0
 1282 007a B8EEE70A 		vcvt.f32.s32	s0, s15
 1283              	.LBE41:
 1284              	.LBE45:
 1285              		.loc 1 389 0
 1286 007e C7EE287A 		vdiv.f32	s15, s14, s17
 1287              	.LBB46:
 1288              	.LBB42:
 1289              		.loc 1 404 0
 1290 0082 F1EEC08A 		vsqrt.f32	s17, s0
 1291              	.LBE42:
 1292              	.LBE46:
 1293              		.loc 1 389 0
 1294 0086 FCEEE77A 		vcvt.u32.f32	s15, s15
 1295 008a B5EE400A 		vcmp.f32	s0, #0
 1296 008e 17EE906A 		vmov	r6, s15	@ int
 1297 0092 F1EE10FA 		vmrs	APSR_nzcv, FPSCR
 1298              	.LBB47:
 1299              	.LBB43:
 1300              		.loc 1 404 0
 1301 0096 B0EE688A 		vmov.f32	s16, s17
 1302              	.LBE43:
 1303              	.LBE47:
 1304              		.loc 1 389 0
 1305 009a B6B2     		uxth	r6, r6
 1306              	.LVL142:
 1307 009c 00F18280 		bmi	.L147
 1308              	.L140:
 1309              	.LVL143:
 1310              		.loc 1 390 0
 1311 00a0 9FED587A 		vldr.32	s14, .L151+8
ARM GAS  /tmp/ccQKT6tI.s 			page 24


 1312              	.LBB48:
 1313              	.LBB49:
 1314              		.loc 1 410 0
 1315 00a4 B2F90280 		ldrsh	r8, [r2, #2]
 1316 00a8 B2F90000 		ldrsh	r0, [r2]
 1317              	.LBE49:
 1318              	.LBE48:
 1319              		.loc 1 390 0
 1320 00ac C7EE087A 		vdiv.f32	s15, s14, s16
 1321              	.LBB52:
 1322              	.LBB50:
 1323              		.loc 1 410 0
 1324 00b0 AEEB080E 		sub	lr, lr, r8
 1325 00b4 1B1A     		subs	r3, r3, r0
 1326 00b6 0EFB0EFE 		mul	lr, lr, lr
 1327              	.LBE50:
 1328              	.LBE52:
 1329              	.LBB53:
 1330              	.LBB54:
 1331 00ba ACEB080C 		sub	ip, ip, r8
 1332 00be 3F1A     		subs	r7, r7, r0
 1333 00c0 0CFB0CFC 		mul	ip, ip, ip
 1334              	.LBE54:
 1335              	.LBE53:
 1336              	.LBB56:
 1337              	.LBB51:
 1338 00c4 03FB03E3 		mla	r3, r3, r3, lr
 1339              	.LBE51:
 1340              	.LBE56:
 1341              		.loc 1 393 0
 1342 00c8 1C44     		add	r4, r4, r3
 1343              	.LBB57:
 1344              	.LBB55:
 1345              		.loc 1 410 0
 1346 00ca 07FB07C7 		mla	r7, r7, r7, ip
 1347              	.LBE55:
 1348              	.LBE57:
 1349              		.loc 1 393 0
 1350 00ce E41B     		subs	r4, r4, r7
 1351 00d0 07EE104A 		vmov	s14, r4	@ int
 1352              		.loc 1 390 0
 1353 00d4 FCEEE77A 		vcvt.u32.f32	s15, s15
 1354 00d8 B5EE400A 		vcmp.f32	s0, #0
 1355 00dc 17EE900A 		vmov	r0, s15	@ int
 1356 00e0 F1EE10FA 		vmrs	APSR_nzcv, FPSCR
 1357              		.loc 1 393 0
 1358 00e4 B8EE478A 		vcvt.f32.u32	s16, s14
 1359              		.loc 1 390 0
 1360 00e8 84B2     		uxth	r4, r0
 1361              	.LVL144:
 1362 00ea 46D4     		bmi	.L148
 1363              	.L141:
 1364              	.LVL145:
 1365              	.LBB58:
 1366              	.LBB59:
 1367              		.loc 1 404 0
 1368 00ec 07EE903A 		vmov	s15, r3	@ int
ARM GAS  /tmp/ccQKT6tI.s 			page 25


 1369 00f0 B8EEE70A 		vcvt.f32.s32	s0, s15
 1370              	.LBE59:
 1371              	.LBE58:
 1372              		.loc 1 394 0
 1373 00f4 78EEA88A 		vadd.f32	s17, s17, s17
 1374              	.LVL146:
 1375 00f8 B5EE400A 		vcmp.f32	s0, #0
 1376 00fc F1EE10FA 		vmrs	APSR_nzcv, FPSCR
 1377              	.LBB62:
 1378              	.LBB60:
 1379              		.loc 1 404 0
 1380 0100 B1EEC09A 		vsqrt.f32	s18, s0
 1381 0104 36D4     		bmi	.L149
 1382              	.L142:
 1383              	.LVL147:
 1384              	.LBE60:
 1385              	.LBE62:
 1386              		.loc 1 399 0
 1387 0106 3444     		add	r4, r4, r6
 1388              	.LVL148:
 1389              		.loc 1 394 0
 1390 0108 68EE898A 		vmul.f32	s17, s17, s18
 1391              	.LVL149:
 1392              		.loc 1 396 0
 1393 010c 88EE280A 		vdiv.f32	s0, s16, s17
 1394              	.LVL150:
 1395 0110 FFF7FEFF 		bl	acosf
 1396              	.LVL151:
 1397              		.loc 1 400 0
 1398 0114 059A     		ldr	r2, [sp, #20]
 1399 0116 2B68     		ldr	r3, [r5]
 1400 0118 9A42     		cmp	r2, r3
 1401              		.loc 1 397 0
 1402 011a 07EE906A 		vmov	s15, r6	@ int
 1403 011e DFED3A5A 		vldr.32	s11, .L151+12
 1404              		.loc 1 396 0
 1405 0122 DFED3A6A 		vldr.32	s13, .L151+16
 1406              		.loc 1 397 0
 1407 0126 9FED3A6A 		vldr.32	s12, .L151+20
 1408 012a B8EEE77A 		vcvt.f32.s32	s14, s15
 1409 012e C7EE257A 		vdiv.f32	s15, s14, s11
 1410              		.loc 1 396 0
 1411 0132 B0EE007A 		vmov.f32	s14, #2.0e+0
 1412 0136 E0EE076A 		vfma.f32	s13, s0, s14
 1413              	.LVL152:
 1414              		.loc 1 397 0
 1415 013a 77EE867A 		vadd.f32	s15, s15, s12
 1416 013e 67EEA67A 		vmul.f32	s15, s15, s13
 1417 0142 67EEA67A 		vmul.f32	s15, s15, s13
 1418 0146 67EEA67A 		vmul.f32	s15, s15, s13
 1419 014a FDEEE77A 		vcvt.s32.f32	s15, s15
 1420 014e 17EE900A 		vmov	r0, s15	@ int
 1421              		.loc 1 399 0
 1422 0152 2044     		add	r0, r0, r4
 1423              		.loc 1 400 0
 1424 0154 00B2     		sxth	r0, r0
 1425 0156 4ED1     		bne	.L150
ARM GAS  /tmp/ccQKT6tI.s 			page 26


 1426 0158 06B0     		add	sp, sp, #24
 1427              		.cfi_remember_state
 1428              		.cfi_def_cfa_offset 40
 1429              		@ sp needed
 1430 015a BDEC048B 		vldm	sp!, {d8-d9}
 1431              		.cfi_restore 82
 1432              		.cfi_restore 83
 1433              		.cfi_restore 80
 1434              		.cfi_restore 81
 1435              		.cfi_def_cfa_offset 24
 1436 015e BDE8F081 		pop	{r4, r5, r6, r7, r8, pc}
 1437              	.LVL153:
 1438              	.L145:
 1439              		.cfi_restore_state
 1440 0162 CDE90212 		strd	r1, r2, [sp, #8]
 1441 0166 0190     		str	r0, [sp, #4]
 1442              	.LBB63:
 1443              	.LBB37:
 1444              		.loc 1 404 0
 1445 0168 FFF7FEFF 		bl	sqrtf
 1446              	.LVL154:
 1447 016c DDE90212 		ldrd	r1, r2, [sp, #8]
 1448 0170 0198     		ldr	r0, [sp, #4]
 1449 0172 67E7     		b	.L138
 1450              	.LVL155:
 1451              	.L149:
 1452              	.LBE37:
 1453              	.LBE63:
 1454              	.LBB64:
 1455              	.LBB61:
 1456 0174 FFF7FEFF 		bl	sqrtf
 1457              	.LVL156:
 1458 0178 C5E7     		b	.L142
 1459              	.LVL157:
 1460              	.L148:
 1461 017a CDE90112 		strd	r1, r2, [sp, #4]
 1462              	.LBE61:
 1463              	.LBE64:
 1464              	.LBB65:
 1465              	.LBB66:
 1466 017e FFF7FEFF 		bl	sqrtf
 1467              	.LVL158:
 1468 0182 0199     		ldr	r1, [sp, #4]
 1469 0184 029A     		ldr	r2, [sp, #8]
 1470 0186 B1F90200 		ldrsh	r0, [r1, #2]
 1471 018a B2F90270 		ldrsh	r7, [r2, #2]
 1472 018e B1F90030 		ldrsh	r3, [r1]
 1473 0192 B2F90010 		ldrsh	r1, [r2]
 1474 0196 C21B     		subs	r2, r0, r7
 1475 0198 02FB02F2 		mul	r2, r2, r2
 1476 019c 5B1A     		subs	r3, r3, r1
 1477 019e 03FB0323 		mla	r3, r3, r3, r2
 1478 01a2 A3E7     		b	.L141
 1479              	.LVL159:
 1480              	.L147:
 1481 01a4 CDE90212 		strd	r1, r2, [sp, #8]
 1482 01a8 0190     		str	r0, [sp, #4]
ARM GAS  /tmp/ccQKT6tI.s 			page 27


 1483              	.LBE66:
 1484              	.LBE65:
 1485              	.LBB67:
 1486              	.LBB44:
 1487 01aa FFF7FEFF 		bl	sqrtf
 1488              	.LVL160:
 1489 01ae 0198     		ldr	r0, [sp, #4]
 1490 01b0 0299     		ldr	r1, [sp, #8]
 1491 01b2 B0F902C0 		ldrsh	ip, [r0, #2]
 1492 01b6 B1F902E0 		ldrsh	lr, [r1, #2]
 1493 01ba B0F90070 		ldrsh	r7, [r0]
 1494 01be B1F90030 		ldrsh	r3, [r1]
 1495 01c2 039A     		ldr	r2, [sp, #12]
 1496 01c4 AEEB0C04 		sub	r4, lr, ip
 1497 01c8 04FB04F4 		mul	r4, r4, r4
 1498 01cc D81B     		subs	r0, r3, r7
 1499 01ce 00FB0044 		mla	r4, r0, r0, r4
 1500 01d2 07EE904A 		vmov	s15, r4	@ int
 1501 01d6 B8EEE70A 		vcvt.f32.s32	s0, s15
 1502 01da F1EEC08A 		vsqrt.f32	s17, s0
 1503 01de 5FE7     		b	.L140
 1504              	.LVL161:
 1505              	.L146:
 1506              	.LBE44:
 1507              	.LBE67:
 1508              		.loc 1 389 0
 1509 01e0 B0EE480A 		vmov.f32	s0, s16
 1510 01e4 CDE90212 		strd	r1, r2, [sp, #8]
 1511 01e8 0190     		str	r0, [sp, #4]
 1512 01ea FFF7FEFF 		bl	sqrtf
 1513              	.LVL162:
 1514 01ee DDE90212 		ldrd	r1, r2, [sp, #8]
 1515 01f2 0198     		ldr	r0, [sp, #4]
 1516 01f4 2EE7     		b	.L139
 1517              	.LVL163:
 1518              	.L150:
 1519              		.loc 1 400 0
 1520 01f6 FFF7FEFF 		bl	__stack_chk_fail
 1521              	.LVL164:
 1522              	.L152:
 1523 01fa 00BF     		.align	2
 1524              	.L151:
 1525 01fc 00000000 		.word	__stack_chk_guard
 1526 0200 0000FA44 		.word	1157234688
 1527 0204 00007A44 		.word	1148846080
 1528 0208 0000C842 		.word	1120403456
 1529 020c DB0F49C0 		.word	3226013659
 1530 0210 AAAAAA3E 		.word	1051372202
 1531              		.cfi_endproc
 1532              	.LFE266:
 1533              		.size	attacking_score, .-attacking_score
 1534              		.section	.text.startup.main,"ax",%progbits
 1535              		.align	1
 1536              		.p2align 4,,15
 1537              		.global	main
 1538              		.syntax unified
 1539              		.thumb
ARM GAS  /tmp/ccQKT6tI.s 			page 28


 1540              		.thumb_func
 1541              		.fpu fpv4-sp-d16
 1542              		.type	main, %function
 1543              	main:
 1544              	.LFB261:
 1545              		.loc 1 63 0
 1546              		.cfi_startproc
 1547              		@ args = 0, pretend = 0, frame = 16
 1548              		@ frame_needed = 0, uses_anonymous_args = 0
 1549 0000 2DE9F041 		push	{r4, r5, r6, r7, r8, lr}
 1550              		.cfi_def_cfa_offset 24
 1551              		.cfi_offset 4, -24
 1552              		.cfi_offset 5, -20
 1553              		.cfi_offset 6, -16
 1554              		.cfi_offset 7, -12
 1555              		.cfi_offset 8, -8
 1556              		.cfi_offset 14, -4
 1557 0004 3B4B     		ldr	r3, .L167
 1558              	.LBB68:
 1559              		.loc 1 120 0
 1560 0006 DFF8F880 		ldr	r8, .L167+12
 1561              	.LBE68:
 1562              		.loc 1 63 0
 1563 000a 1B68     		ldr	r3, [r3]
 1564 000c 84B0     		sub	sp, sp, #16
 1565              		.cfi_def_cfa_offset 40
 1566              		.loc 1 93 0
 1567 000e 0126     		movs	r6, #1
 1568              		.loc 1 63 0
 1569 0010 0393     		str	r3, [sp, #12]
 1570              		.loc 1 65 0
 1571 0012 FFF7FEFF 		bl	halInit
 1572              	.LVL165:
 1573              		.loc 1 66 0
 1574 0016 FFF7FEFF 		bl	chSysInit
 1575              	.LVL166:
 1576              		.loc 1 67 0
 1577 001a FFF7FEFF 		bl	mpu_init
 1578              	.LVL167:
 1579              	.LBB69:
 1580              	.LBB70:
 1581              		.loc 1 58 0
 1582 001e 3649     		ldr	r1, .L167+4
 1583 0020 3648     		ldr	r0, .L167+8
 1584 0022 FFF7FEFF 		bl	sdStart
 1585              	.LVL168:
 1586              	.LBE70:
 1587              	.LBE69:
 1588              		.loc 1 73 0
 1589 0026 FFF7FEFF 		bl	usb_start
 1590              	.LVL169:
 1591              		.loc 1 75 0
 1592 002a FFF7FEFF 		bl	dcmi_start
 1593              	.LVL170:
 1594              		.loc 1 76 0
 1595 002e FFF7FEFF 		bl	po8030_start
 1596              	.LVL171:
ARM GAS  /tmp/ccQKT6tI.s 			page 29


 1597              		.loc 1 78 0
 1598 0032 FFF7FEFF 		bl	motors_init
 1599              	.LVL172:
 1600              		.loc 1 84 0
 1601 0036 FFF7FEFF 		bl	process_image_start
 1602              	.LVL173:
 1603              		.loc 1 85 0
 1604 003a FFF7FEFF 		bl	role_selector_start
 1605              	.LVL174:
 1606              		.loc 1 86 0
 1607 003e FFF7FEFF 		bl	bt_communication_start
 1608              	.LVL175:
 1609              		.loc 1 87 0
 1610 0042 FFF7FEFF 		bl	motors_controller_start
 1611              	.LVL176:
 1612              		.loc 1 88 0
 1613 0046 FFF7FEFF 		bl	position_calibrator_start
 1614              	.LVL177:
 1615              		.loc 1 92 0
 1616 004a 0224     		movs	r4, #2
 1617              	.LVL178:
 1618              	.L162:
 1619              		.loc 1 99 0
 1620 004c FFF7FEFF 		bl	get_role
 1621              	.LVL179:
 1622 0050 051B     		subs	r5, r0, r4
 1623 0052 18BF     		it	ne
 1624 0054 0125     		movne	r5, #1
 1625              	.LVL180:
 1626              		.loc 1 100 0
 1627 0056 FFF7FEFF 		bl	get_role
 1628              	.LVL181:
 1629 005a 0446     		mov	r4, r0
 1630              	.LVL182:
 1631              		.loc 1 102 0
 1632 005c 0328     		cmp	r0, #3
 1633 005e 05D8     		bhi	.L154
 1634 0060 DFE800F0 		tbb	[pc, r0]
 1635              	.L156:
 1636 0064 11       		.byte	(.L155-.L156)/2
 1637 0065 15       		.byte	(.L157-.L156)/2
 1638 0066 08       		.byte	(.L158-.L156)/2
 1639 0067 02       		.byte	(.L159-.L156)/2
 1640              		.p2align 1
 1641              	.L159:
 1642              		.loc 1 112 0
 1643 0068 FFF7FEFF 		bl	bt_control
 1644              	.LVL183:
 1645              	.L154:
 1646              		.loc 1 146 0
 1647 006c 1E20     		movs	r0, #30
 1648 006e FFF7FEFF 		bl	chThdSleep
 1649              	.LVL184:
 1650              		.loc 1 99 0
 1651 0072 EBE7     		b	.L162
 1652              	.LVL185:
 1653              	.L158:
ARM GAS  /tmp/ccQKT6tI.s 			page 30


 1654              		.loc 1 117 0
 1655 0074 FFF7FEFF 		bl	get_ball_visibility
 1656              	.LVL186:
 1657 0078 0546     		mov	r5, r0
 1658              	.LVL187:
 1659 007a 78B1     		cbz	r0, .L166
 1660 007c 0020     		movs	r0, #0
 1661              	.LVL188:
 1662              	.L160:
 1663              		.loc 1 134 0
 1664 007e 56B1     		cbz	r6, .L161
 1665              		.loc 1 135 0
 1666 0080 FFF7FEFF 		bl	attack_FSM
 1667              	.LVL189:
 1668 0084 F2E7     		b	.L154
 1669              	.LVL190:
 1670              	.L155:
 1671              		.loc 1 108 0
 1672 0086 2846     		mov	r0, r5
 1673              	.LVL191:
 1674 0088 FFF7FEFF 		bl	keeper_FSM
 1675              	.LVL192:
 1676              		.loc 1 109 0
 1677 008c EEE7     		b	.L154
 1678              	.LVL193:
 1679              	.L157:
 1680              		.loc 1 104 0
 1681 008e 2846     		mov	r0, r5
 1682              	.LVL194:
 1683 0090 FFF7FEFF 		bl	attack_FSM
 1684              	.LVL195:
 1685              		.loc 1 105 0
 1686 0094 EAE7     		b	.L154
 1687              	.LVL196:
 1688              	.L161:
 1689              		.loc 1 138 0
 1690 0096 FFF7FEFF 		bl	keeper_FSM
 1691              	.LVL197:
 1692 009a E7E7     		b	.L154
 1693              	.L166:
 1694              	.LVL198:
 1695              	.LBB71:
 1696              		.loc 1 120 0
 1697 009c CDF80480 		str	r8, [sp, #4]
 1698              		.loc 1 122 0
 1699 00a0 FFF7FEFF 		bl	get_self_position
 1700              	.LVL199:
 1701 00a4 0746     		mov	r7, r0
 1702 00a6 FFF7FEFF 		bl	get_ball_position
 1703              	.LVL200:
 1704 00aa 01AA     		add	r2, sp, #4
 1705 00ac 0146     		mov	r1, r0
 1706 00ae 3846     		mov	r0, r7
 1707 00b0 FFF7FEFF 		bl	attacking_score
 1708              	.LVL201:
 1709              		.loc 1 126 0
 1710 00b4 0295     		str	r5, [sp, #8]
ARM GAS  /tmp/ccQKT6tI.s 			page 31


 1711              		.loc 1 122 0
 1712 00b6 0746     		mov	r7, r0
 1713              	.LVL202:
 1714              		.loc 1 127 0
 1715 00b8 FFF7FEFF 		bl	get_ball_position
 1716              	.LVL203:
 1717 00bc 0388     		ldrh	r3, [r0]
 1718 00be C3F51673 		rsb	r3, r3, #600
 1719 00c2 ADF80830 		strh	r3, [sp, #8]	@ movhi
 1720              		.loc 1 128 0
 1721 00c6 FFF7FEFF 		bl	get_ball_position
 1722              	.LVL204:
 1723 00ca 4388     		ldrh	r3, [r0, #2]
 1724 00cc C3F57A73 		rsb	r3, r3, #1000
 1725 00d0 ADF80A30 		strh	r3, [sp, #10]	@ movhi
 1726              		.loc 1 129 0
 1727 00d4 FFF7FEFF 		bl	get_BT_enemy_position
 1728              	.LVL205:
 1729 00d8 01AA     		add	r2, sp, #4
 1730 00da 02A9     		add	r1, sp, #8
 1731 00dc FFF7FEFF 		bl	attacking_score
 1732              	.LVL206:
 1733              		.loc 1 131 0
 1734 00e0 8742     		cmp	r7, r0
 1735 00e2 D4BF     		ite	le
 1736 00e4 0027     		movle	r7, #0
 1737              	.LVL207:
 1738 00e6 0127     		movgt	r7, #1
 1739 00e8 B81B     		subs	r0, r7, r6
 1740              	.LVL208:
 1741 00ea B0FA80F0 		clz	r0, r0
 1742 00ee 4009     		lsrs	r0, r0, #5
 1743              	.LVL209:
 1744              		.loc 1 132 0
 1745 00f0 3E46     		mov	r6, r7
 1746 00f2 C4E7     		b	.L160
 1747              	.L168:
 1748              		.align	2
 1749              	.L167:
 1750 00f4 00000000 		.word	__stack_chk_guard
 1751 00f8 00000000 		.word	.LANCHOR7
 1752 00fc 00000000 		.word	SD3
 1753 0100 2C01E803 		.word	65536300
 1754              	.LBE71:
 1755              		.cfi_endproc
 1756              	.LFE261:
 1757              		.size	main, .-main
 1758              		.section	.text.distance_between,"ax",%progbits
 1759              		.align	1
 1760              		.p2align 4,,15
 1761              		.global	distance_between
 1762              		.syntax unified
 1763              		.thumb
 1764              		.thumb_func
 1765              		.fpu fpv4-sp-d16
 1766              		.type	distance_between, %function
 1767              	distance_between:
ARM GAS  /tmp/ccQKT6tI.s 			page 32


 1768              	.LFB267:
 1769              		.loc 1 402 0
 1770              		.cfi_startproc
 1771              		@ args = 0, pretend = 0, frame = 8
 1772              		@ frame_needed = 0, uses_anonymous_args = 0
 1773              	.LVL210:
 1774 0000 30B5     		push	{r4, r5, lr}
 1775              		.cfi_def_cfa_offset 12
 1776              		.cfi_offset 4, -12
 1777              		.cfi_offset 5, -8
 1778              		.cfi_offset 14, -4
 1779 0002 2DED028B 		vpush.64	{d8}
 1780              		.cfi_def_cfa_offset 20
 1781              		.cfi_offset 80, -20
 1782              		.cfi_offset 81, -16
 1783              		.loc 1 404 0
 1784 0006 B0F90220 		ldrsh	r2, [r0, #2]
 1785 000a B1F90250 		ldrsh	r5, [r1, #2]
 1786 000e B0F90030 		ldrsh	r3, [r0]
 1787 0012 B1F90010 		ldrsh	r1, [r1]
 1788              	.LVL211:
 1789              		.loc 1 402 0
 1790 0016 124C     		ldr	r4, .L175
 1791              		.loc 1 404 0
 1792 0018 521B     		subs	r2, r2, r5
 1793 001a 02FB02F2 		mul	r2, r2, r2
 1794 001e 5B1A     		subs	r3, r3, r1
 1795 0020 03FB0323 		mla	r3, r3, r3, r2
 1796 0024 07EE903A 		vmov	s15, r3	@ int
 1797 0028 B8EEE70A 		vcvt.f32.s32	s0, s15
 1798              		.loc 1 402 0
 1799 002c 83B0     		sub	sp, sp, #12
 1800              		.cfi_def_cfa_offset 32
 1801 002e B5EE400A 		vcmp.f32	s0, #0
 1802              		.loc 1 402 0
 1803 0032 2368     		ldr	r3, [r4]
 1804 0034 0193     		str	r3, [sp, #4]
 1805              	.LVL212:
 1806 0036 F1EE10FA 		vmrs	APSR_nzcv, FPSCR
 1807              		.loc 1 404 0
 1808 003a B1EEC08A 		vsqrt.f32	s16, s0
 1809 003e 09D4     		bmi	.L173
 1810              	.LVL213:
 1811              	.L169:
 1812              		.loc 1 406 0
 1813 0040 019A     		ldr	r2, [sp, #4]
 1814 0042 2368     		ldr	r3, [r4]
 1815 0044 9A42     		cmp	r2, r3
 1816 0046 B0EE480A 		vmov.f32	s0, s16
 1817 004a 06D1     		bne	.L174
 1818 004c 03B0     		add	sp, sp, #12
 1819              		.cfi_remember_state
 1820              		.cfi_def_cfa_offset 20
 1821              		@ sp needed
 1822 004e BDEC028B 		vldm	sp!, {d8}
 1823              		.cfi_restore 80
 1824              		.cfi_restore 81
ARM GAS  /tmp/ccQKT6tI.s 			page 33


 1825              		.cfi_def_cfa_offset 12
 1826 0052 30BD     		pop	{r4, r5, pc}
 1827              	.LVL214:
 1828              	.L173:
 1829              		.cfi_restore_state
 1830              		.loc 1 404 0
 1831 0054 FFF7FEFF 		bl	sqrtf
 1832              	.LVL215:
 1833              		.loc 1 405 0
 1834 0058 F2E7     		b	.L169
 1835              	.LVL216:
 1836              	.L174:
 1837              		.loc 1 406 0
 1838 005a FFF7FEFF 		bl	__stack_chk_fail
 1839              	.LVL217:
 1840              	.L176:
 1841 005e 00BF     		.align	2
 1842              	.L175:
 1843 0060 00000000 		.word	__stack_chk_guard
 1844              		.cfi_endproc
 1845              	.LFE267:
 1846              		.size	distance_between, .-distance_between
 1847              		.section	.text.distance_squared,"ax",%progbits
 1848              		.align	1
 1849              		.p2align 4,,15
 1850              		.global	distance_squared
 1851              		.syntax unified
 1852              		.thumb
 1853              		.thumb_func
 1854              		.fpu fpv4-sp-d16
 1855              		.type	distance_squared, %function
 1856              	distance_squared:
 1857              	.LFB268:
 1858              		.loc 1 408 0
 1859              		.cfi_startproc
 1860              		@ args = 0, pretend = 0, frame = 8
 1861              		@ frame_needed = 0, uses_anonymous_args = 0
 1862              	.LVL218:
 1863 0000 F0B5     		push	{r4, r5, r6, r7, lr}
 1864              		.cfi_def_cfa_offset 20
 1865              		.cfi_offset 4, -20
 1866              		.cfi_offset 5, -16
 1867              		.cfi_offset 6, -12
 1868              		.cfi_offset 7, -8
 1869              		.cfi_offset 14, -4
 1870 0002 0D4C     		ldr	r4, .L181
 1871              		.loc 1 410 0
 1872 0004 B1F90250 		ldrsh	r5, [r1, #2]
 1873              		.loc 1 408 0
 1874 0008 2768     		ldr	r7, [r4]
 1875              		.loc 1 410 0
 1876 000a B0F90230 		ldrsh	r3, [r0, #2]
 1877 000e B0F90020 		ldrsh	r2, [r0]
 1878 0012 B1F90060 		ldrsh	r6, [r1]
 1879              		.loc 1 408 0
 1880 0016 83B0     		sub	sp, sp, #12
 1881              		.cfi_def_cfa_offset 32
ARM GAS  /tmp/ccQKT6tI.s 			page 34


 1882              		.loc 1 410 0
 1883 0018 581B     		subs	r0, r3, r5
 1884              	.LVL219:
 1885              		.loc 1 408 0
 1886 001a 0197     		str	r7, [sp, #4]
 1887              	.LVL220:
 1888              		.loc 1 412 0
 1889 001c 019D     		ldr	r5, [sp, #4]
 1890 001e 2168     		ldr	r1, [r4]
 1891              	.LVL221:
 1892              		.loc 1 410 0
 1893 0020 00FB00F0 		mul	r0, r0, r0
 1894 0024 921B     		subs	r2, r2, r6
 1895              	.LVL222:
 1896              		.loc 1 412 0
 1897 0026 8D42     		cmp	r5, r1
 1898 0028 02FB0200 		mla	r0, r2, r2, r0
 1899 002c 01D1     		bne	.L180
 1900 002e 03B0     		add	sp, sp, #12
 1901              		.cfi_remember_state
 1902              		.cfi_def_cfa_offset 20
 1903              		@ sp needed
 1904 0030 F0BD     		pop	{r4, r5, r6, r7, pc}
 1905              	.L180:
 1906              		.cfi_restore_state
 1907 0032 FFF7FEFF 		bl	__stack_chk_fail
 1908              	.LVL223:
 1909              	.L182:
 1910 0036 00BF     		.align	2
 1911              	.L181:
 1912 0038 00000000 		.word	__stack_chk_guard
 1913              		.cfi_endproc
 1914              	.LFE268:
 1915              		.size	distance_squared, .-distance_squared
 1916              		.global	__stack_chk_guard
 1917              		.global	bus_condvar
 1918              		.global	bus_lock
 1919              		.global	bus
 1920              		.section	.rodata
 1921              		.align	2
 1922              		.set	.LANCHOR2,. + 0
 1923              	.LC0:
 1924 0000 2C01     		.short	300
 1925 0002 3200     		.short	50
 1926              		.section	.bss.attack_position.13013,"aw",%nobits
 1927              		.align	2
 1928              		.set	.LANCHOR6,. + 0
 1929              		.type	attack_position.13013, %object
 1930              		.size	attack_position.13013, 4
 1931              	attack_position.13013:
 1932 0000 00000000 		.space	4
 1933              		.section	.bss.attacker_state.13012,"aw",%nobits
 1934              		.set	.LANCHOR4,. + 0
 1935              		.type	attacker_state.13012, %object
 1936              		.size	attacker_state.13012, 1
 1937              	attacker_state.13012:
 1938 0000 00       		.space	1
ARM GAS  /tmp/ccQKT6tI.s 			page 35


 1939              		.section	.bss.bus,"aw",%nobits
 1940              		.align	2
 1941              		.type	bus, %object
 1942              		.size	bus, 12
 1943              	bus:
 1944 0000 00000000 		.space	12
 1944      00000000 
 1944      00000000 
 1945              		.section	.bss.refocus_angle.12996,"aw",%nobits
 1946              		.align	1
 1947              		.set	.LANCHOR3,. + 0
 1948              		.type	refocus_angle.12996, %object
 1949              		.size	refocus_angle.12996, 2
 1950              	refocus_angle.12996:
 1951 0000 0000     		.space	2
 1952              		.section	.bss.refocus_angle.13014,"aw",%nobits
 1953              		.align	1
 1954              		.set	.LANCHOR5,. + 0
 1955              		.type	refocus_angle.13014, %object
 1956              		.size	refocus_angle.13014, 2
 1957              	refocus_angle.13014:
 1958 0000 0000     		.space	2
 1959              		.section	.data.__stack_chk_guard,"aw",%progbits
 1960              		.align	2
 1961              		.type	__stack_chk_guard, %object
 1962              		.size	__stack_chk_guard, 4
 1963              	__stack_chk_guard:
 1964 0000 96E3DEE2 		.word	-488709226
 1965              		.section	.data.bus_condvar,"aw",%progbits
 1966              		.align	2
 1967              		.type	bus_condvar, %object
 1968              		.size	bus_condvar, 8
 1969              	bus_condvar:
 1970 0000 00000000 		.word	bus_condvar
 1971 0004 00000000 		.word	bus_condvar
 1972              		.section	.data.bus_lock,"aw",%progbits
 1973              		.align	2
 1974              		.type	bus_lock, %object
 1975              		.size	bus_lock, 20
 1976              	bus_lock:
 1977 0000 00000000 		.word	bus_lock
 1978 0004 00000000 		.word	bus_lock
 1979 0008 00000000 		.word	0
 1980 000c 00000000 		.word	0
 1981 0010 00000000 		.word	0
 1982              		.section	.data.goalkeeper_state.12994,"aw",%progbits
 1983              		.set	.LANCHOR1,. + 0
 1984              		.type	goalkeeper_state.12994, %object
 1985              		.size	goalkeeper_state.12994, 1
 1986              	goalkeeper_state.12994:
 1987 0000 01       		.byte	1
 1988              		.section	.data.scanning_left.12995,"aw",%progbits
 1989              		.set	.LANCHOR0,. + 0
 1990              		.type	scanning_left.12995, %object
 1991              		.size	scanning_left.12995, 1
 1992              	scanning_left.12995:
 1993 0000 01       		.byte	1
ARM GAS  /tmp/ccQKT6tI.s 			page 36


 1994              		.section	.data.ser_cfg.12965,"aw",%progbits
 1995              		.align	2
 1996              		.set	.LANCHOR7,. + 0
 1997              		.type	ser_cfg.12965, %object
 1998              		.size	ser_cfg.12965, 12
 1999              	ser_cfg.12965:
 2000 0000 00C20100 		.word	115200
 2001 0004 0000     		.short	0
 2002 0006 0000     		.short	0
 2003 0008 0000     		.short	0
 2004 000a 0000     		.space	2
 2005              		.section	.rodata.__stack_chk_fail.str1.4,"aMS",%progbits,1
 2006              		.align	2
 2007              	.LC1:
 2008 0000 53746163 		.ascii	"Stack smashing detected\000"
 2008      6B20736D 
 2008      61736869 
 2008      6E672064 
 2008      65746563 
 2009              		.text
 2010              	.Letext0:
 2011              		.file 2 "/home/taras/Documents/EPFL/Robotique/TP/eclipse/Eclipse_e-puck2/Tools/gcc-arm-none-eabi-7
 2012              		.file 3 "/home/taras/Documents/EPFL/Robotique/TP/eclipse/Eclipse_e-puck2/Tools/gcc-arm-none-eabi-7
 2013              		.file 4 "/home/taras/Documents/EPFL/Robotique/TP/eclipse/Eclipse_e-puck2/Tools/gcc-arm-none-eabi-7
 2014              		.file 5 "/home/taras/Documents/EPFL/Robotique/TP/eclipse/Eclipse_e-puck2/Tools/gcc-arm-none-eabi-7
 2015              		.file 6 "/home/taras/Documents/EPFL/Robotique/TP/eclipse/Eclipse_e-puck2/Tools/gcc-arm-none-eabi-7
 2016              		.file 7 "/home/taras/Documents/EPFL/Robotique/TP/eclipse/Eclipse_e-puck2/Tools/gcc-arm-none-eabi-7
 2017              		.file 8 "/home/taras/Documents/EPFL/Robotique/TP/eclipse/Eclipse_e-puck2/Tools/gcc-arm-none-eabi-7
 2018              		.file 9 "/home/taras/Documents/EPFL/Robotique/TP/eclipse/Eclipse_e-puck2/Tools/gcc-arm-none-eabi-7
 2019              		.file 10 "../../lib/e-puck2_main-processor/ChibiOS//os/rt/ports/ARMCMx/compilers/GCC/chtypes.h"
 2020              		.file 11 "../../lib/e-puck2_main-processor/ChibiOS//os/rt/include/chsystypes.h"
 2021              		.file 12 "../../lib/e-puck2_main-processor/ChibiOS//os/rt/include/chschd.h"
 2022              		.file 13 "../../lib/e-puck2_main-processor/ChibiOS//os/ext/CMSIS/include/core_cm4.h"
 2023              		.file 14 "../../lib/e-puck2_main-processor/ChibiOS//os/ext/CMSIS/ST/system_stm32f4xx.h"
 2024              		.file 15 "../../lib/e-puck2_main-processor/ChibiOS//os/ext/CMSIS/ST/stm32f407xx.h"
 2025              		.file 16 "../../lib/e-puck2_main-processor/ChibiOS//os/rt/ports/ARMCMx/chcore.h"
 2026              		.file 17 "../../lib/e-puck2_main-processor/ChibiOS//os/rt/ports/ARMCMx/chcore_v7m.h"
 2027              		.file 18 "../../lib/e-puck2_main-processor/ChibiOS//os/rt/include/chdebug.h"
 2028              		.file 19 "../../lib/e-puck2_main-processor/ChibiOS//os/rt/include/chtm.h"
 2029              		.file 20 "../../lib/e-puck2_main-processor/ChibiOS//os/rt/include/chstats.h"
 2030              		.file 21 "../../lib/e-puck2_main-processor/ChibiOS//os/rt/include/chsem.h"
 2031              		.file 22 "../../lib/e-puck2_main-processor/ChibiOS//os/rt/include/chmtx.h"
 2032              		.file 23 "../../lib/e-puck2_main-processor/ChibiOS//os/rt/include/chregistry.h"
 2033              		.file 24 "../../lib/e-puck2_main-processor/ChibiOS//os/rt/include/chcond.h"
 2034              		.file 25 "../../lib/e-puck2_main-processor/ChibiOS//os/rt/include/chevents.h"
 2035              		.file 26 "../../lib/e-puck2_main-processor/ChibiOS//os/rt/include/chqueues.h"
 2036              		.file 27 "../../lib/e-puck2_main-processor/ChibiOS//os/hal/ports/STM32/STM32F4xx/stm32_dma.h"
 2037              		.file 28 "../../lib/e-puck2_main-processor/ChibiOS//os/hal/include/hal_ioblock.h"
 2038              		.file 29 "../../lib/e-puck2_main-processor/ChibiOS//os/hal/ports/STM32/LLD/GPIOv2/pal_lld.h"
 2039              		.file 30 "../../lib/e-puck2_main-processor/ChibiOS//os/hal/include/adc.h"
 2040              		.file 31 "../../lib/e-puck2_main-processor/ChibiOS//os/hal/ports/STM32/STM32F4xx/adc_lld.h"
 2041              		.file 32 "../../lib/e-puck2_main-processor/ChibiOS//os/hal/include/can.h"
 2042              		.file 33 "../../lib/e-puck2_main-processor/ChibiOS//os/hal/ports/STM32/LLD/can_lld.h"
 2043              		.file 34 "../../lib/e-puck2_main-processor/ChibiOS//os/hal/include/dac.h"
 2044              		.file 35 "../../lib/e-puck2_main-processor/ChibiOS//os/hal/ports/STM32/LLD/DACv1/dac_lld.h"
 2045              		.file 36 "../../lib/e-puck2_main-processor/ChibiOS//os/hal/include/ext.h"
 2046              		.file 37 "../../lib/e-puck2_main-processor/ChibiOS//os/hal/ports/STM32/LLD/ext_lld.h"
ARM GAS  /tmp/ccQKT6tI.s 			page 37


 2047              		.file 38 "../../lib/e-puck2_main-processor/ChibiOS//os/hal/include/gpt.h"
 2048              		.file 39 "../../lib/e-puck2_main-processor/ChibiOS//os/hal/ports/STM32/LLD/TIMv1/gpt_lld.h"
 2049              		.file 40 "../../lib/e-puck2_main-processor/ChibiOS//os/hal/ports/STM32/LLD/TIMv1/stm32_tim.h"
 2050              		.file 41 "../../lib/e-puck2_main-processor/ChibiOS//os/hal/include/i2c.h"
 2051              		.file 42 "../../lib/e-puck2_main-processor/ChibiOS//os/hal/ports/STM32/LLD/I2Cv1/i2c_lld.h"
 2052              		.file 43 "../../lib/e-puck2_main-processor/ChibiOS//os/hal/include/i2s.h"
 2053              		.file 44 "../../lib/e-puck2_main-processor/ChibiOS//os/hal/ports/STM32/LLD/SPIv1/i2s_lld.h"
 2054              		.file 45 "../../lib/e-puck2_main-processor/ChibiOS//os/hal/include/pwm.h"
 2055              		.file 46 "../../lib/e-puck2_main-processor/ChibiOS//os/hal/ports/STM32/LLD/TIMv1/pwm_lld.h"
 2056              		.file 47 "../../lib/e-puck2_main-processor/ChibiOS//os/hal/include/serial.h"
 2057              		.file 48 "../../lib/e-puck2_main-processor/ChibiOS//os/hal/ports/STM32/LLD/USARTv1/serial_lld.h"
 2058              		.file 49 "../../lib/e-puck2_main-processor/ChibiOS//os/hal/include/sdc.h"
 2059              		.file 50 "../../lib/e-puck2_main-processor/ChibiOS//os/hal/ports/STM32/LLD/sdc_lld.h"
 2060              		.file 51 "../../lib/e-puck2_main-processor/ChibiOS//os/hal/include/spi.h"
 2061              		.file 52 "../../lib/e-puck2_main-processor/ChibiOS//os/hal/ports/STM32/LLD/SPIv1/spi_lld.h"
 2062              		.file 53 "../../lib/e-puck2_main-processor/ChibiOS//os/hal/include/usb.h"
 2063              		.file 54 "../../lib/e-puck2_main-processor/ChibiOS//os/hal/ports/STM32/LLD/OTGv1/usb_lld.h"
 2064              		.file 55 "../../lib/e-puck2_main-processor/ChibiOS//os/hal/ports/STM32/LLD/OTGv1/stm32_otg.h"
 2065              		.file 56 "../../lib/e-puck2_main-processor/ChibiOS//os/hal/include/serial_usb.h"
 2066              		.file 57 "../../lib/e-puck2_main-processor/src/usbcfg.h"
 2067              		.file 58 "../../lib/e-puck2_main-processor/ChibiOS_ext/os/hal/include/../ports/STM32/STM32F4xx/dcm
 2068              		.file 59 "/home/taras/Documents/EPFL/Robotique/TP/eclipse/Eclipse_e-puck2/Tools/gcc-arm-none-eabi-
 2069              		.file 60 "../../lib/e-puck2_main-processor/src/msgbus/messagebus.h"
 2070              		.file 61 "../../lib/e-puck2_main-processor/src/parameter/parameter.h"
 2071              		.file 62 "./main.h"
 2072              		.file 63 "role_selector.h"
 2073              		.file 64 "process_image.h"
 2074              		.file 65 "motors_controller.h"
 2075              		.file 66 "../../lib/e-puck2_main-processor/src/leds.h"
 2076              		.file 67 "../../lib/e-puck2_main-processor/ChibiOS//os/rt/include/chthreads.h"
 2077              		.file 68 "../../lib/e-puck2_main-processor/ChibiOS//os/rt/include/chsys.h"
 2078              		.file 69 "bt_communication.h"
 2079              		.file 70 "../../lib/e-puck2_main-processor/ChibiOS//os/hal/include/hal.h"
 2080              		.file 71 "../../lib/e-puck2_main-processor/src/memory_protection.h"
 2081              		.file 72 "../../lib/e-puck2_main-processor/src/camera/dcmi_camera.h"
 2082              		.file 73 "../../lib/e-puck2_main-processor/src/camera/po8030.h"
 2083              		.file 74 "../../lib/e-puck2_main-processor/src/motors.h"
 2084              		.file 75 "position_calibrator.h"