ARM GAS  /tmp/cc7Scbes.s 			page 1


   1              		.cpu cortex-m4
   2              		.eabi_attribute 27, 1
   3              		.eabi_attribute 28, 1
   4              		.eabi_attribute 20, 1
   5              		.eabi_attribute 21, 1
   6              		.eabi_attribute 23, 3
   7              		.eabi_attribute 24, 1
   8              		.eabi_attribute 25, 1
   9              		.eabi_attribute 26, 1
  10              		.eabi_attribute 30, 2
  11              		.eabi_attribute 34, 1
  12              		.eabi_attribute 18, 4
  13              		.file	"motors_controller.c"
  14              		.text
  15              	.Ltext0:
  16              		.cfi_sections	.debug_frame
  17              		.section	.text.get_self_position,"ax",%progbits
  18              		.align	1
  19              		.p2align 4,,15
  20              		.global	get_self_position
  21              		.syntax unified
  22              		.thumb
  23              		.thumb_func
  24              		.fpu fpv4-sp-d16
  25              		.type	get_self_position, %function
  26              	get_self_position:
  27              	.LFB260:
  28              		.file 1 "motors_controller.c"
  29              		.loc 1 170 0
  30              		.cfi_startproc
  31              		@ args = 0, pretend = 0, frame = 8
  32              		@ frame_needed = 0, uses_anonymous_args = 0
  33 0000 00B5     		push	{lr}
  34              		.cfi_def_cfa_offset 4
  35              		.cfi_offset 14, -4
  36              		.loc 1 172 0
  37 0002 0E4A     		ldr	r2, .L6
  38              		.loc 1 170 0
  39 0004 0E4B     		ldr	r3, .L6+4
  40              		.loc 1 172 0
  41 0006 92ED007A 		vldr.32	s14, [r2]
  42              		.loc 1 173 0
  43 000a D2ED017A 		vldr.32	s15, [r2, #4]
  44              		.loc 1 170 0
  45 000e 1968     		ldr	r1, [r3]
  46              		.loc 1 172 0
  47 0010 0C48     		ldr	r0, .L6+8
  48              		.loc 1 170 0
  49 0012 83B0     		sub	sp, sp, #12
  50              		.cfi_def_cfa_offset 16
  51              		.loc 1 172 0
  52 0014 BDEEC77A 		vcvt.s32.f32	s14, s14
  53              		.loc 1 170 0
  54 0018 0191     		str	r1, [sp, #4]
  55              		.loc 1 173 0
  56 001a FDEEE77A 		vcvt.s32.f32	s15, s15
  57              		.loc 1 172 0
ARM GAS  /tmp/cc7Scbes.s 			page 2


  58 001e 17EE101A 		vmov	r1, s14	@ int
  59              		.loc 1 175 0
  60 0022 019A     		ldr	r2, [sp, #4]
  61 0024 1B68     		ldr	r3, [r3]
  62              		.loc 1 172 0
  63 0026 0180     		strh	r1, [r0]	@ movhi
  64              		.loc 1 173 0
  65 0028 17EE901A 		vmov	r1, s15	@ int
  66              		.loc 1 175 0
  67 002c 9A42     		cmp	r2, r3
  68              		.loc 1 173 0
  69 002e 4180     		strh	r1, [r0, #2]	@ movhi
  70              		.loc 1 175 0
  71 0030 02D1     		bne	.L5
  72 0032 03B0     		add	sp, sp, #12
  73              		.cfi_remember_state
  74              		.cfi_def_cfa_offset 4
  75              		@ sp needed
  76 0034 5DF804FB 		ldr	pc, [sp], #4
  77              	.L5:
  78              		.cfi_restore_state
  79 0038 FFF7FEFF 		bl	__stack_chk_fail
  80              	.LVL0:
  81              	.L7:
  82              		.align	2
  83              	.L6:
  84 003c 00000000 		.word	.LANCHOR1
  85 0040 00000000 		.word	__stack_chk_guard
  86 0044 00000000 		.word	.LANCHOR0
  87              		.cfi_endproc
  88              	.LFE260:
  89              		.size	get_self_position, .-get_self_position
  90              		.section	.text.get_self_angle,"ax",%progbits
  91              		.align	1
  92              		.p2align 4,,15
  93              		.global	get_self_angle
  94              		.syntax unified
  95              		.thumb
  96              		.thumb_func
  97              		.fpu fpv4-sp-d16
  98              		.type	get_self_angle, %function
  99              	get_self_angle:
 100              	.LFB261:
 101              		.loc 1 177 0
 102              		.cfi_startproc
 103              		@ args = 0, pretend = 0, frame = 8
 104              		@ frame_needed = 0, uses_anonymous_args = 0
 105 0000 00B5     		push	{lr}
 106              		.cfi_def_cfa_offset 4
 107              		.cfi_offset 14, -4
 108 0002 0A4B     		ldr	r3, .L12
 109              		.loc 1 178 0
 110 0004 0A49     		ldr	r1, .L12+4
 111              		.loc 1 177 0
 112 0006 1A68     		ldr	r2, [r3]
 113              		.loc 1 178 0
 114 0008 D1ED007A 		vldr.32	s15, [r1]
ARM GAS  /tmp/cc7Scbes.s 			page 3


 115              		.loc 1 177 0
 116 000c 83B0     		sub	sp, sp, #12
 117              		.cfi_def_cfa_offset 16
 118              		.loc 1 177 0
 119 000e 0192     		str	r2, [sp, #4]
 120              		.loc 1 179 0
 121 0010 019A     		ldr	r2, [sp, #4]
 122 0012 1B68     		ldr	r3, [r3]
 123 0014 9A42     		cmp	r2, r3
 124 0016 07D1     		bne	.L11
 125 0018 FDEEE77A 		vcvt.s32.f32	s15, s15
 126 001c 17EE901A 		vmov	r1, s15	@ int
 127 0020 08B2     		sxth	r0, r1
 128 0022 03B0     		add	sp, sp, #12
 129              		.cfi_remember_state
 130              		.cfi_def_cfa_offset 4
 131              		@ sp needed
 132 0024 5DF804FB 		ldr	pc, [sp], #4
 133              	.L11:
 134              		.cfi_restore_state
 135 0028 FFF7FEFF 		bl	__stack_chk_fail
 136              	.LVL1:
 137              	.L13:
 138              		.align	2
 139              	.L12:
 140 002c 00000000 		.word	__stack_chk_guard
 141 0030 00000000 		.word	.LANCHOR2
 142              		.cfi_endproc
 143              	.LFE261:
 144              		.size	get_self_angle, .-get_self_angle
 145              		.section	.text.get_angle_achieved,"ax",%progbits
 146              		.align	1
 147              		.p2align 4,,15
 148              		.global	get_angle_achieved
 149              		.syntax unified
 150              		.thumb
 151              		.thumb_func
 152              		.fpu fpv4-sp-d16
 153              		.type	get_angle_achieved, %function
 154              	get_angle_achieved:
 155              	.LFB262:
 156              		.loc 1 181 0
 157              		.cfi_startproc
 158              		@ args = 0, pretend = 0, frame = 8
 159              		@ frame_needed = 0, uses_anonymous_args = 0
 160 0000 00B5     		push	{lr}
 161              		.cfi_def_cfa_offset 4
 162              		.cfi_offset 14, -4
 163 0002 074B     		ldr	r3, .L18
 164              		.loc 1 182 0
 165 0004 0749     		ldr	r1, .L18+4
 166              		.loc 1 181 0
 167 0006 1A68     		ldr	r2, [r3]
 168              		.loc 1 183 0
 169 0008 0878     		ldrb	r0, [r1]	@ zero_extendqisi2
 170              		.loc 1 181 0
 171 000a 83B0     		sub	sp, sp, #12
ARM GAS  /tmp/cc7Scbes.s 			page 4


 172              		.cfi_def_cfa_offset 16
 173              		.loc 1 181 0
 174 000c 0192     		str	r2, [sp, #4]
 175              		.loc 1 183 0
 176 000e 019A     		ldr	r2, [sp, #4]
 177 0010 1B68     		ldr	r3, [r3]
 178 0012 9A42     		cmp	r2, r3
 179 0014 02D1     		bne	.L17
 180 0016 03B0     		add	sp, sp, #12
 181              		.cfi_remember_state
 182              		.cfi_def_cfa_offset 4
 183              		@ sp needed
 184 0018 5DF804FB 		ldr	pc, [sp], #4
 185              	.L17:
 186              		.cfi_restore_state
 187 001c FFF7FEFF 		bl	__stack_chk_fail
 188              	.LVL2:
 189              	.L19:
 190              		.align	2
 191              	.L18:
 192 0020 00000000 		.word	__stack_chk_guard
 193 0024 00000000 		.word	.LANCHOR3
 194              		.cfi_endproc
 195              	.LFE262:
 196              		.size	get_angle_achieved, .-get_angle_achieved
 197              		.section	.text.get_position_achieved,"ax",%progbits
 198              		.align	1
 199              		.p2align 4,,15
 200              		.global	get_position_achieved
 201              		.syntax unified
 202              		.thumb
 203              		.thumb_func
 204              		.fpu fpv4-sp-d16
 205              		.type	get_position_achieved, %function
 206              	get_position_achieved:
 207              	.LFB263:
 208              		.loc 1 185 0
 209              		.cfi_startproc
 210              		@ args = 0, pretend = 0, frame = 8
 211              		@ frame_needed = 0, uses_anonymous_args = 0
 212 0000 00B5     		push	{lr}
 213              		.cfi_def_cfa_offset 4
 214              		.cfi_offset 14, -4
 215 0002 074B     		ldr	r3, .L24
 216              		.loc 1 186 0
 217 0004 0749     		ldr	r1, .L24+4
 218              		.loc 1 185 0
 219 0006 1A68     		ldr	r2, [r3]
 220              		.loc 1 187 0
 221 0008 0878     		ldrb	r0, [r1]	@ zero_extendqisi2
 222              		.loc 1 185 0
 223 000a 83B0     		sub	sp, sp, #12
 224              		.cfi_def_cfa_offset 16
 225              		.loc 1 185 0
 226 000c 0192     		str	r2, [sp, #4]
 227              		.loc 1 187 0
 228 000e 019A     		ldr	r2, [sp, #4]
ARM GAS  /tmp/cc7Scbes.s 			page 5


 229 0010 1B68     		ldr	r3, [r3]
 230 0012 9A42     		cmp	r2, r3
 231 0014 02D1     		bne	.L23
 232 0016 03B0     		add	sp, sp, #12
 233              		.cfi_remember_state
 234              		.cfi_def_cfa_offset 4
 235              		@ sp needed
 236 0018 5DF804FB 		ldr	pc, [sp], #4
 237              	.L23:
 238              		.cfi_restore_state
 239 001c FFF7FEFF 		bl	__stack_chk_fail
 240              	.LVL3:
 241              	.L25:
 242              		.align	2
 243              	.L24:
 244 0020 00000000 		.word	__stack_chk_guard
 245 0024 00000000 		.word	.LANCHOR4
 246              		.cfi_endproc
 247              	.LFE263:
 248              		.size	get_position_achieved, .-get_position_achieved
 249              		.section	.text.get_position_objective,"ax",%progbits
 250              		.align	1
 251              		.p2align 4,,15
 252              		.global	get_position_objective
 253              		.syntax unified
 254              		.thumb
 255              		.thumb_func
 256              		.fpu fpv4-sp-d16
 257              		.type	get_position_objective, %function
 258              	get_position_objective:
 259              	.LFB264:
 260              		.loc 1 189 0
 261              		.cfi_startproc
 262              		@ args = 0, pretend = 0, frame = 8
 263              		@ frame_needed = 0, uses_anonymous_args = 0
 264 0000 00B5     		push	{lr}
 265              		.cfi_def_cfa_offset 4
 266              		.cfi_offset 14, -4
 267              		.loc 1 191 0
 268 0002 0E4A     		ldr	r2, .L30
 269              		.loc 1 189 0
 270 0004 0E4B     		ldr	r3, .L30+4
 271              		.loc 1 191 0
 272 0006 92ED007A 		vldr.32	s14, [r2]
 273              		.loc 1 192 0
 274 000a D2ED017A 		vldr.32	s15, [r2, #4]
 275              		.loc 1 189 0
 276 000e 1968     		ldr	r1, [r3]
 277              		.loc 1 191 0
 278 0010 0C48     		ldr	r0, .L30+8
 279              		.loc 1 189 0
 280 0012 83B0     		sub	sp, sp, #12
 281              		.cfi_def_cfa_offset 16
 282              		.loc 1 191 0
 283 0014 BDEEC77A 		vcvt.s32.f32	s14, s14
 284              		.loc 1 189 0
 285 0018 0191     		str	r1, [sp, #4]
ARM GAS  /tmp/cc7Scbes.s 			page 6


 286              		.loc 1 192 0
 287 001a FDEEE77A 		vcvt.s32.f32	s15, s15
 288              		.loc 1 191 0
 289 001e 17EE101A 		vmov	r1, s14	@ int
 290              		.loc 1 194 0
 291 0022 019A     		ldr	r2, [sp, #4]
 292 0024 1B68     		ldr	r3, [r3]
 293              		.loc 1 191 0
 294 0026 0180     		strh	r1, [r0]	@ movhi
 295              		.loc 1 192 0
 296 0028 17EE901A 		vmov	r1, s15	@ int
 297              		.loc 1 194 0
 298 002c 9A42     		cmp	r2, r3
 299              		.loc 1 192 0
 300 002e 4180     		strh	r1, [r0, #2]	@ movhi
 301              		.loc 1 194 0
 302 0030 02D1     		bne	.L29
 303 0032 03B0     		add	sp, sp, #12
 304              		.cfi_remember_state
 305              		.cfi_def_cfa_offset 4
 306              		@ sp needed
 307 0034 5DF804FB 		ldr	pc, [sp], #4
 308              	.L29:
 309              		.cfi_restore_state
 310 0038 FFF7FEFF 		bl	__stack_chk_fail
 311              	.LVL4:
 312              	.L31:
 313              		.align	2
 314              	.L30:
 315 003c 00000000 		.word	.LANCHOR6
 316 0040 00000000 		.word	__stack_chk_guard
 317 0044 00000000 		.word	.LANCHOR5
 318              		.cfi_endproc
 319              	.LFE264:
 320              		.size	get_position_objective, .-get_position_objective
 321              		.section	.text.set_angle_obj,"ax",%progbits
 322              		.align	1
 323              		.p2align 4,,15
 324              		.global	set_angle_obj
 325              		.syntax unified
 326              		.thumb
 327              		.thumb_func
 328              		.fpu fpv4-sp-d16
 329              		.type	set_angle_obj, %function
 330              	set_angle_obj:
 331              	.LFB265:
 332              		.loc 1 197 0
 333              		.cfi_startproc
 334              		@ args = 0, pretend = 0, frame = 8
 335              		@ frame_needed = 0, uses_anonymous_args = 0
 336              	.LVL5:
 337 0000 10B5     		push	{r4, lr}
 338              		.cfi_def_cfa_offset 8
 339              		.cfi_offset 4, -8
 340              		.cfi_offset 14, -4
 341 0002 0B4B     		ldr	r3, .L36
 342              		.loc 1 198 0
ARM GAS  /tmp/cc7Scbes.s 			page 7


 343 0004 0B4C     		ldr	r4, .L36+4
 344              		.loc 1 197 0
 345 0006 1A68     		ldr	r2, [r3]
 346              		.loc 1 199 0
 347 0008 0B49     		ldr	r1, .L36+8
 348              		.loc 1 197 0
 349 000a 82B0     		sub	sp, sp, #8
 350              		.cfi_def_cfa_offset 16
 351              		.loc 1 199 0
 352 000c 07EE900A 		vmov	s15, r0	@ int
 353              		.loc 1 197 0
 354 0010 0192     		str	r2, [sp, #4]
 355              		.loc 1 200 0
 356 0012 019A     		ldr	r2, [sp, #4]
 357 0014 1B68     		ldr	r3, [r3]
 358              		.loc 1 199 0
 359 0016 F8EE677A 		vcvt.f32.u32	s15, s15
 360              		.loc 1 198 0
 361 001a 0020     		movs	r0, #0
 362              	.LVL6:
 363              		.loc 1 200 0
 364 001c 9A42     		cmp	r2, r3
 365              		.loc 1 198 0
 366 001e 2070     		strb	r0, [r4]
 367              		.loc 1 199 0
 368 0020 C1ED007A 		vstr.32	s15, [r1]
 369              		.loc 1 200 0
 370 0024 01D1     		bne	.L35
 371 0026 02B0     		add	sp, sp, #8
 372              		.cfi_remember_state
 373              		.cfi_def_cfa_offset 8
 374              		@ sp needed
 375 0028 10BD     		pop	{r4, pc}
 376              	.L35:
 377              		.cfi_restore_state
 378 002a FFF7FEFF 		bl	__stack_chk_fail
 379              	.LVL7:
 380              	.L37:
 381 002e 00BF     		.align	2
 382              	.L36:
 383 0030 00000000 		.word	__stack_chk_guard
 384 0034 00000000 		.word	.LANCHOR3
 385 0038 00000000 		.word	.LANCHOR7
 386              		.cfi_endproc
 387              	.LFE265:
 388              		.size	set_angle_obj, .-set_angle_obj
 389              		.section	.text.set_distance_forward,"ax",%progbits
 390              		.align	1
 391              		.p2align 4,,15
 392              		.global	set_distance_forward
 393              		.syntax unified
 394              		.thumb
 395              		.thumb_func
 396              		.fpu fpv4-sp-d16
 397              		.type	set_distance_forward, %function
 398              	set_distance_forward:
 399              	.LFB266:
ARM GAS  /tmp/cc7Scbes.s 			page 8


 400              		.loc 1 202 0
 401              		.cfi_startproc
 402              		@ args = 0, pretend = 0, frame = 8
 403              		@ frame_needed = 0, uses_anonymous_args = 0
 404              	.LVL8:
 405 0000 70B5     		push	{r4, r5, r6, lr}
 406              		.cfi_def_cfa_offset 16
 407              		.cfi_offset 4, -16
 408              		.cfi_offset 5, -12
 409              		.cfi_offset 6, -8
 410              		.cfi_offset 14, -4
 411 0002 2DED028B 		vpush.64	{d8}
 412              		.cfi_def_cfa_offset 24
 413              		.cfi_offset 80, -24
 414              		.cfi_offset 81, -20
 415              		.loc 1 204 0
 416 0006 1A4B     		ldr	r3, .L42
 417 0008 DFED1A6A 		vldr.32	s13, .L42+4
 418 000c D3ED007A 		vldr.32	s15, [r3]
 419 0010 9FED197A 		vldr.32	s14, .L42+8
 420              		.loc 1 202 0
 421 0014 194D     		ldr	r5, .L42+12
 422              		.loc 1 203 0
 423 0016 1A4B     		ldr	r3, .L42+16
 424              		.loc 1 202 0
 425 0018 2A68     		ldr	r2, [r5]
 426              		.loc 1 204 0
 427 001a 1A4E     		ldr	r6, .L42+20
 428 001c 1A4C     		ldr	r4, .L42+24
 429 001e 67EEA67A 		vmul.f32	s15, s15, s13
 430              		.loc 1 202 0
 431 0022 82B0     		sub	sp, sp, #8
 432              		.cfi_def_cfa_offset 32
 433              		.loc 1 204 0
 434 0024 C7EE878A 		vdiv.f32	s17, s15, s14
 435              		.loc 1 202 0
 436 0028 0192     		str	r2, [sp, #4]
 437              		.loc 1 203 0
 438 002a 0022     		movs	r2, #0
 439 002c 1A70     		strb	r2, [r3]
 440              		.loc 1 202 0
 441 002e B0EE408A 		vmov.f32	s16, s0
 442              		.loc 1 204 0
 443 0032 B0EE680A 		vmov.f32	s0, s17
 444              	.LVL9:
 445 0036 FFF7FEFF 		bl	cosf
 446              	.LVL10:
 447 003a D6ED007A 		vldr.32	s15, [r6]
 448 003e E0EE087A 		vfma.f32	s15, s0, s16
 449              		.loc 1 205 0
 450 0042 B0EE680A 		vmov.f32	s0, s17
 451              		.loc 1 204 0
 452 0046 C4ED007A 		vstr.32	s15, [r4]
 453              		.loc 1 205 0
 454 004a FFF7FEFF 		bl	sinf
 455              	.LVL11:
 456 004e D6ED017A 		vldr.32	s15, [r6, #4]
ARM GAS  /tmp/cc7Scbes.s 			page 9


 457              		.loc 1 206 0
 458 0052 019A     		ldr	r2, [sp, #4]
 459 0054 2B68     		ldr	r3, [r5]
 460              		.loc 1 205 0
 461 0056 E0EE087A 		vfma.f32	s15, s0, s16
 462              		.loc 1 206 0
 463 005a 9A42     		cmp	r2, r3
 464              		.loc 1 205 0
 465 005c C4ED017A 		vstr.32	s15, [r4, #4]
 466              		.loc 1 206 0
 467 0060 03D1     		bne	.L41
 468 0062 02B0     		add	sp, sp, #8
 469              		.cfi_remember_state
 470              		.cfi_def_cfa_offset 24
 471              		@ sp needed
 472 0064 BDEC028B 		vldm	sp!, {d8}
 473              		.cfi_restore 80
 474              		.cfi_restore 81
 475              		.cfi_def_cfa_offset 16
 476              	.LVL12:
 477 0068 70BD     		pop	{r4, r5, r6, pc}
 478              	.LVL13:
 479              	.L41:
 480              		.cfi_restore_state
 481 006a FFF7FEFF 		bl	__stack_chk_fail
 482              	.LVL14:
 483              	.L43:
 484 006e 00BF     		.align	2
 485              	.L42:
 486 0070 00000000 		.word	.LANCHOR2
 487 0074 DB0F4940 		.word	1078530011
 488 0078 00003443 		.word	1127481344
 489 007c 00000000 		.word	__stack_chk_guard
 490 0080 00000000 		.word	.LANCHOR4
 491 0084 00000000 		.word	.LANCHOR1
 492 0088 00000000 		.word	.LANCHOR6
 493              		.cfi_endproc
 494              	.LFE266:
 495              		.size	set_distance_forward, .-set_distance_forward
 496              		.section	.text.set_position_obj,"ax",%progbits
 497              		.align	1
 498              		.p2align 4,,15
 499              		.global	set_position_obj
 500              		.syntax unified
 501              		.thumb
 502              		.thumb_func
 503              		.fpu fpv4-sp-d16
 504              		.type	set_position_obj, %function
 505              	set_position_obj:
 506              	.LFB267:
 507              		.loc 1 208 0
 508              		.cfi_startproc
 509              		@ args = 0, pretend = 0, frame = 8
 510              		@ frame_needed = 0, uses_anonymous_args = 0
 511              	.LVL15:
 512 0000 30B5     		push	{r4, r5, lr}
 513              		.cfi_def_cfa_offset 12
ARM GAS  /tmp/cc7Scbes.s 			page 10


 514              		.cfi_offset 4, -12
 515              		.cfi_offset 5, -8
 516              		.cfi_offset 14, -4
 517              		.loc 1 214 0
 518 0002 B0F90020 		ldrsh	r2, [r0]
 519 0006 214B     		ldr	r3, .L48
 520              		.loc 1 208 0
 521 0008 214D     		ldr	r5, .L48+4
 522              		.loc 1 214 0
 523 000a 93ED007A 		vldr.32	s14, [r3]
 524 000e D3ED017A 		vldr.32	s15, [r3, #4]
 525              		.loc 1 212 0
 526 0012 2049     		ldr	r1, .L48+8
 527              		.loc 1 208 0
 528 0014 2B68     		ldr	r3, [r5]
 529              		.loc 1 214 0
 530 0016 00EE902A 		vmov	s1, r2	@ int
 531 001a B0F90220 		ldrsh	r2, [r0, #2]
 532 001e 00EE102A 		vmov	s0, r2	@ int
 533              		.loc 1 208 0
 534 0022 83B0     		sub	sp, sp, #12
 535              		.cfi_def_cfa_offset 24
 536              		.loc 1 214 0
 537 0024 F8EEE00A 		vcvt.f32.s32	s1, s1
 538 0028 B8EEC00A 		vcvt.f32.s32	s0, s0
 539              		.loc 1 213 0
 540 002c 1A4A     		ldr	r2, .L48+12
 541              		.loc 1 208 0
 542 002e 0193     		str	r3, [sp, #4]
 543              		.loc 1 214 0
 544 0030 70EEC70A 		vsub.f32	s1, s1, s14
 545              		.loc 1 212 0
 546 0034 0023     		movs	r3, #0
 547              		.loc 1 214 0
 548 0036 30EE670A 		vsub.f32	s0, s0, s15
 549              		.loc 1 208 0
 550 003a 0446     		mov	r4, r0
 551              		.loc 1 212 0
 552 003c 0B70     		strb	r3, [r1]
 553              		.loc 1 213 0
 554 003e 1370     		strb	r3, [r2]
 555              		.loc 1 214 0
 556 0040 FFF7FEFF 		bl	atan2f
 557              	.LVL16:
 558 0044 9FED157A 		vldr.32	s14, .L48+16
 559 0048 DFED156A 		vldr.32	s13, .L48+20
 560              		.loc 1 215 0
 561 004c B4F90030 		ldrsh	r3, [r4]
 562              		.loc 1 217 0
 563 0050 0199     		ldr	r1, [sp, #4]
 564 0052 2A68     		ldr	r2, [r5]
 565              		.loc 1 214 0
 566 0054 1348     		ldr	r0, .L48+24
 567 0056 20EE070A 		vmul.f32	s0, s0, s14
 568              		.loc 1 215 0
 569 005a 07EE903A 		vmov	s15, r3	@ int
 570              		.loc 1 214 0
ARM GAS  /tmp/cc7Scbes.s 			page 11


 571 005e 80EE267A 		vdiv.f32	s14, s0, s13
 572              		.loc 1 215 0
 573 0062 114B     		ldr	r3, .L48+28
 574              		.loc 1 217 0
 575 0064 9142     		cmp	r1, r2
 576              		.loc 1 215 0
 577 0066 F8EEE77A 		vcvt.f32.s32	s15, s15
 578              		.loc 1 214 0
 579 006a 80ED007A 		vstr.32	s14, [r0]
 580              		.loc 1 215 0
 581 006e C3ED007A 		vstr.32	s15, [r3]
 582              		.loc 1 216 0
 583 0072 B4F90240 		ldrsh	r4, [r4, #2]
 584              	.LVL17:
 585 0076 07EE904A 		vmov	s15, r4	@ int
 586 007a F8EEE77A 		vcvt.f32.s32	s15, s15
 587 007e C3ED017A 		vstr.32	s15, [r3, #4]
 588              		.loc 1 217 0
 589 0082 01D1     		bne	.L47
 590 0084 03B0     		add	sp, sp, #12
 591              		.cfi_remember_state
 592              		.cfi_def_cfa_offset 12
 593              		@ sp needed
 594 0086 30BD     		pop	{r4, r5, pc}
 595              	.L47:
 596              		.cfi_restore_state
 597 0088 FFF7FEFF 		bl	__stack_chk_fail
 598              	.LVL18:
 599              	.L49:
 600              		.align	2
 601              	.L48:
 602 008c 00000000 		.word	.LANCHOR1
 603 0090 00000000 		.word	__stack_chk_guard
 604 0094 00000000 		.word	.LANCHOR3
 605 0098 00000000 		.word	.LANCHOR4
 606 009c 00003443 		.word	1127481344
 607 00a0 DB0F4940 		.word	1078530011
 608 00a4 00000000 		.word	.LANCHOR7
 609 00a8 00000000 		.word	.LANCHOR6
 610              		.cfi_endproc
 611              	.LFE267:
 612              		.size	set_position_obj, .-set_position_obj
 613              		.section	.text.set_rotation_speed,"ax",%progbits
 614              		.align	1
 615              		.p2align 4,,15
 616              		.global	set_rotation_speed
 617              		.syntax unified
 618              		.thumb
 619              		.thumb_func
 620              		.fpu fpv4-sp-d16
 621              		.type	set_rotation_speed, %function
 622              	set_rotation_speed:
 623              	.LFB268:
 624              		.loc 1 219 0
 625              		.cfi_startproc
 626              		@ args = 0, pretend = 0, frame = 8
 627              		@ frame_needed = 0, uses_anonymous_args = 0
ARM GAS  /tmp/cc7Scbes.s 			page 12


 628              	.LVL19:
 629 0000 70B5     		push	{r4, r5, r6, lr}
 630              		.cfi_def_cfa_offset 16
 631              		.cfi_offset 4, -16
 632              		.cfi_offset 5, -12
 633              		.cfi_offset 6, -8
 634              		.cfi_offset 14, -4
 635 0002 124C     		ldr	r4, .L59
 636              		.loc 1 220 0
 637 0004 124D     		ldr	r5, .L59+4
 638              		.loc 1 219 0
 639 0006 2368     		ldr	r3, [r4]
 640              		.loc 1 221 0
 641 0008 124A     		ldr	r2, .L59+8
 642              		.loc 1 219 0
 643 000a 82B0     		sub	sp, sp, #8
 644              		.cfi_def_cfa_offset 24
 645 000c 4642     		negs	r6, r0
 646              		.loc 1 219 0
 647 000e 0193     		str	r3, [sp, #4]
 648              		.loc 1 220 0
 649 0010 0123     		movs	r3, #1
 650 0012 2B70     		strb	r3, [r5]
 651              		.loc 1 221 0
 652 0014 1370     		strb	r3, [r2]
 653              		.loc 1 222 0
 654 0016 71B9     		cbnz	r1, .L58
 655 0018 0546     		mov	r5, r0
 656              		.loc 1 226 0
 657 001a 3046     		mov	r0, r6
 658              	.LVL20:
 659 001c FFF7FEFF 		bl	left_motor_set_speed
 660              	.LVL21:
 661              		.loc 1 227 0
 662 0020 019A     		ldr	r2, [sp, #4]
 663 0022 2368     		ldr	r3, [r4]
 664 0024 9A42     		cmp	r2, r3
 665 0026 08BF     		it	eq
 666 0028 2846     		moveq	r0, r5
 667 002a 0CD1     		bne	.L57
 668              	.L56:
 669              		.loc 1 229 0
 670 002c 02B0     		add	sp, sp, #8
 671              		.cfi_remember_state
 672              		.cfi_def_cfa_offset 16
 673              		@ sp needed
 674 002e BDE87040 		pop	{r4, r5, r6, lr}
 675              		.cfi_restore 14
 676              		.cfi_restore 6
 677              		.cfi_restore 5
 678              		.cfi_restore 4
 679              		.cfi_def_cfa_offset 0
 680              		.loc 1 227 0
 681 0032 FFF7FEBF 		b	right_motor_set_speed
 682              	.LVL22:
 683              	.L58:
 684              		.cfi_restore_state
ARM GAS  /tmp/cc7Scbes.s 			page 13


 685              		.loc 1 223 0
 686 0036 FFF7FEFF 		bl	left_motor_set_speed
 687              	.LVL23:
 688              		.loc 1 224 0
 689 003a 019A     		ldr	r2, [sp, #4]
 690 003c 2368     		ldr	r3, [r4]
 691 003e 9A42     		cmp	r2, r3
 692 0040 08BF     		it	eq
 693 0042 3046     		moveq	r0, r6
 694 0044 F2D0     		beq	.L56
 695              	.L57:
 696              		.loc 1 227 0
 697 0046 FFF7FEFF 		bl	__stack_chk_fail
 698              	.LVL24:
 699              	.L60:
 700 004a 00BF     		.align	2
 701              	.L59:
 702 004c 00000000 		.word	__stack_chk_guard
 703 0050 00000000 		.word	.LANCHOR3
 704 0054 00000000 		.word	.LANCHOR4
 705              		.cfi_endproc
 706              	.LFE268:
 707              		.size	set_rotation_speed, .-set_rotation_speed
 708              		.section	.text.closest_point_to_obj,"ax",%progbits
 709              		.align	1
 710              		.p2align 4,,15
 711              		.global	closest_point_to_obj
 712              		.syntax unified
 713              		.thumb
 714              		.thumb_func
 715              		.fpu fpv4-sp-d16
 716              		.type	closest_point_to_obj, %function
 717              	closest_point_to_obj:
 718              	.LFB269:
 719              		.loc 1 232 0
 720              		.cfi_startproc
 721              		@ args = 0, pretend = 0, frame = 8
 722              		@ frame_needed = 0, uses_anonymous_args = 0
 723              	.LVL25:
 724 0000 00B5     		push	{lr}
 725              		.cfi_def_cfa_offset 4
 726              		.cfi_offset 14, -4
 727              		.loc 1 235 0
 728 0002 B1F90220 		ldrsh	r2, [r1, #2]
 729              		.loc 1 234 0
 730 0006 B0F90230 		ldrsh	r3, [r0, #2]
 731              		.loc 1 235 0
 732 000a 07EE102A 		vmov	s14, r2	@ int
 733              		.loc 1 234 0
 734 000e B0F90020 		ldrsh	r2, [r0]
 735 0012 07EE903A 		vmov	s15, r3	@ int
 736 0016 06EE102A 		vmov	s12, r2	@ int
 737 001a 1A4B     		ldr	r3, .L67
 738              		.loc 1 235 0
 739 001c B1F90020 		ldrsh	r2, [r1]
 740              		.loc 1 234 0
 741 0020 D3ED016A 		vldr.32	s13, [r3, #4]
ARM GAS  /tmp/cc7Scbes.s 			page 14


 742 0024 D3ED005A 		vldr.32	s11, [r3]
 743              		.loc 1 232 0
 744 0028 174B     		ldr	r3, .L67+4
 745              		.loc 1 235 0
 746 002a 05EE102A 		vmov	s10, r2	@ int
 747              		.loc 1 234 0
 748 002e F8EEE77A 		vcvt.f32.s32	s15, s15
 749              		.loc 1 235 0
 750 0032 B8EEC77A 		vcvt.f32.s32	s14, s14
 751              		.loc 1 234 0
 752 0036 76EEE77A 		vsub.f32	s15, s13, s15
 753 003a B8EEC66A 		vcvt.f32.s32	s12, s12
 754              		.loc 1 235 0
 755 003e 36EEC77A 		vsub.f32	s14, s13, s14
 756 0042 B8EEC55A 		vcvt.f32.s32	s10, s10
 757              		.loc 1 234 0
 758 0046 75EEC66A 		vsub.f32	s13, s11, s12
 759 004a 67EEA77A 		vmul.f32	s15, s15, s15
 760              		.loc 1 235 0
 761 004e 27EE077A 		vmul.f32	s14, s14, s14
 762 0052 35EEC56A 		vsub.f32	s12, s11, s10
 763              		.loc 1 234 0
 764 0056 E6EEA67A 		vfma.f32	s15, s13, s13
 765              		.loc 1 232 0
 766 005a 83B0     		sub	sp, sp, #12
 767              		.cfi_def_cfa_offset 16
 768              		.loc 1 232 0
 769 005c 1A68     		ldr	r2, [r3]
 770 005e 0192     		str	r2, [sp, #4]
 771              		.loc 1 235 0
 772 0060 A6EE067A 		vfma.f32	s14, s12, s12
 773              		.loc 1 240 0
 774 0064 019A     		ldr	r2, [sp, #4]
 775 0066 1B68     		ldr	r3, [r3]
 776              		.loc 1 234 0
 777 0068 F4EEC77A 		vcmpe.f32	s15, s14
 778 006c F1EE10FA 		vmrs	APSR_nzcv, FPSCR
 779              		.loc 1 240 0
 780 0070 94BF     		ite	ls
 781 0072 0120     		movls	r0, #1
 782              	.LVL26:
 783 0074 0220     		movhi	r0, #2
 784 0076 9A42     		cmp	r2, r3
 785 0078 02D1     		bne	.L66
 786 007a 03B0     		add	sp, sp, #12
 787              		.cfi_remember_state
 788              		.cfi_def_cfa_offset 4
 789              		@ sp needed
 790 007c 5DF804FB 		ldr	pc, [sp], #4
 791              	.L66:
 792              		.cfi_restore_state
 793 0080 FFF7FEFF 		bl	__stack_chk_fail
 794              	.LVL27:
 795              	.L68:
 796              		.align	2
 797              	.L67:
 798 0084 00000000 		.word	.LANCHOR6
ARM GAS  /tmp/cc7Scbes.s 			page 15


 799 0088 00000000 		.word	__stack_chk_guard
 800              		.cfi_endproc
 801              	.LFE269:
 802              		.size	closest_point_to_obj, .-closest_point_to_obj
 803              		.section	.text.set_intermediate_point,"ax",%progbits
 804              		.align	1
 805              		.p2align 4,,15
 806              		.global	set_intermediate_point
 807              		.syntax unified
 808              		.thumb
 809              		.thumb_func
 810              		.fpu fpv4-sp-d16
 811              		.type	set_intermediate_point, %function
 812              	set_intermediate_point:
 813              	.LFB270:
 814              		.loc 1 242 0
 815              		.cfi_startproc
 816              		@ args = 0, pretend = 0, frame = 8
 817              		@ frame_needed = 0, uses_anonymous_args = 0
 818              	.LVL28:
 819 0000 30B5     		push	{r4, r5, lr}
 820              		.cfi_def_cfa_offset 12
 821              		.cfi_offset 4, -12
 822              		.cfi_offset 5, -8
 823              		.cfi_offset 14, -4
 824              		.loc 1 245 0
 825 0002 B0F90020 		ldrsh	r2, [r0]
 826 0006 214B     		ldr	r3, .L73
 827              		.loc 1 242 0
 828 0008 214D     		ldr	r5, .L73+4
 829              		.loc 1 245 0
 830 000a 93ED007A 		vldr.32	s14, [r3]
 831 000e D3ED017A 		vldr.32	s15, [r3, #4]
 832              		.loc 1 243 0
 833 0012 2049     		ldr	r1, .L73+8
 834              		.loc 1 242 0
 835 0014 2B68     		ldr	r3, [r5]
 836              		.loc 1 245 0
 837 0016 00EE902A 		vmov	s1, r2	@ int
 838 001a B0F90220 		ldrsh	r2, [r0, #2]
 839 001e 00EE102A 		vmov	s0, r2	@ int
 840              		.loc 1 242 0
 841 0022 83B0     		sub	sp, sp, #12
 842              		.cfi_def_cfa_offset 24
 843              		.loc 1 245 0
 844 0024 F8EEE00A 		vcvt.f32.s32	s1, s1
 845 0028 B8EEC00A 		vcvt.f32.s32	s0, s0
 846              		.loc 1 244 0
 847 002c 1A4A     		ldr	r2, .L73+12
 848              		.loc 1 242 0
 849 002e 0193     		str	r3, [sp, #4]
 850              		.loc 1 245 0
 851 0030 70EEC70A 		vsub.f32	s1, s1, s14
 852              		.loc 1 243 0
 853 0034 0023     		movs	r3, #0
 854              		.loc 1 245 0
 855 0036 30EE670A 		vsub.f32	s0, s0, s15
ARM GAS  /tmp/cc7Scbes.s 			page 16


 856              		.loc 1 242 0
 857 003a 0446     		mov	r4, r0
 858              		.loc 1 243 0
 859 003c 0B70     		strb	r3, [r1]
 860              		.loc 1 244 0
 861 003e 1370     		strb	r3, [r2]
 862              		.loc 1 245 0
 863 0040 FFF7FEFF 		bl	atan2f
 864              	.LVL29:
 865 0044 9FED157A 		vldr.32	s14, .L73+16
 866 0048 DFED156A 		vldr.32	s13, .L73+20
 867              		.loc 1 246 0
 868 004c B4F90030 		ldrsh	r3, [r4]
 869              		.loc 1 248 0
 870 0050 0199     		ldr	r1, [sp, #4]
 871 0052 2A68     		ldr	r2, [r5]
 872              		.loc 1 245 0
 873 0054 1348     		ldr	r0, .L73+24
 874 0056 20EE070A 		vmul.f32	s0, s0, s14
 875              		.loc 1 246 0
 876 005a 07EE903A 		vmov	s15, r3	@ int
 877              		.loc 1 245 0
 878 005e 80EE267A 		vdiv.f32	s14, s0, s13
 879              		.loc 1 246 0
 880 0062 114B     		ldr	r3, .L73+28
 881              		.loc 1 248 0
 882 0064 9142     		cmp	r1, r2
 883              		.loc 1 246 0
 884 0066 F8EEE77A 		vcvt.f32.s32	s15, s15
 885              		.loc 1 245 0
 886 006a 80ED007A 		vstr.32	s14, [r0]
 887              		.loc 1 246 0
 888 006e C3ED007A 		vstr.32	s15, [r3]
 889              		.loc 1 247 0
 890 0072 B4F90240 		ldrsh	r4, [r4, #2]
 891              	.LVL30:
 892 0076 07EE904A 		vmov	s15, r4	@ int
 893 007a F8EEE77A 		vcvt.f32.s32	s15, s15
 894 007e C3ED017A 		vstr.32	s15, [r3, #4]
 895              		.loc 1 248 0
 896 0082 01D1     		bne	.L72
 897 0084 03B0     		add	sp, sp, #12
 898              		.cfi_remember_state
 899              		.cfi_def_cfa_offset 12
 900              		@ sp needed
 901 0086 30BD     		pop	{r4, r5, pc}
 902              	.L72:
 903              		.cfi_restore_state
 904 0088 FFF7FEFF 		bl	__stack_chk_fail
 905              	.LVL31:
 906              	.L74:
 907              		.align	2
 908              	.L73:
 909 008c 00000000 		.word	.LANCHOR1
 910 0090 00000000 		.word	__stack_chk_guard
 911 0094 00000000 		.word	.LANCHOR8
 912 0098 00000000 		.word	.LANCHOR3
ARM GAS  /tmp/cc7Scbes.s 			page 17


 913 009c 00003443 		.word	1127481344
 914 00a0 DB0F4940 		.word	1078530011
 915 00a4 00000000 		.word	.LANCHOR7
 916 00a8 00000000 		.word	.LANCHOR9
 917              		.cfi_endproc
 918              	.LFE270:
 919              		.size	set_intermediate_point, .-set_intermediate_point
 920              		.section	.text.continue_main_obj,"ax",%progbits
 921              		.align	1
 922              		.p2align 4,,15
 923              		.global	continue_main_obj
 924              		.syntax unified
 925              		.thumb
 926              		.thumb_func
 927              		.fpu fpv4-sp-d16
 928              		.type	continue_main_obj, %function
 929              	continue_main_obj:
 930              	.LFB271:
 931              		.loc 1 250 0
 932              		.cfi_startproc
 933              		@ args = 0, pretend = 0, frame = 8
 934              		@ frame_needed = 0, uses_anonymous_args = 0
 935 0000 10B5     		push	{r4, lr}
 936              		.cfi_def_cfa_offset 8
 937              		.cfi_offset 4, -8
 938              		.cfi_offset 14, -4
 939              		.loc 1 253 0
 940 0002 104B     		ldr	r3, .L79
 941              		.loc 1 250 0
 942 0004 104C     		ldr	r4, .L79+4
 943              		.loc 1 253 0
 944 0006 93ED007A 		vldr.32	s14, [r3]
 945              		.loc 1 254 0
 946 000a D3ED017A 		vldr.32	s15, [r3, #4]
 947              		.loc 1 250 0
 948 000e 2368     		ldr	r3, [r4]
 949 0010 82B0     		sub	sp, sp, #8
 950              		.cfi_def_cfa_offset 16
 951              		.loc 1 253 0
 952 0012 BDEEC77A 		vcvt.s32.f32	s14, s14
 953              		.loc 1 250 0
 954 0016 0193     		str	r3, [sp, #4]
 955              		.loc 1 254 0
 956 0018 FDEEE77A 		vcvt.s32.f32	s15, s15
 957              		.loc 1 253 0
 958 001c 17EE103A 		vmov	r3, s14	@ int
 959 0020 ADF80030 		strh	r3, [sp]	@ movhi
 960              		.loc 1 254 0
 961 0024 17EE903A 		vmov	r3, s15	@ int
 962              		.loc 1 255 0
 963 0028 6846     		mov	r0, sp
 964              		.loc 1 254 0
 965 002a ADF80230 		strh	r3, [sp, #2]	@ movhi
 966              		.loc 1 255 0
 967 002e FFF7FEFF 		bl	set_position_obj
 968              	.LVL32:
 969              		.loc 1 256 0
ARM GAS  /tmp/cc7Scbes.s 			page 18


 970 0032 019A     		ldr	r2, [sp, #4]
 971 0034 2368     		ldr	r3, [r4]
 972 0036 9A42     		cmp	r2, r3
 973 0038 01D1     		bne	.L78
 974 003a 02B0     		add	sp, sp, #8
 975              		.cfi_remember_state
 976              		.cfi_def_cfa_offset 8
 977              		@ sp needed
 978 003c 10BD     		pop	{r4, pc}
 979              	.L78:
 980              		.cfi_restore_state
 981 003e FFF7FEFF 		bl	__stack_chk_fail
 982              	.LVL33:
 983              	.L80:
 984 0042 00BF     		.align	2
 985              	.L79:
 986 0044 00000000 		.word	.LANCHOR6
 987 0048 00000000 		.word	__stack_chk_guard
 988              		.cfi_endproc
 989              	.LFE271:
 990              		.size	continue_main_obj, .-continue_main_obj
 991              		.section	.text.get_intermediate_achieved,"ax",%progbits
 992              		.align	1
 993              		.p2align 4,,15
 994              		.global	get_intermediate_achieved
 995              		.syntax unified
 996              		.thumb
 997              		.thumb_func
 998              		.fpu fpv4-sp-d16
 999              		.type	get_intermediate_achieved, %function
 1000              	get_intermediate_achieved:
 1001              	.LFB272:
 1002              		.loc 1 258 0
 1003              		.cfi_startproc
 1004              		@ args = 0, pretend = 0, frame = 8
 1005              		@ frame_needed = 0, uses_anonymous_args = 0
 1006 0000 00B5     		push	{lr}
 1007              		.cfi_def_cfa_offset 4
 1008              		.cfi_offset 14, -4
 1009 0002 074B     		ldr	r3, .L85
 1010              		.loc 1 259 0
 1011 0004 0749     		ldr	r1, .L85+4
 1012              		.loc 1 258 0
 1013 0006 1A68     		ldr	r2, [r3]
 1014              		.loc 1 260 0
 1015 0008 0878     		ldrb	r0, [r1]	@ zero_extendqisi2
 1016              		.loc 1 258 0
 1017 000a 83B0     		sub	sp, sp, #12
 1018              		.cfi_def_cfa_offset 16
 1019              		.loc 1 258 0
 1020 000c 0192     		str	r2, [sp, #4]
 1021              		.loc 1 260 0
 1022 000e 019A     		ldr	r2, [sp, #4]
 1023 0010 1B68     		ldr	r3, [r3]
 1024 0012 9A42     		cmp	r2, r3
 1025 0014 02D1     		bne	.L84
 1026 0016 03B0     		add	sp, sp, #12
ARM GAS  /tmp/cc7Scbes.s 			page 19


 1027              		.cfi_remember_state
 1028              		.cfi_def_cfa_offset 4
 1029              		@ sp needed
 1030 0018 5DF804FB 		ldr	pc, [sp], #4
 1031              	.L84:
 1032              		.cfi_restore_state
 1033 001c FFF7FEFF 		bl	__stack_chk_fail
 1034              	.LVL34:
 1035              	.L86:
 1036              		.align	2
 1037              	.L85:
 1038 0020 00000000 		.word	__stack_chk_guard
 1039 0024 00000000 		.word	.LANCHOR8
 1040              		.cfi_endproc
 1041              	.LFE272:
 1042              		.size	get_intermediate_achieved, .-get_intermediate_achieved
 1043              		.global	__aeabi_f2d
 1044              		.global	__aeabi_dsub
 1045              		.global	__aeabi_d2iz
 1046              		.global	__aeabi_d2f
 1047              		.section	.text.get_angle_difference,"ax",%progbits
 1048              		.align	1
 1049              		.p2align 4,,15
 1050              		.global	get_angle_difference
 1051              		.syntax unified
 1052              		.thumb
 1053              		.thumb_func
 1054              		.fpu fpv4-sp-d16
 1055              		.type	get_angle_difference, %function
 1056              	get_angle_difference:
 1057              	.LFB273:
 1058              		.loc 1 263 0
 1059              		.cfi_startproc
 1060              		@ args = 0, pretend = 0, frame = 16
 1061              		@ frame_needed = 0, uses_anonymous_args = 0
 1062              	.LVL35:
 1063 0000 F0B5     		push	{r4, r5, r6, r7, lr}
 1064              		.cfi_def_cfa_offset 20
 1065              		.cfi_offset 4, -20
 1066              		.cfi_offset 5, -16
 1067              		.cfi_offset 6, -12
 1068              		.cfi_offset 7, -8
 1069              		.cfi_offset 14, -4
 1070              		.loc 1 264 0
 1071 0002 F5EEC00A 		vcmpe.f32	s1, #0
 1072 0006 F1EE10FA 		vmrs	APSR_nzcv, FPSCR
 1073              		.loc 1 265 0
 1074 000a 48BF     		it	mi
 1075 000c DFED3E7A 		vldrmi.32	s15, .L98+8
 1076              		.loc 1 263 0
 1077 0010 3E4D     		ldr	r5, .L98+12
 1078              		.loc 1 267 0
 1079 0012 B5EEC00A 		vcmpe.f32	s0, #0
 1080              		.loc 1 263 0
 1081 0016 2DED068B 		vpush.64	{d8, d9, d10}
 1082              		.cfi_def_cfa_offset 44
 1083              		.cfi_offset 80, -44
ARM GAS  /tmp/cc7Scbes.s 			page 20


 1084              		.cfi_offset 81, -40
 1085              		.cfi_offset 82, -36
 1086              		.cfi_offset 83, -32
 1087              		.cfi_offset 84, -28
 1088              		.cfi_offset 85, -24
 1089 001a F0EE608A 		vmov.f32	s17, s1
 1090              		.loc 1 265 0
 1091 001e 48BF     		it	mi
 1092 0020 70EEA78A 		vaddmi.f32	s17, s1, s15
 1093              	.LVL36:
 1094              		.loc 1 267 0
 1095 0024 F1EE10FA 		vmrs	APSR_nzcv, FPSCR
 1096              		.loc 1 268 0
 1097 0028 48BF     		it	mi
 1098 002a DFED377A 		vldrmi.32	s15, .L98+8
 1099              		.loc 1 270 0
 1100 002e 9FED389A 		vldr.32	s18, .L98+16
 1101              		.loc 1 263 0
 1102 0032 2B68     		ldr	r3, [r5]
 1103              		.loc 1 268 0
 1104 0034 48BF     		it	mi
 1105 0036 30EE270A 		vaddmi.f32	s0, s0, s15
 1106              	.LVL37:
 1107              		.loc 1 263 0
 1108 003a 85B0     		sub	sp, sp, #20
 1109              		.cfi_def_cfa_offset 64
 1110              		.loc 1 270 0
 1111 003c 70EE097A 		vadd.f32	s15, s0, s18
 1112              		.loc 1 263 0
 1113 0040 0393     		str	r3, [sp, #12]
 1114              		.loc 1 270 0
 1115 0042 17EE900A 		vmov	r0, s15
 1116 0046 30EE688A 		vsub.f32	s16, s0, s17
 1117 004a FFF7FEFF 		bl	__aeabi_f2d
 1118              	.LVL38:
 1119 004e 9FED2C1B 		vldr.64	d1, .L98
 1120 0052 41EC100B 		vmov	d0, r0, r1
 1121 0056 41EC1A0B 		vmov	d10, r0, r1
 1122 005a FFF7FEFF 		bl	fmod
 1123              	.LVL39:
 1124 005e 78EE897A 		vadd.f32	s15, s17, s18
 1125 0062 57EC106B 		vmov	r6, r7, d0
 1126 0066 17EE900A 		vmov	r0, s15
 1127 006a FFF7FEFF 		bl	__aeabi_f2d
 1128              	.LVL40:
 1129 006e 9FED241B 		vldr.64	d1, .L98
 1130 0072 41EC100B 		vmov	d0, r0, r1
 1131 0076 41EC190B 		vmov	d9, r0, r1
 1132 007a FFF7FEFF 		bl	fmod
 1133              	.LVL41:
 1134 007e FDEEC87A 		vcvt.s32.f32	s15, s16
 1135 0082 53EC102B 		vmov	r2, r3, d0
 1136 0086 17EE904A 		vmov	r4, s15	@ int
 1137 008a 3046     		mov	r0, r6
 1138 008c 002C     		cmp	r4, #0
 1139 008e 3946     		mov	r1, r7
 1140 0090 B8BF     		it	lt
ARM GAS  /tmp/cc7Scbes.s 			page 21


 1141 0092 6442     		rsblt	r4, r4, #0
 1142 0094 FFF7FEFF 		bl	__aeabi_dsub
 1143              	.LVL42:
 1144 0098 FFF7FEFF 		bl	__aeabi_d2iz
 1145              	.LVL43:
 1146 009c 0028     		cmp	r0, #0
 1147 009e B8BF     		it	lt
 1148 00a0 4042     		rsblt	r0, r0, #0
 1149 00a2 8442     		cmp	r4, r0
 1150 00a4 1DDB     		blt	.L87
 1151              		.loc 1 273 0
 1152 00a6 B0EE4A0A 		vmov.f32	s0, s20
 1153 00aa F0EE6A0A 		vmov.f32	s1, s21
 1154 00ae 9FED141B 		vldr.64	d1, .L98
 1155 00b2 FFF7FEFF 		bl	fmod
 1156              	.LVL44:
 1157 00b6 51EC100B 		vmov	r0, r1, d0
 1158 00ba B0EE490A 		vmov.f32	s0, s18
 1159 00be F0EE690A 		vmov.f32	s1, s19
 1160 00c2 9FED0F1B 		vldr.64	d1, .L98
 1161 00c6 CDE90001 		strd	r0, [sp]
 1162 00ca FFF7FEFF 		bl	fmod
 1163              	.LVL45:
 1164 00ce DDE90001 		ldrd	r0, [sp]
 1165 00d2 53EC102B 		vmov	r2, r3, d0
 1166 00d6 FFF7FEFF 		bl	__aeabi_dsub
 1167              	.LVL46:
 1168 00da FFF7FEFF 		bl	__aeabi_d2f
 1169              	.LVL47:
 1170 00de 08EE100A 		vmov	s16, r0
 1171              	.L87:
 1172              		.loc 1 275 0
 1173 00e2 039A     		ldr	r2, [sp, #12]
 1174 00e4 2B68     		ldr	r3, [r5]
 1175 00e6 9A42     		cmp	r2, r3
 1176 00e8 B0EE480A 		vmov.f32	s0, s16
 1177 00ec 03D1     		bne	.L97
 1178 00ee 05B0     		add	sp, sp, #20
 1179              		.cfi_remember_state
 1180              		.cfi_def_cfa_offset 44
 1181              		@ sp needed
 1182 00f0 BDEC068B 		vldm	sp!, {d8-d10}
 1183              		.cfi_restore 84
 1184              		.cfi_restore 85
 1185              		.cfi_restore 82
 1186              		.cfi_restore 83
 1187              		.cfi_restore 80
 1188              		.cfi_restore 81
 1189              		.cfi_def_cfa_offset 20
 1190 00f4 F0BD     		pop	{r4, r5, r6, r7, pc}
 1191              	.L97:
 1192              		.cfi_restore_state
 1193 00f6 FFF7FEFF 		bl	__stack_chk_fail
 1194              	.LVL48:
 1195              	.L99:
 1196 00fa 00BFAFF3 		.align	3
 1196      0080
ARM GAS  /tmp/cc7Scbes.s 			page 22


 1197              	.L98:
 1198 0100 00000000 		.word	0
 1199 0104 00807640 		.word	1081507840
 1200 0108 0000B443 		.word	1135869952
 1201 010c 00000000 		.word	__stack_chk_guard
 1202 0110 00003443 		.word	1127481344
 1203              		.cfi_endproc
 1204              	.LFE273:
 1205              		.size	get_angle_difference, .-get_angle_difference
 1206              		.section	.text.manage_angle,"ax",%progbits
 1207              		.align	1
 1208              		.p2align 4,,15
 1209              		.global	manage_angle
 1210              		.syntax unified
 1211              		.thumb
 1212              		.thumb_func
 1213              		.fpu fpv4-sp-d16
 1214              		.type	manage_angle, %function
 1215              	manage_angle:
 1216              	.LFB258:
 1217              		.loc 1 100 0
 1218              		.cfi_startproc
 1219              		@ args = 0, pretend = 0, frame = 8
 1220              		@ frame_needed = 0, uses_anonymous_args = 0
 1221              	.LVL49:
 1222 0000 30B5     		push	{r4, r5, lr}
 1223              		.cfi_def_cfa_offset 12
 1224              		.cfi_offset 4, -12
 1225              		.cfi_offset 5, -8
 1226              		.cfi_offset 14, -4
 1227              		.loc 1 102 0
 1228 0002 3E4B     		ldr	r3, .L123
 1229              		.loc 1 100 0
 1230 0004 3E4C     		ldr	r4, .L123+4
 1231 0006 83B0     		sub	sp, sp, #12
 1232              		.cfi_def_cfa_offset 24
 1233              		.loc 1 100 0
 1234 0008 2268     		ldr	r2, [r4]
 1235 000a 0192     		str	r2, [sp, #4]
 1236              	.LVL50:
 1237              		.loc 1 102 0
 1238 000c F0EE400A 		vmov.f32	s1, s0
 1239 0010 93ED000A 		vldr.32	s0, [r3]
 1240              	.LVL51:
 1241 0014 FFF7FEFF 		bl	get_angle_difference
 1242              	.LVL52:
 1243              		.loc 1 104 0
 1244 0018 FDEEC07A 		vcvt.s32.f32	s15, s0
 1245 001c 9FED397A 		vldr.32	s14, .L123+8
 1246 0020 17EE903A 		vmov	r3, s15	@ int
 1247 0024 002B     		cmp	r3, #0
 1248 0026 B8BF     		it	lt
 1249 0028 5B42     		rsblt	r3, r3, #0
 1250 002a 07EE903A 		vmov	s15, r3	@ int
 1251 002e F8EEE77A 		vcvt.f32.s32	s15, s15
 1252 0032 F4EEC77A 		vcmpe.f32	s15, s14
 1253 0036 F1EE10FA 		vmrs	APSR_nzcv, FPSCR
ARM GAS  /tmp/cc7Scbes.s 			page 23


 1254 003a 37D4     		bmi	.L120
 1255              		.loc 1 111 0
 1256 003c B5EEC00A 		vcmpe.f32	s0, #0
 1257 0040 F1EE10FA 		vmrs	APSR_nzcv, FPSCR
 1258 0044 14DD     		ble	.L116
 1259              		.loc 1 112 0
 1260 0046 B1EE047A 		vmov.f32	s14, #5.0e+0
 1261 004a B4EEC70A 		vcmpe.f32	s0, s14
 1262 004e F1EE10FA 		vmrs	APSR_nzcv, FPSCR
 1263 0052 33DD     		ble	.L117
 1264              		.loc 1 113 0
 1265 0054 4FF4C870 		mov	r0, #400
 1266 0058 FFF7FEFF 		bl	left_motor_set_speed
 1267              	.LVL53:
 1268              		.loc 1 114 0
 1269 005c 2A48     		ldr	r0, .L123+12
 1270 005e FFF7FEFF 		bl	right_motor_set_speed
 1271              	.LVL54:
 1272              		.loc 1 130 0
 1273 0062 0020     		movs	r0, #0
 1274              	.L103:
 1275              		.loc 1 132 0
 1276 0064 019A     		ldr	r2, [sp, #4]
 1277 0066 2368     		ldr	r3, [r4]
 1278 0068 9A42     		cmp	r2, r3
 1279 006a 45D1     		bne	.L121
 1280 006c 03B0     		add	sp, sp, #12
 1281              		.cfi_remember_state
 1282              		.cfi_def_cfa_offset 12
 1283              		@ sp needed
 1284 006e 30BD     		pop	{r4, r5, pc}
 1285              	.LVL55:
 1286              	.L116:
 1287              		.cfi_restore_state
 1288              		.loc 1 121 0
 1289 0070 F9EE047A 		vmov.f32	s15, #-5.0e+0
 1290 0074 B4EEE70A 		vcmpe.f32	s0, s15
 1291 0078 F1EE10FA 		vmrs	APSR_nzcv, FPSCR
 1292 007c 33D4     		bmi	.L122
 1293              		.loc 1 126 0
 1294 007e F1EE047A 		vmov.f32	s15, #5.0e+0
 1295 0082 80EE277A 		vdiv.f32	s14, s0, s15
 1296 0086 DFED217A 		vldr.32	s15, .L123+16
 1297 008a 67EE277A 		vmul.f32	s15, s14, s15
 1298 008e 67EE877A 		vmul.f32	s15, s15, s14
 1299 0092 FDEEE77A 		vcvt.s32.f32	s15, s15
 1300 0096 17EE903A 		vmov	r3, s15	@ int
 1301 009a 1DB2     		sxth	r5, r3
 1302 009c 6842     		negs	r0, r5
 1303 009e FFF7FEFF 		bl	left_motor_set_speed
 1304              	.LVL56:
 1305              		.loc 1 127 0
 1306 00a2 2846     		mov	r0, r5
 1307 00a4 FFF7FEFF 		bl	right_motor_set_speed
 1308              	.LVL57:
 1309              		.loc 1 130 0
 1310 00a8 0020     		movs	r0, #0
ARM GAS  /tmp/cc7Scbes.s 			page 24


 1311 00aa DBE7     		b	.L103
 1312              	.LVL58:
 1313              	.L120:
 1314              		.loc 1 106 0
 1315 00ac 0020     		movs	r0, #0
 1316 00ae FFF7FEFF 		bl	left_motor_set_speed
 1317              	.LVL59:
 1318              		.loc 1 107 0
 1319 00b2 0020     		movs	r0, #0
 1320 00b4 FFF7FEFF 		bl	right_motor_set_speed
 1321              	.LVL60:
 1322              		.loc 1 108 0
 1323 00b8 0120     		movs	r0, #1
 1324 00ba D3E7     		b	.L103
 1325              	.LVL61:
 1326              	.L117:
 1327              		.loc 1 117 0
 1328 00bc C0EE076A 		vdiv.f32	s13, s0, s14
 1329 00c0 DFED127A 		vldr.32	s15, .L123+16
 1330 00c4 66EEA77A 		vmul.f32	s15, s13, s15
 1331 00c8 67EEA67A 		vmul.f32	s15, s15, s13
 1332 00cc FDEEE77A 		vcvt.s32.f32	s15, s15
 1333 00d0 17EE903A 		vmov	r3, s15	@ int
 1334 00d4 1DB2     		sxth	r5, r3
 1335 00d6 2846     		mov	r0, r5
 1336 00d8 FFF7FEFF 		bl	left_motor_set_speed
 1337              	.LVL62:
 1338              		.loc 1 118 0
 1339 00dc 6842     		negs	r0, r5
 1340 00de FFF7FEFF 		bl	right_motor_set_speed
 1341              	.LVL63:
 1342              		.loc 1 130 0
 1343 00e2 0020     		movs	r0, #0
 1344 00e4 BEE7     		b	.L103
 1345              	.LVL64:
 1346              	.L122:
 1347              		.loc 1 122 0
 1348 00e6 0848     		ldr	r0, .L123+12
 1349 00e8 FFF7FEFF 		bl	left_motor_set_speed
 1350              	.LVL65:
 1351              		.loc 1 123 0
 1352 00ec 4FF4C870 		mov	r0, #400
 1353 00f0 FFF7FEFF 		bl	right_motor_set_speed
 1354              	.LVL66:
 1355              		.loc 1 130 0
 1356 00f4 0020     		movs	r0, #0
 1357 00f6 B5E7     		b	.L103
 1358              	.L121:
 1359              		.loc 1 132 0
 1360 00f8 FFF7FEFF 		bl	__stack_chk_fail
 1361              	.LVL67:
 1362              	.L124:
 1363              		.align	2
 1364              	.L123:
 1365 00fc 00000000 		.word	.LANCHOR2
 1366 0100 00000000 		.word	__stack_chk_guard
 1367 0104 CDCCCC3D 		.word	1036831949
ARM GAS  /tmp/cc7Scbes.s 			page 25


 1368 0108 70FEFFFF 		.word	-400
 1369 010c 0000C843 		.word	1137180672
 1370              		.cfi_endproc
 1371              	.LFE258:
 1372              		.size	manage_angle, .-manage_angle
 1373              		.section	.text.get_position_difference,"ax",%progbits
 1374              		.align	1
 1375              		.p2align 4,,15
 1376              		.global	get_position_difference
 1377              		.syntax unified
 1378              		.thumb
 1379              		.thumb_func
 1380              		.fpu fpv4-sp-d16
 1381              		.type	get_position_difference, %function
 1382              	get_position_difference:
 1383              	.LFB274:
 1384              		.loc 1 277 0
 1385              		.cfi_startproc
 1386              		@ args = 0, pretend = 0, frame = 8
 1387              		@ frame_needed = 0, uses_anonymous_args = 0
 1388              	.LVL68:
 1389 0000 70B5     		push	{r4, r5, r6, lr}
 1390              		.cfi_def_cfa_offset 16
 1391              		.cfi_offset 4, -16
 1392              		.cfi_offset 5, -12
 1393              		.cfi_offset 6, -8
 1394              		.cfi_offset 14, -4
 1395 0002 2DED028B 		vpush.64	{d8}
 1396              		.cfi_def_cfa_offset 24
 1397              		.cfi_offset 80, -24
 1398              		.cfi_offset 81, -20
 1399 0006 404E     		ldr	r6, .L136
 1400              		.loc 1 280 0
 1401 0008 90ED007A 		vldr.32	s14, [r0]
 1402 000c D0ED017A 		vldr.32	s15, [r0, #4]
 1403 0010 D1ED000A 		vldr.32	s1, [r1]
 1404 0014 91ED010A 		vldr.32	s0, [r1, #4]
 1405              		.loc 1 277 0
 1406 0018 3368     		ldr	r3, [r6]
 1407 001a 82B0     		sub	sp, sp, #8
 1408              		.cfi_def_cfa_offset 32
 1409              		.loc 1 280 0
 1410 001c 70EEC70A 		vsub.f32	s1, s1, s14
 1411 0020 30EE670A 		vsub.f32	s0, s0, s15
 1412              		.loc 1 277 0
 1413 0024 0446     		mov	r4, r0
 1414 0026 0D46     		mov	r5, r1
 1415 0028 0193     		str	r3, [sp, #4]
 1416              	.LVL69:
 1417              		.loc 1 280 0
 1418 002a FFF7FEFF 		bl	atan2f
 1419              	.LVL70:
 1420 002e DFED377A 		vldr.32	s15, .L136+4
 1421 0032 9FED377A 		vldr.32	s14, .L136+8
 1422              		.loc 1 282 0
 1423 0036 374B     		ldr	r3, .L136+12
 1424              		.loc 1 280 0
ARM GAS  /tmp/cc7Scbes.s 			page 26


 1425 0038 20EE270A 		vmul.f32	s0, s0, s15
 1426              		.loc 1 282 0
 1427 003c 93ED008A 		vldr.32	s16, [r3]
 1428              		.loc 1 280 0
 1429 0040 C0EE078A 		vdiv.f32	s17, s0, s14
 1430              	.LVL71:
 1431              		.loc 1 282 0
 1432 0044 B0EE480A 		vmov.f32	s0, s16
 1433 0048 F0EE680A 		vmov.f32	s1, s17
 1434 004c FFF7FEFF 		bl	get_angle_difference
 1435              	.LVL72:
 1436 0050 DFED317A 		vldr.32	s15, .L136+16
 1437 0054 B4EEE70A 		vcmpe.f32	s0, s15
 1438 0058 F1EE10FA 		vmrs	APSR_nzcv, FPSCR
 1439 005c 0CD5     		bpl	.L126
 1440              		.loc 1 282 0 is_stmt 0 discriminator 1
 1441 005e F0EE680A 		vmov.f32	s1, s17
 1442 0062 B0EE480A 		vmov.f32	s0, s16
 1443 0066 FFF7FEFF 		bl	get_angle_difference
 1444              	.LVL73:
 1445 006a DFED2C7A 		vldr.32	s15, .L136+20
 1446 006e B4EEE70A 		vcmpe.f32	s0, s15
 1447 0072 F1EE10FA 		vmrs	APSR_nzcv, FPSCR
 1448 0076 27DC     		bgt	.L134
 1449              	.L126:
 1450              		.loc 1 286 0 is_stmt 1
 1451 0078 94ED016A 		vldr.32	s12, [r4, #4]
 1452 007c D5ED017A 		vldr.32	s15, [r5, #4]
 1453 0080 D4ED006A 		vldr.32	s13, [r4]
 1454 0084 95ED007A 		vldr.32	s14, [r5]
 1455 0088 77EEC67A 		vsub.f32	s15, s15, s12
 1456 008c 37EE667A 		vsub.f32	s14, s14, s13
 1457 0090 67EEA77A 		vmul.f32	s15, s15, s15
 1458 0094 E7EE077A 		vfma.f32	s15, s14, s14
 1459 0098 17EE900A 		vmov	r0, s15
 1460 009c FFF7FEFF 		bl	__aeabi_f2d
 1461              	.LVL74:
 1462 00a0 41EC100B 		vmov	d0, r0, r1
 1463 00a4 FFF7FEFF 		bl	sqrt
 1464              	.LVL75:
 1465 00a8 51EC100B 		vmov	r0, r1, d0
 1466 00ac FFF7FEFF 		bl	__aeabi_d2f
 1467              	.LVL76:
 1468 00b0 80F00040 		eor	r0, r0, #-2147483648
 1469              	.L125:
 1470              		.loc 1 288 0
 1471 00b4 019A     		ldr	r2, [sp, #4]
 1472 00b6 3368     		ldr	r3, [r6]
 1473 00b8 9A42     		cmp	r2, r3
 1474 00ba 00EE100A 		vmov	s0, r0
 1475 00be 20D1     		bne	.L135
 1476 00c0 02B0     		add	sp, sp, #8
 1477              		.cfi_remember_state
 1478              		.cfi_def_cfa_offset 24
 1479              		@ sp needed
 1480 00c2 BDEC028B 		vldm	sp!, {d8}
 1481              		.cfi_restore 80
ARM GAS  /tmp/cc7Scbes.s 			page 27


 1482              		.cfi_restore 81
 1483              		.cfi_def_cfa_offset 16
 1484 00c6 70BD     		pop	{r4, r5, r6, pc}
 1485              	.LVL77:
 1486              	.L134:
 1487              		.cfi_restore_state
 1488              		.loc 1 284 0
 1489 00c8 94ED016A 		vldr.32	s12, [r4, #4]
 1490 00cc D5ED017A 		vldr.32	s15, [r5, #4]
 1491 00d0 D4ED006A 		vldr.32	s13, [r4]
 1492 00d4 95ED007A 		vldr.32	s14, [r5]
 1493 00d8 77EEC67A 		vsub.f32	s15, s15, s12
 1494 00dc 37EE667A 		vsub.f32	s14, s14, s13
 1495 00e0 67EEA77A 		vmul.f32	s15, s15, s15
 1496 00e4 E7EE077A 		vfma.f32	s15, s14, s14
 1497 00e8 17EE900A 		vmov	r0, s15
 1498 00ec FFF7FEFF 		bl	__aeabi_f2d
 1499              	.LVL78:
 1500 00f0 41EC100B 		vmov	d0, r0, r1
 1501 00f4 FFF7FEFF 		bl	sqrt
 1502              	.LVL79:
 1503 00f8 51EC100B 		vmov	r0, r1, d0
 1504 00fc FFF7FEFF 		bl	__aeabi_d2f
 1505              	.LVL80:
 1506 0100 D8E7     		b	.L125
 1507              	.L135:
 1508              		.loc 1 288 0
 1509 0102 FFF7FEFF 		bl	__stack_chk_fail
 1510              	.LVL81:
 1511              	.L137:
 1512 0106 00BF     		.align	2
 1513              	.L136:
 1514 0108 00000000 		.word	__stack_chk_guard
 1515 010c 00003443 		.word	1127481344
 1516 0110 DB0F4940 		.word	1078530011
 1517 0114 00000000 		.word	.LANCHOR2
 1518 0118 0000B442 		.word	1119092736
 1519 011c 0000B4C2 		.word	3266576384
 1520              		.cfi_endproc
 1521              	.LFE274:
 1522              		.size	get_position_difference, .-get_position_difference
 1523              		.section	.text.manage_position,"ax",%progbits
 1524              		.align	1
 1525              		.p2align 4,,15
 1526              		.global	manage_position
 1527              		.syntax unified
 1528              		.thumb
 1529              		.thumb_func
 1530              		.fpu fpv4-sp-d16
 1531              		.type	manage_position, %function
 1532              	manage_position:
 1533              	.LFB259:
 1534              		.loc 1 134 0
 1535              		.cfi_startproc
 1536              		@ args = 0, pretend = 0, frame = 8
 1537              		@ frame_needed = 0, uses_anonymous_args = 0
 1538              	.LVL82:
ARM GAS  /tmp/cc7Scbes.s 			page 28


 1539 0000 70B5     		push	{r4, r5, r6, lr}
 1540              		.cfi_def_cfa_offset 16
 1541              		.cfi_offset 4, -16
 1542              		.cfi_offset 5, -12
 1543              		.cfi_offset 6, -8
 1544              		.cfi_offset 14, -4
 1545 0002 2DED048B 		vpush.64	{d8, d9}
 1546              		.cfi_def_cfa_offset 32
 1547              		.cfi_offset 80, -32
 1548              		.cfi_offset 81, -28
 1549              		.cfi_offset 82, -24
 1550              		.cfi_offset 83, -20
 1551 0006 564E     		ldr	r6, .L159
 1552              		.loc 1 136 0
 1553 0008 564C     		ldr	r4, .L159+4
 1554              		.loc 1 134 0
 1555 000a 3368     		ldr	r3, [r6]
 1556 000c 82B0     		sub	sp, sp, #8
 1557              		.cfi_def_cfa_offset 40
 1558              		.loc 1 136 0
 1559 000e 0146     		mov	r1, r0
 1560              		.loc 1 134 0
 1561 0010 0546     		mov	r5, r0
 1562              		.loc 1 136 0
 1563 0012 2046     		mov	r0, r4
 1564              	.LVL83:
 1565              		.loc 1 134 0
 1566 0014 0193     		str	r3, [sp, #4]
 1567              	.LVL84:
 1568              		.loc 1 136 0
 1569 0016 FFF7FEFF 		bl	get_position_difference
 1570              	.LVL85:
 1571              		.loc 1 137 0
 1572 001a FDEEC07A 		vcvt.s32.f32	s15, s0
 1573 001e 17EE903A 		vmov	r3, s15	@ int
 1574 0022 0133     		adds	r3, r3, #1
 1575 0024 022B     		cmp	r3, #2
 1576 0026 44D9     		bls	.L156
 1577              	.LVL86:
 1578              	.LBB4:
 1579              		.loc 1 146 0
 1580 0028 94ED007A 		vldr.32	s14, [r4]
 1581 002c D4ED017A 		vldr.32	s15, [r4, #4]
 1582 0030 D5ED000A 		vldr.32	s1, [r5]
 1583 0034 4C4B     		ldr	r3, .L159+8
 1584 0036 B0EE408A 		vmov.f32	s16, s0
 1585 003a 95ED010A 		vldr.32	s0, [r5, #4]
 1586              	.LVL87:
 1587 003e D3ED008A 		vldr.32	s17, [r3]
 1588 0042 70EEC70A 		vsub.f32	s1, s1, s14
 1589 0046 30EE670A 		vsub.f32	s0, s0, s15
 1590 004a FFF7FEFF 		bl	atan2f
 1591              	.LVL88:
 1592 004e DFED477A 		vldr.32	s15, .L159+12
 1593 0052 DFED470A 		vldr.32	s1, .L159+16
 1594 0056 60EE277A 		vmul.f32	s15, s0, s15
 1595 005a B0EE680A 		vmov.f32	s0, s17
ARM GAS  /tmp/cc7Scbes.s 			page 29


 1596 005e C7EEA00A 		vdiv.f32	s1, s15, s1
 1597 0062 FFF7FEFF 		bl	get_angle_difference
 1598              	.LVL89:
 1599              		.loc 1 147 0
 1600 0066 B5EEC08A 		vcmpe.f32	s16, #0
 1601 006a F1EE10FA 		vmrs	APSR_nzcv, FPSCR
 1602              		.loc 1 146 0
 1603 006e F0EE408A 		vmov.f32	s17, s0
 1604              	.LVL90:
 1605              		.loc 1 147 0
 1606 0072 2DDD     		ble	.L151
 1607              		.loc 1 148 0
 1608 0074 B1EE047A 		vmov.f32	s14, #5.0e+0
 1609 0078 B4EEC78A 		vcmpe.f32	s16, s14
 1610 007c F1EE10FA 		vmrs	APSR_nzcv, FPSCR
 1611 0080 45DD     		ble	.L152
 1612              		.loc 1 149 0
 1613 0082 9FED3C8A 		vldr.32	s16, .L159+20
 1614              	.LVL91:
 1615 0086 B2EE049A 		vmov.f32	s18, #1.0e+1
 1616 008a F0EE487A 		vmov.f32	s15, s16
 1617 008e E0EE097A 		vfma.f32	s15, s0, s18
 1618 0092 FDEEE77A 		vcvt.s32.f32	s15, s15
 1619 0096 17EE900A 		vmov	r0, s15	@ int
 1620 009a FFF7FEFF 		bl	left_motor_set_speed
 1621              	.LVL92:
 1622              		.loc 1 150 0
 1623 009e A8EEC98A 		vfms.f32	s16, s17, s18
 1624 00a2 FDEEC87A 		vcvt.s32.f32	s15, s16
 1625 00a6 17EE900A 		vmov	r0, s15	@ int
 1626 00aa FFF7FEFF 		bl	right_motor_set_speed
 1627              	.LVL93:
 1628              		.loc 1 166 0
 1629 00ae 0020     		movs	r0, #0
 1630 00b0 06E0     		b	.L140
 1631              	.LVL94:
 1632              	.L156:
 1633              	.LBE4:
 1634              		.loc 1 139 0
 1635 00b2 0020     		movs	r0, #0
 1636 00b4 FFF7FEFF 		bl	left_motor_set_speed
 1637              	.LVL95:
 1638              		.loc 1 140 0
 1639 00b8 0020     		movs	r0, #0
 1640 00ba FFF7FEFF 		bl	right_motor_set_speed
 1641              	.LVL96:
 1642              		.loc 1 141 0
 1643 00be 0120     		movs	r0, #1
 1644              	.L140:
 1645              		.loc 1 168 0
 1646 00c0 019A     		ldr	r2, [sp, #4]
 1647 00c2 3368     		ldr	r3, [r6]
 1648 00c4 9A42     		cmp	r2, r3
 1649 00c6 48D1     		bne	.L157
 1650 00c8 02B0     		add	sp, sp, #8
 1651              		.cfi_remember_state
 1652              		.cfi_def_cfa_offset 32
ARM GAS  /tmp/cc7Scbes.s 			page 30


 1653              		@ sp needed
 1654 00ca BDEC048B 		vldm	sp!, {d8-d9}
 1655              		.cfi_restore 82
 1656              		.cfi_restore 83
 1657              		.cfi_restore 80
 1658              		.cfi_restore 81
 1659              		.cfi_def_cfa_offset 16
 1660 00ce 70BD     		pop	{r4, r5, r6, pc}
 1661              	.LVL97:
 1662              	.L151:
 1663              		.cfi_restore_state
 1664              	.LBB5:
 1665              		.loc 1 157 0
 1666 00d0 F9EE047A 		vmov.f32	s15, #-5.0e+0
 1667 00d4 B4EEE78A 		vcmpe.f32	s16, s15
 1668 00d8 F1EE10FA 		vmrs	APSR_nzcv, FPSCR
 1669 00dc 25D4     		bmi	.L158
 1670              		.loc 1 162 0
 1671 00de F1EE047A 		vmov.f32	s15, #5.0e+0
 1672 00e2 88EE277A 		vdiv.f32	s14, s16, s15
 1673 00e6 DFED237A 		vldr.32	s15, .L159+20
 1674 00ea 67EE277A 		vmul.f32	s15, s14, s15
 1675 00ee 67EE877A 		vmul.f32	s15, s15, s14
 1676 00f2 FDEEE77A 		vcvt.s32.f32	s15, s15
 1677 00f6 17EE903A 		vmov	r3, s15	@ int
 1678 00fa 1CB2     		sxth	r4, r3
 1679 00fc 6442     		negs	r4, r4
 1680              	.L155:
 1681 00fe 2046     		mov	r0, r4
 1682 0100 FFF7FEFF 		bl	left_motor_set_speed
 1683              	.LVL98:
 1684              		.loc 1 163 0
 1685 0104 2046     		mov	r0, r4
 1686 0106 FFF7FEFF 		bl	right_motor_set_speed
 1687              	.LVL99:
 1688              		.loc 1 166 0
 1689 010a 0020     		movs	r0, #0
 1690 010c D8E7     		b	.L140
 1691              	.LVL100:
 1692              	.L152:
 1693              		.loc 1 153 0
 1694 010e C8EE076A 		vdiv.f32	s13, s16, s14
 1695 0112 DFED187A 		vldr.32	s15, .L159+20
 1696 0116 66EEA77A 		vmul.f32	s15, s13, s15
 1697 011a 67EEA67A 		vmul.f32	s15, s15, s13
 1698 011e FDEEE77A 		vcvt.s32.f32	s15, s15
 1699 0122 17EE903A 		vmov	r3, s15	@ int
 1700 0126 1CB2     		sxth	r4, r3
 1701 0128 E9E7     		b	.L155
 1702              	.L158:
 1703              		.loc 1 158 0
 1704 012a 9FED138A 		vldr.32	s16, .L159+24
 1705              	.LVL101:
 1706 012e B2EE049A 		vmov.f32	s18, #1.0e+1
 1707 0132 F0EE487A 		vmov.f32	s15, s16
 1708 0136 E0EE497A 		vfms.f32	s15, s0, s18
 1709 013a FDEEE77A 		vcvt.s32.f32	s15, s15
ARM GAS  /tmp/cc7Scbes.s 			page 31


 1710 013e 17EE900A 		vmov	r0, s15	@ int
 1711 0142 FFF7FEFF 		bl	left_motor_set_speed
 1712              	.LVL102:
 1713              		.loc 1 159 0
 1714 0146 A8EE898A 		vfma.f32	s16, s17, s18
 1715 014a FDEEC87A 		vcvt.s32.f32	s15, s16
 1716 014e 17EE900A 		vmov	r0, s15	@ int
 1717 0152 FFF7FEFF 		bl	right_motor_set_speed
 1718              	.LVL103:
 1719              		.loc 1 166 0
 1720 0156 0020     		movs	r0, #0
 1721 0158 B2E7     		b	.L140
 1722              	.LVL104:
 1723              	.L157:
 1724              	.LBE5:
 1725              		.loc 1 168 0
 1726 015a FFF7FEFF 		bl	__stack_chk_fail
 1727              	.LVL105:
 1728              	.L160:
 1729 015e 00BF     		.align	2
 1730              	.L159:
 1731 0160 00000000 		.word	__stack_chk_guard
 1732 0164 00000000 		.word	.LANCHOR1
 1733 0168 00000000 		.word	.LANCHOR2
 1734 016c 00003443 		.word	1127481344
 1735 0170 DB0F4940 		.word	1078530011
 1736 0174 00005C44 		.word	1146880000
 1737 0178 00005CC4 		.word	3294363648
 1738              		.cfi_endproc
 1739              	.LFE259:
 1740              		.size	manage_position, .-manage_position
 1741              		.section	.text.MotorsControl,"ax",%progbits
 1742              		.align	1
 1743              		.p2align 4,,15
 1744              		.syntax unified
 1745              		.thumb
 1746              		.thumb_func
 1747              		.fpu fpv4-sp-d16
 1748              		.type	MotorsControl, %function
 1749              	MotorsControl:
 1750              	.LFB257:
 1751              		.loc 1 51 0
 1752              		.cfi_startproc
 1753              		@ args = 0, pretend = 0, frame = 8
 1754              		@ frame_needed = 0, uses_anonymous_args = 0
 1755              	.LVL106:
 1756 0000 2DE9F04F 		push	{r4, r5, r6, r7, r8, r9, r10, fp, lr}
 1757              		.cfi_def_cfa_offset 36
 1758              		.cfi_offset 4, -36
 1759              		.cfi_offset 5, -32
 1760              		.cfi_offset 6, -28
 1761              		.cfi_offset 7, -24
 1762              		.cfi_offset 8, -20
 1763              		.cfi_offset 9, -16
 1764              		.cfi_offset 10, -12
 1765              		.cfi_offset 11, -8
 1766              		.cfi_offset 14, -4
ARM GAS  /tmp/cc7Scbes.s 			page 32


 1767 0004 2DED0A8B 		vpush.64	{d8, d9, d10, d11, d12}
 1768              		.cfi_def_cfa_offset 76
 1769              		.cfi_offset 80, -76
 1770              		.cfi_offset 81, -72
 1771              		.cfi_offset 82, -68
 1772              		.cfi_offset 83, -64
 1773              		.cfi_offset 84, -60
 1774              		.cfi_offset 85, -56
 1775              		.cfi_offset 86, -52
 1776              		.cfi_offset 87, -48
 1777              		.cfi_offset 88, -44
 1778              		.cfi_offset 89, -40
 1779              	.LBB6:
 1780              	.LBB7:
 1781              		.file 2 "../../lib/e-puck2_main-processor/ChibiOS//os/rt/include/chregistry.h"
 1782              		.loc 2 135 0
 1783 0008 554A     		ldr	r2, .L180
 1784              	.LBE7:
 1785              	.LBE6:
 1786              		.loc 1 51 0
 1787 000a 564B     		ldr	r3, .L180+4
 1788              	.LBB10:
 1789              	.LBB8:
 1790              		.loc 2 135 0
 1791 000c 9269     		ldr	r2, [r2, #24]
 1792 000e 5649     		ldr	r1, .L180+8
 1793              	.LBE8:
 1794              	.LBE10:
 1795              		.loc 1 51 0
 1796 0010 1B68     		ldr	r3, [r3]
 1797              	.LBB11:
 1798              	.LBB9:
 1799              		.loc 2 135 0
 1800 0012 9161     		str	r1, [r2, #24]
 1801              	.LBE9:
 1802              	.LBE11:
 1803              		.loc 1 51 0
 1804 0014 83B0     		sub	sp, sp, #12
 1805              		.cfi_def_cfa_offset 88
 1806              		.loc 1 56 0
 1807 0016 0020     		movs	r0, #0
 1808              	.LVL107:
 1809              		.loc 1 51 0
 1810 0018 0193     		str	r3, [sp, #4]
 1811              		.loc 1 62 0
 1812 001a 0024     		movs	r4, #0
 1813              		.loc 1 56 0
 1814 001c FFF7FEFF 		bl	left_motor_set_pos
 1815              	.LVL108:
 1816              		.loc 1 57 0
 1817 0020 0020     		movs	r0, #0
 1818 0022 FFF7FEFF 		bl	right_motor_set_pos
 1819              	.LVL109:
 1820 0026 514E     		ldr	r6, .L180+12
 1821 0028 514D     		ldr	r5, .L180+16
 1822 002a 524F     		ldr	r7, .L180+20
 1823 002c DFF86C81 		ldr	r8, .L180+60
ARM GAS  /tmp/cc7Scbes.s 			page 33


 1824 0030 DFF86C91 		ldr	r9, .L180+64
 1825              		.loc 1 71 0
 1826 0034 9FED508A 		vldr.32	s16, .L180+24
 1827 0038 DFED509A 		vldr.32	s19, .L180+28
 1828 003c 9FED509A 		vldr.32	s18, .L180+32
 1829 0040 DFED508A 		vldr.32	s17, .L180+36
 1830              		.loc 1 74 0
 1831 0044 DFED50AA 		vldr.32	s21, .L180+40
 1832              		.loc 1 77 0
 1833 0048 9FED50AA 		vldr.32	s20, .L180+44
 1834              		.loc 1 61 0
 1835 004c A346     		mov	fp, r4
 1836 004e 1CE0     		b	.L170
 1837              	.LVL110:
 1838              	.L174:
 1839              		.loc 1 77 0
 1840 0050 F4EECA7A 		vcmpe.f32	s15, s20
 1841 0054 F1EE10FA 		vmrs	APSR_nzcv, FPSCR
 1842              		.loc 1 78 0
 1843 0058 C8BF     		it	gt
 1844 005a 77EECA7A 		vsubgt.f32	s15, s15, s20
 1845              		.loc 1 80 0
 1846 005e C6ED007A 		vstr.32	s15, [r6]
 1847              	.L164:
 1848              		.loc 1 82 0
 1849 0062 FFF7FEFF 		bl	left_motor_get_pos
 1850              	.LVL111:
 1851 0066 8346     		mov	fp, r0
 1852              	.LVL112:
 1853              		.loc 1 83 0
 1854 0068 FFF7FEFF 		bl	right_motor_get_pos
 1855              	.LVL113:
 1856              		.loc 1 87 0
 1857 006c 3B78     		ldrb	r3, [r7]	@ zero_extendqisi2
 1858              		.loc 1 83 0
 1859 006e 0446     		mov	r4, r0
 1860              	.LVL114:
 1861              		.loc 1 87 0
 1862 0070 002B     		cmp	r3, #0
 1863 0072 61D0     		beq	.L177
 1864              		.loc 1 89 0
 1865 0074 98F80030 		ldrb	r3, [r8]	@ zero_extendqisi2
 1866 0078 002B     		cmp	r3, #0
 1867 007a 64D0     		beq	.L178
 1868              		.loc 1 92 0
 1869 007c 99F80030 		ldrb	r3, [r9]	@ zero_extendqisi2
 1870 0080 002B     		cmp	r3, #0
 1871 0082 66D0     		beq	.L179
 1872              	.LVL115:
 1873              	.L168:
 1874              		.loc 1 96 0
 1875 0084 1420     		movs	r0, #20
 1876 0086 FFF7FEFF 		bl	chThdSleep
 1877              	.LVL116:
 1878              	.L170:
 1879              		.loc 1 68 0
 1880 008a FFF7FEFF 		bl	left_motor_get_pos
ARM GAS  /tmp/cc7Scbes.s 			page 34


 1881              	.LVL117:
 1882 008e 8246     		mov	r10, r0
 1883              	.LVL118:
 1884              		.loc 1 69 0
 1885 0090 FFF7FEFF 		bl	right_motor_get_pos
 1886              	.LVL119:
 1887              		.loc 1 68 0
 1888 0094 AAEB0B0B 		sub	fp, r10, fp
 1889              	.LVL120:
 1890              		.loc 1 69 0
 1891 0098 041B     		subs	r4, r0, r4
 1892              	.LVL121:
 1893              		.loc 1 71 0
 1894 009a 4FFA8BFB 		sxtb	fp, fp
 1895 009e 64B2     		sxtb	r4, r4
 1896 00a0 0BEB0403 		add	r3, fp, r4
 1897 00a4 07EE903A 		vmov	s15, r3	@ int
 1898 00a8 D6ED00BA 		vldr.32	s23, [r6]
 1899 00ac F8EEE77A 		vcvt.f32.s32	s15, s15
 1900 00b0 2BEE887A 		vmul.f32	s14, s23, s16
 1901 00b4 67EE887A 		vmul.f32	s15, s15, s16
 1902 00b8 C7EE28CA 		vdiv.f32	s25, s14, s17
 1903              		.loc 1 74 0
 1904 00bc A4EB0B04 		sub	r4, r4, fp
 1905              		.loc 1 71 0
 1906 00c0 67EEA97A 		vmul.f32	s15, s15, s19
 1907 00c4 B0EE6C0A 		vmov.f32	s0, s25
 1908 00c8 87EE89BA 		vdiv.f32	s22, s15, s18
 1909 00cc FFF7FEFF 		bl	cosf
 1910              	.LVL122:
 1911 00d0 95ED007A 		vldr.32	s14, [r5]
 1912 00d4 2BEE000A 		vmul.f32	s0, s22, s0
 1913 00d8 B6EE00CA 		vmov.f32	s24, #5.0e-1
 1914 00dc A0EE0C7A 		vfma.f32	s14, s0, s24
 1915              		.loc 1 72 0
 1916 00e0 B0EE6C0A 		vmov.f32	s0, s25
 1917              		.loc 1 71 0
 1918 00e4 85ED007A 		vstr.32	s14, [r5]
 1919              		.loc 1 72 0
 1920 00e8 FFF7FEFF 		bl	sinf
 1921              	.LVL123:
 1922              		.loc 1 74 0
 1923 00ec 07EE904A 		vmov	s15, r4	@ int
 1924 00f0 F8EEE77A 		vcvt.f32.s32	s15, s15
 1925              		.loc 1 72 0
 1926 00f4 2BEE000A 		vmul.f32	s0, s22, s0
 1927              		.loc 1 74 0
 1928 00f8 67EE887A 		vmul.f32	s15, s15, s16
 1929              		.loc 1 72 0
 1930 00fc 95ED017A 		vldr.32	s14, [r5, #4]
 1931              		.loc 1 74 0
 1932 0100 67EEA97A 		vmul.f32	s15, s15, s19
 1933              		.loc 1 72 0
 1934 0104 A0EE0C7A 		vfma.f32	s14, s0, s24
 1935              		.loc 1 74 0
 1936 0108 87EE890A 		vdiv.f32	s0, s15, s18
 1937              		.loc 1 72 0
ARM GAS  /tmp/cc7Scbes.s 			page 35


 1938 010c 85ED017A 		vstr.32	s14, [r5, #4]
 1939              		.loc 1 74 0
 1940 0110 80EE2A0A 		vdiv.f32	s0, s0, s21
 1941 0114 FFF7FEFF 		bl	atanf
 1942              	.LVL124:
 1943 0118 20EE280A 		vmul.f32	s0, s0, s17
 1944              	.LVL125:
 1945 011c C0EE087A 		vdiv.f32	s15, s0, s16
 1946              		.loc 1 75 0
 1947 0120 77EEAB7A 		vadd.f32	s15, s15, s23
 1948 0124 F5EEC07A 		vcmpe.f32	s15, #0
 1949 0128 F1EE10FA 		vmrs	APSR_nzcv, FPSCR
 1950 012c 90D5     		bpl	.L174
 1951              		.loc 1 76 0
 1952 012e 77EE8A7A 		vadd.f32	s15, s15, s20
 1953 0132 C6ED007A 		vstr.32	s15, [r6]
 1954 0136 94E7     		b	.L164
 1955              	.LVL126:
 1956              	.L177:
 1957              		.loc 1 88 0
 1958 0138 154B     		ldr	r3, .L180+48
 1959 013a 93ED000A 		vldr.32	s0, [r3]
 1960 013e FFF7FEFF 		bl	manage_angle
 1961              	.LVL127:
 1962 0142 3870     		strb	r0, [r7]
 1963 0144 9EE7     		b	.L168
 1964              	.LVL128:
 1965              	.L178:
 1966              		.loc 1 91 0
 1967 0146 1348     		ldr	r0, .L180+52
 1968              	.LVL129:
 1969 0148 FFF7FEFF 		bl	manage_position
 1970              	.LVL130:
 1971 014c 88F80000 		strb	r0, [r8]
 1972 0150 98E7     		b	.L168
 1973              	.LVL131:
 1974              	.L179:
 1975              		.loc 1 93 0
 1976 0152 1148     		ldr	r0, .L180+56
 1977              	.LVL132:
 1978 0154 FFF7FEFF 		bl	manage_position
 1979              	.LVL133:
 1980 0158 89F80000 		strb	r0, [r9]
 1981 015c 92E7     		b	.L168
 1982              	.L181:
 1983 015e 00BF     		.align	2
 1984              	.L180:
 1985 0160 00000000 		.word	ch
 1986 0164 00000000 		.word	__stack_chk_guard
 1987 0168 00000000 		.word	.LANCHOR10
 1988 016c 00000000 		.word	.LANCHOR2
 1989 0170 00000000 		.word	.LANCHOR1
 1990 0174 00000000 		.word	.LANCHOR3
 1991 0178 DB0F4940 		.word	1078530011
 1992 017c 00002442 		.word	1109655552
 1993 0180 00007A44 		.word	1148846080
 1994 0184 00003443 		.word	1127481344
ARM GAS  /tmp/cc7Scbes.s 			page 36


 1995 0188 00005042 		.word	1112539136
 1996 018c 0000B443 		.word	1135869952
 1997 0190 00000000 		.word	.LANCHOR7
 1998 0194 00000000 		.word	.LANCHOR9
 1999 0198 00000000 		.word	.LANCHOR6
 2000 019c 00000000 		.word	.LANCHOR8
 2001 01a0 00000000 		.word	.LANCHOR4
 2002              		.cfi_endproc
 2003              	.LFE257:
 2004              		.size	MotorsControl, .-MotorsControl
 2005              		.section	.text.motor_shoot,"ax",%progbits
 2006              		.align	1
 2007              		.p2align 4,,15
 2008              		.global	motor_shoot
 2009              		.syntax unified
 2010              		.thumb
 2011              		.thumb_func
 2012              		.fpu fpv4-sp-d16
 2013              		.type	motor_shoot, %function
 2014              	motor_shoot:
 2015              	.LFB275:
 2016              		.loc 1 290 0
 2017              		.cfi_startproc
 2018              		@ args = 0, pretend = 0, frame = 8
 2019              		@ frame_needed = 0, uses_anonymous_args = 0
 2020 0000 10B5     		push	{r4, lr}
 2021              		.cfi_def_cfa_offset 8
 2022              		.cfi_offset 4, -8
 2023              		.cfi_offset 14, -4
 2024 0002 0A4C     		ldr	r4, .L187
 2025 0004 82B0     		sub	sp, sp, #8
 2026              		.cfi_def_cfa_offset 16
 2027              		.loc 1 290 0
 2028 0006 2368     		ldr	r3, [r4]
 2029 0008 0193     		str	r3, [sp, #4]
 2030              		.loc 1 291 0
 2031 000a 40F24C40 		movw	r0, #1100
 2032 000e FFF7FEFF 		bl	left_motor_set_speed
 2033              	.LVL134:
 2034              		.loc 1 292 0
 2035 0012 019A     		ldr	r2, [sp, #4]
 2036 0014 2368     		ldr	r3, [r4]
 2037 0016 9A42     		cmp	r2, r3
 2038 0018 06D1     		bne	.L186
 2039 001a 40F24C40 		movw	r0, #1100
 2040              		.loc 1 293 0
 2041 001e 02B0     		add	sp, sp, #8
 2042              		.cfi_remember_state
 2043              		.cfi_def_cfa_offset 8
 2044              		@ sp needed
 2045 0020 BDE81040 		pop	{r4, lr}
 2046              		.cfi_restore 14
 2047              		.cfi_restore 4
 2048              		.cfi_def_cfa_offset 0
 2049              		.loc 1 292 0
 2050 0024 FFF7FEBF 		b	right_motor_set_speed
 2051              	.LVL135:
ARM GAS  /tmp/cc7Scbes.s 			page 37


 2052              	.L186:
 2053              		.cfi_restore_state
 2054 0028 FFF7FEFF 		bl	__stack_chk_fail
 2055              	.LVL136:
 2056              	.L188:
 2057              		.align	2
 2058              	.L187:
 2059 002c 00000000 		.word	__stack_chk_guard
 2060              		.cfi_endproc
 2061              	.LFE275:
 2062              		.size	motor_shoot, .-motor_shoot
 2063              		.section	.text.reset_motor_shoot,"ax",%progbits
 2064              		.align	1
 2065              		.p2align 4,,15
 2066              		.global	reset_motor_shoot
 2067              		.syntax unified
 2068              		.thumb
 2069              		.thumb_func
 2070              		.fpu fpv4-sp-d16
 2071              		.type	reset_motor_shoot, %function
 2072              	reset_motor_shoot:
 2073              	.LFB276:
 2074              		.loc 1 295 0
 2075              		.cfi_startproc
 2076              		@ args = 0, pretend = 0, frame = 8
 2077              		@ frame_needed = 0, uses_anonymous_args = 0
 2078 0000 10B5     		push	{r4, lr}
 2079              		.cfi_def_cfa_offset 8
 2080              		.cfi_offset 4, -8
 2081              		.cfi_offset 14, -4
 2082 0002 094C     		ldr	r4, .L194
 2083 0004 82B0     		sub	sp, sp, #8
 2084              		.cfi_def_cfa_offset 16
 2085              		.loc 1 295 0
 2086 0006 2368     		ldr	r3, [r4]
 2087 0008 0193     		str	r3, [sp, #4]
 2088              		.loc 1 296 0
 2089 000a 0020     		movs	r0, #0
 2090 000c FFF7FEFF 		bl	left_motor_set_speed
 2091              	.LVL137:
 2092              		.loc 1 297 0
 2093 0010 019A     		ldr	r2, [sp, #4]
 2094 0012 2368     		ldr	r3, [r4]
 2095 0014 9A42     		cmp	r2, r3
 2096 0016 05D1     		bne	.L193
 2097 0018 0020     		movs	r0, #0
 2098              		.loc 1 298 0
 2099 001a 02B0     		add	sp, sp, #8
 2100              		.cfi_remember_state
 2101              		.cfi_def_cfa_offset 8
 2102              		@ sp needed
 2103 001c BDE81040 		pop	{r4, lr}
 2104              		.cfi_restore 14
 2105              		.cfi_restore 4
 2106              		.cfi_def_cfa_offset 0
 2107              		.loc 1 297 0
 2108 0020 FFF7FEBF 		b	right_motor_set_speed
ARM GAS  /tmp/cc7Scbes.s 			page 38


 2109              	.LVL138:
 2110              	.L193:
 2111              		.cfi_restore_state
 2112 0024 FFF7FEFF 		bl	__stack_chk_fail
 2113              	.LVL139:
 2114              	.L195:
 2115              		.align	2
 2116              	.L194:
 2117 0028 00000000 		.word	__stack_chk_guard
 2118              		.cfi_endproc
 2119              	.LFE276:
 2120              		.size	reset_motor_shoot, .-reset_motor_shoot
 2121              		.global	__aeabi_i2d
 2122              		.global	__aeabi_dadd
 2123              		.global	__aeabi_dmul
 2124              		.section	.text.control_motors_BT,"ax",%progbits
 2125              		.align	1
 2126              		.p2align 4,,15
 2127              		.global	control_motors_BT
 2128              		.syntax unified
 2129              		.thumb
 2130              		.thumb_func
 2131              		.fpu fpv4-sp-d16
 2132              		.type	control_motors_BT, %function
 2133              	control_motors_BT:
 2134              	.LFB277:
 2135              		.loc 1 300 0
 2136              		.cfi_startproc
 2137              		@ args = 0, pretend = 0, frame = 8
 2138              		@ frame_needed = 0, uses_anonymous_args = 0
 2139              	.LVL140:
 2140 0000 2DE9F047 		push	{r4, r5, r6, r7, r8, r9, r10, lr}
 2141              		.cfi_def_cfa_offset 32
 2142              		.cfi_offset 4, -32
 2143              		.cfi_offset 5, -28
 2144              		.cfi_offset 6, -24
 2145              		.cfi_offset 7, -20
 2146              		.cfi_offset 8, -16
 2147              		.cfi_offset 9, -12
 2148              		.cfi_offset 10, -8
 2149              		.cfi_offset 14, -4
 2150 0004 2DED028B 		vpush.64	{d8}
 2151              		.cfi_def_cfa_offset 40
 2152              		.cfi_offset 80, -40
 2153              		.cfi_offset 81, -36
 2154 0008 0646     		mov	r6, r0
 2155 000a DFF8B4A0 		ldr	r10, .L201+8
 2156              		.loc 1 305 0
 2157 000e 0078     		ldrb	r0, [r0]	@ zero_extendqisi2
 2158              	.LVL141:
 2159              		.loc 1 300 0
 2160 0010 DAF80030 		ldr	r3, [r10]
 2161 0014 82B0     		sub	sp, sp, #8
 2162              		.cfi_def_cfa_offset 48
 2163              		.loc 1 305 0
 2164 0016 C000     		lsls	r0, r0, #3
 2165              		.loc 1 300 0
ARM GAS  /tmp/cc7Scbes.s 			page 39


 2166 0018 0193     		str	r3, [sp, #4]
 2167              	.LVL142:
 2168              		.loc 1 305 0
 2169 001a FFF7FEFF 		bl	__aeabi_i2d
 2170              	.LVL143:
 2171              		.loc 1 303 0
 2172 001e 7388     		ldrh	r3, [r6, #2]
 2173              	.LVL144:
 2174 0020 DFED256A 		vldr.32	s13, .L201
 2175 0024 9FED257A 		vldr.32	s14, .L201+4
 2176 0028 07EE903A 		vmov	s15, r3	@ int
 2177 002c F8EEE77A 		vcvt.f32.s32	s15, s15
 2178              		.loc 1 305 0
 2179 0030 0446     		mov	r4, r0
 2180              		.loc 1 303 0
 2181 0032 67EEA67A 		vmul.f32	s15, s15, s13
 2182              		.loc 1 305 0
 2183 0036 0D46     		mov	r5, r1
 2184 0038 C7EE877A 		vdiv.f32	s15, s15, s14
 2185 003c 17EE900A 		vmov	r0, s15
 2186 0040 FFF7FEFF 		bl	__aeabi_f2d
 2187              	.LVL145:
 2188 0044 41EC100B 		vmov	d0, r0, r1
 2189 0048 41EC180B 		vmov	d8, r0, r1
 2190 004c FFF7FEFF 		bl	cos
 2191              	.LVL146:
 2192 0050 57EC106B 		vmov	r6, r7, d0
 2193              	.LVL147:
 2194 0054 B0EE480A 		vmov.f32	s0, s16
 2195 0058 F0EE680A 		vmov.f32	s1, s17
 2196 005c FFF7FEFF 		bl	sin
 2197              	.LVL148:
 2198 0060 59EC108B 		vmov	r8, r9, d0
 2199 0064 10EE102A 		vmov	r2, s0	@ int
 2200 0068 4B46     		mov	r3, r9
 2201 006a 3046     		mov	r0, r6
 2202 006c 3946     		mov	r1, r7
 2203 006e FFF7FEFF 		bl	__aeabi_dadd
 2204              	.LVL149:
 2205 0072 2246     		mov	r2, r4
 2206 0074 2B46     		mov	r3, r5
 2207 0076 FFF7FEFF 		bl	__aeabi_dmul
 2208              	.LVL150:
 2209 007a FFF7FEFF 		bl	__aeabi_d2iz
 2210              	.LVL151:
 2211 007e FFF7FEFF 		bl	left_motor_set_speed
 2212              	.LVL152:
 2213              		.loc 1 306 0
 2214 0082 019A     		ldr	r2, [sp, #4]
 2215 0084 DAF80030 		ldr	r3, [r10]
 2216 0088 9A42     		cmp	r2, r3
 2217 008a 12D1     		bne	.L200
 2218 008c 4246     		mov	r2, r8
 2219 008e 4B46     		mov	r3, r9
 2220 0090 3046     		mov	r0, r6
 2221 0092 3946     		mov	r1, r7
 2222 0094 FFF7FEFF 		bl	__aeabi_dsub
ARM GAS  /tmp/cc7Scbes.s 			page 40


 2223              	.LVL153:
 2224 0098 2246     		mov	r2, r4
 2225 009a 2B46     		mov	r3, r5
 2226 009c FFF7FEFF 		bl	__aeabi_dmul
 2227              	.LVL154:
 2228 00a0 FFF7FEFF 		bl	__aeabi_d2iz
 2229              	.LVL155:
 2230              		.loc 1 307 0
 2231 00a4 02B0     		add	sp, sp, #8
 2232              		.cfi_remember_state
 2233              		.cfi_def_cfa_offset 40
 2234              		@ sp needed
 2235 00a6 BDEC028B 		vldm	sp!, {d8}
 2236              		.cfi_restore 80
 2237              		.cfi_restore 81
 2238              		.cfi_def_cfa_offset 32
 2239 00aa BDE8F047 		pop	{r4, r5, r6, r7, r8, r9, r10, lr}
 2240              		.cfi_restore 14
 2241              		.cfi_restore 10
 2242              		.cfi_restore 9
 2243              		.cfi_restore 8
 2244              		.cfi_restore 7
 2245              		.cfi_restore 6
 2246              		.cfi_restore 5
 2247              		.cfi_restore 4
 2248              		.cfi_def_cfa_offset 0
 2249              		.loc 1 306 0
 2250 00ae FFF7FEBF 		b	right_motor_set_speed
 2251              	.LVL156:
 2252              	.L200:
 2253              		.cfi_restore_state
 2254 00b2 FFF7FEFF 		bl	__stack_chk_fail
 2255              	.LVL157:
 2256              	.L202:
 2257 00b6 00BF     		.align	2
 2258              	.L201:
 2259 00b8 DB0F4940 		.word	1078530011
 2260 00bc 00003443 		.word	1127481344
 2261 00c0 00000000 		.word	__stack_chk_guard
 2262              		.cfi_endproc
 2263              	.LFE277:
 2264              		.size	control_motors_BT, .-control_motors_BT
 2265              		.section	.text.set_angle_calib,"ax",%progbits
 2266              		.align	1
 2267              		.p2align 4,,15
 2268              		.global	set_angle_calib
 2269              		.syntax unified
 2270              		.thumb
 2271              		.thumb_func
 2272              		.fpu fpv4-sp-d16
 2273              		.type	set_angle_calib, %function
 2274              	set_angle_calib:
 2275              	.LFB278:
 2276              		.loc 1 310 0
 2277              		.cfi_startproc
 2278              		@ args = 0, pretend = 0, frame = 8
 2279              		@ frame_needed = 0, uses_anonymous_args = 0
ARM GAS  /tmp/cc7Scbes.s 			page 41


 2280              	.LVL158:
 2281 0000 00B5     		push	{lr}
 2282              		.cfi_def_cfa_offset 4
 2283              		.cfi_offset 14, -4
 2284 0002 0A4B     		ldr	r3, .L207
 2285              		.loc 1 311 0
 2286 0004 0A49     		ldr	r1, .L207+4
 2287              		.loc 1 310 0
 2288 0006 1A68     		ldr	r2, [r3]
 2289 0008 83B0     		sub	sp, sp, #12
 2290              		.cfi_def_cfa_offset 16
 2291              		.loc 1 311 0
 2292 000a 07EE900A 		vmov	s15, r0	@ int
 2293              		.loc 1 310 0
 2294 000e 0192     		str	r2, [sp, #4]
 2295              		.loc 1 312 0
 2296 0010 019A     		ldr	r2, [sp, #4]
 2297 0012 1B68     		ldr	r3, [r3]
 2298              		.loc 1 311 0
 2299 0014 F8EE677A 		vcvt.f32.u32	s15, s15
 2300              		.loc 1 312 0
 2301 0018 9A42     		cmp	r2, r3
 2302              		.loc 1 311 0
 2303 001a C1ED007A 		vstr.32	s15, [r1]
 2304              		.loc 1 312 0
 2305 001e 02D1     		bne	.L206
 2306 0020 03B0     		add	sp, sp, #12
 2307              		.cfi_remember_state
 2308              		.cfi_def_cfa_offset 4
 2309              		@ sp needed
 2310 0022 5DF804FB 		ldr	pc, [sp], #4
 2311              	.L206:
 2312              		.cfi_restore_state
 2313 0026 FFF7FEFF 		bl	__stack_chk_fail
 2314              	.LVL159:
 2315              	.L208:
 2316 002a 00BF     		.align	2
 2317              	.L207:
 2318 002c 00000000 		.word	__stack_chk_guard
 2319 0030 00000000 		.word	.LANCHOR2
 2320              		.cfi_endproc
 2321              	.LFE278:
 2322              		.size	set_angle_calib, .-set_angle_calib
 2323              		.section	.text.set_position_calib,"ax",%progbits
 2324              		.align	1
 2325              		.p2align 4,,15
 2326              		.global	set_position_calib
 2327              		.syntax unified
 2328              		.thumb
 2329              		.thumb_func
 2330              		.fpu fpv4-sp-d16
 2331              		.type	set_position_calib, %function
 2332              	set_position_calib:
 2333              	.LFB279:
 2334              		.loc 1 314 0
 2335              		.cfi_startproc
 2336              		@ args = 0, pretend = 0, frame = 8
ARM GAS  /tmp/cc7Scbes.s 			page 42


 2337              		@ frame_needed = 0, uses_anonymous_args = 0
 2338              	.LVL160:
 2339 0000 10B5     		push	{r4, lr}
 2340              		.cfi_def_cfa_offset 8
 2341              		.cfi_offset 4, -8
 2342              		.cfi_offset 14, -4
 2343 0002 0C4A     		ldr	r2, .L213
 2344              		.loc 1 315 0
 2345 0004 0C4B     		ldr	r3, .L213+4
 2346              		.loc 1 314 0
 2347 0006 1468     		ldr	r4, [r2]
 2348 0008 82B0     		sub	sp, sp, #8
 2349              		.cfi_def_cfa_offset 16
 2350              		.loc 1 315 0
 2351 000a 07EE900A 		vmov	s15, r0	@ int
 2352              		.loc 1 314 0
 2353 000e 0194     		str	r4, [sp, #4]
 2354              		.loc 1 315 0
 2355 0010 B8EEE77A 		vcvt.f32.s32	s14, s15
 2356              		.loc 1 316 0
 2357 0014 07EE901A 		vmov	s15, r1	@ int
 2358              		.loc 1 317 0
 2359 0018 019C     		ldr	r4, [sp, #4]
 2360 001a 1268     		ldr	r2, [r2]
 2361              		.loc 1 315 0
 2362 001c 83ED007A 		vstr.32	s14, [r3]
 2363              		.loc 1 316 0
 2364 0020 F8EEE77A 		vcvt.f32.s32	s15, s15
 2365              		.loc 1 317 0
 2366 0024 9442     		cmp	r4, r2
 2367              		.loc 1 316 0
 2368 0026 C3ED017A 		vstr.32	s15, [r3, #4]
 2369              		.loc 1 317 0
 2370 002a 01D1     		bne	.L212
 2371 002c 02B0     		add	sp, sp, #8
 2372              		.cfi_remember_state
 2373              		.cfi_def_cfa_offset 8
 2374              		@ sp needed
 2375 002e 10BD     		pop	{r4, pc}
 2376              	.L212:
 2377              		.cfi_restore_state
 2378 0030 FFF7FEFF 		bl	__stack_chk_fail
 2379              	.LVL161:
 2380              	.L214:
 2381              		.align	2
 2382              	.L213:
 2383 0034 00000000 		.word	__stack_chk_guard
 2384 0038 00000000 		.word	.LANCHOR1
 2385              		.cfi_endproc
 2386              	.LFE279:
 2387              		.size	set_position_calib, .-set_position_calib
 2388              		.section	.text.motors_controller_start,"ax",%progbits
 2389              		.align	1
 2390              		.p2align 4,,15
 2391              		.global	motors_controller_start
 2392              		.syntax unified
 2393              		.thumb
ARM GAS  /tmp/cc7Scbes.s 			page 43


 2394              		.thumb_func
 2395              		.fpu fpv4-sp-d16
 2396              		.type	motors_controller_start, %function
 2397              	motors_controller_start:
 2398              	.LFB280:
 2399              		.loc 1 319 0
 2400              		.cfi_startproc
 2401              		@ args = 0, pretend = 0, frame = 8
 2402              		@ frame_needed = 0, uses_anonymous_args = 0
 2403 0000 10B5     		push	{r4, lr}
 2404              		.cfi_def_cfa_offset 8
 2405              		.cfi_offset 4, -8
 2406              		.cfi_offset 14, -4
 2407 0002 0A4C     		ldr	r4, .L219
 2408              		.loc 1 320 0
 2409 0004 0A4B     		ldr	r3, .L219+4
 2410              		.loc 1 319 0
 2411 0006 2268     		ldr	r2, [r4]
 2412              		.loc 1 320 0
 2413 0008 0A48     		ldr	r0, .L219+8
 2414              		.loc 1 319 0
 2415 000a 84B0     		sub	sp, sp, #16
 2416              		.cfi_def_cfa_offset 24
 2417              		.loc 1 320 0
 2418 000c 4FF41E71 		mov	r1, #632
 2419              		.loc 1 319 0
 2420 0010 0392     		str	r2, [sp, #12]
 2421              		.loc 1 320 0
 2422 0012 0022     		movs	r2, #0
 2423 0014 0092     		str	r2, [sp]
 2424 0016 4122     		movs	r2, #65
 2425 0018 FFF7FEFF 		bl	chThdCreateStatic
 2426              	.LVL162:
 2427              		.loc 1 321 0
 2428 001c 039A     		ldr	r2, [sp, #12]
 2429 001e 2368     		ldr	r3, [r4]
 2430 0020 9A42     		cmp	r2, r3
 2431 0022 01D1     		bne	.L218
 2432 0024 04B0     		add	sp, sp, #16
 2433              		.cfi_remember_state
 2434              		.cfi_def_cfa_offset 8
 2435              		@ sp needed
 2436 0026 10BD     		pop	{r4, pc}
 2437              	.L218:
 2438              		.cfi_restore_state
 2439 0028 FFF7FEFF 		bl	__stack_chk_fail
 2440              	.LVL163:
 2441              	.L220:
 2442              		.align	2
 2443              	.L219:
 2444 002c 00000000 		.word	__stack_chk_guard
 2445 0030 00000000 		.word	MotorsControl
 2446 0034 00000000 		.word	.LANCHOR11
 2447              		.cfi_endproc
 2448              	.LFE280:
 2449              		.size	motors_controller_start, .-motors_controller_start
 2450              		.section	.bss.angle_objective,"aw",%nobits
ARM GAS  /tmp/cc7Scbes.s 			page 44


 2451              		.align	2
 2452              		.set	.LANCHOR7,. + 0
 2453              		.type	angle_objective, %object
 2454              		.size	angle_objective, 4
 2455              	angle_objective:
 2456 0000 00000000 		.space	4
 2457              		.section	.bss.intermediate_position,"aw",%nobits
 2458              		.align	2
 2459              		.set	.LANCHOR9,. + 0
 2460              		.type	intermediate_position, %object
 2461              		.size	intermediate_position, 8
 2462              	intermediate_position:
 2463 0000 00000000 		.space	8
 2463      00000000 
 2464              		.section	.bss.my_angle,"aw",%nobits
 2465              		.align	2
 2466              		.set	.LANCHOR2,. + 0
 2467              		.type	my_angle, %object
 2468              		.size	my_angle, 4
 2469              	my_angle:
 2470 0000 00000000 		.space	4
 2471              		.section	.bss.position_in_int.11072,"aw",%nobits
 2472              		.align	2
 2473              		.set	.LANCHOR0,. + 0
 2474              		.type	position_in_int.11072, %object
 2475              		.size	position_in_int.11072, 4
 2476              	position_in_int.11072:
 2477 0000 00000000 		.space	4
 2478              		.section	.bss.position_in_int.11085,"aw",%nobits
 2479              		.align	2
 2480              		.set	.LANCHOR5,. + 0
 2481              		.type	position_in_int.11085, %object
 2482              		.size	position_in_int.11085, 4
 2483              	position_in_int.11085:
 2484 0000 00000000 		.space	4
 2485              		.section	.bss.position_objective,"aw",%nobits
 2486              		.align	2
 2487              		.set	.LANCHOR6,. + 0
 2488              		.type	position_objective, %object
 2489              		.size	position_objective, 8
 2490              	position_objective:
 2491 0000 00000000 		.space	8
 2491      00000000 
 2492              		.section	.bss.waMotorsControl,"aw",%nobits
 2493              		.align	3
 2494              		.set	.LANCHOR11,. + 0
 2495              		.type	waMotorsControl, %object
 2496              		.size	waMotorsControl, 632
 2497              	waMotorsControl:
 2498 0000 00000000 		.space	632
 2498      00000000 
 2498      00000000 
 2498      00000000 
 2498      00000000 
 2499              		.section	.data.angle_obj_ach,"aw",%progbits
 2500              		.set	.LANCHOR3,. + 0
 2501              		.type	angle_obj_ach, %object
ARM GAS  /tmp/cc7Scbes.s 			page 45


 2502              		.size	angle_obj_ach, 1
 2503              	angle_obj_ach:
 2504 0000 01       		.byte	1
 2505              		.section	.data.interm_ach,"aw",%progbits
 2506              		.set	.LANCHOR8,. + 0
 2507              		.type	interm_ach, %object
 2508              		.size	interm_ach, 1
 2509              	interm_ach:
 2510 0000 01       		.byte	1
 2511              		.section	.data.my_position,"aw",%progbits
 2512              		.align	2
 2513              		.set	.LANCHOR1,. + 0
 2514              		.type	my_position, %object
 2515              		.size	my_position, 8
 2516              	my_position:
 2517 0000 00004843 		.word	1128792064
 2518 0004 00004843 		.word	1128792064
 2519              		.section	.data.pos_obj_ach,"aw",%progbits
 2520              		.set	.LANCHOR4,. + 0
 2521              		.type	pos_obj_ach, %object
 2522              		.size	pos_obj_ach, 1
 2523              	pos_obj_ach:
 2524 0000 01       		.byte	1
 2525              		.section	.rodata.__FUNCTION__.11053,"a",%progbits
 2526              		.align	2
 2527              		.set	.LANCHOR10,. + 0
 2528              		.type	__FUNCTION__.11053, %object
 2529              		.size	__FUNCTION__.11053, 14
 2530              	__FUNCTION__.11053:
 2531 0000 4D6F746F 		.ascii	"MotorsControl\000"
 2531      7273436F 
 2531      6E74726F 
 2531      6C00
 2532              		.text
 2533              	.Letext0:
 2534              		.file 3 "/home/taras/Documents/EPFL/Robotique/TP/eclipse/Eclipse_e-puck2/Tools/gcc-arm-none-eabi-7
 2535              		.file 4 "/home/taras/Documents/EPFL/Robotique/TP/eclipse/Eclipse_e-puck2/Tools/gcc-arm-none-eabi-7
 2536              		.file 5 "/home/taras/Documents/EPFL/Robotique/TP/eclipse/Eclipse_e-puck2/Tools/gcc-arm-none-eabi-7
 2537              		.file 6 "../../lib/e-puck2_main-processor/ChibiOS//os/rt/ports/ARMCMx/compilers/GCC/chtypes.h"
 2538              		.file 7 "../../lib/e-puck2_main-processor/ChibiOS//os/rt/include/chsystypes.h"
 2539              		.file 8 "../../lib/e-puck2_main-processor/ChibiOS//os/rt/include/chschd.h"
 2540              		.file 9 "../../lib/e-puck2_main-processor/ChibiOS//os/ext/CMSIS/include/core_cm4.h"
 2541              		.file 10 "../../lib/e-puck2_main-processor/ChibiOS//os/ext/CMSIS/ST/system_stm32f4xx.h"
 2542              		.file 11 "../../lib/e-puck2_main-processor/ChibiOS//os/ext/CMSIS/ST/stm32f407xx.h"
 2543              		.file 12 "../../lib/e-puck2_main-processor/ChibiOS//os/rt/ports/ARMCMx/chcore.h"
 2544              		.file 13 "../../lib/e-puck2_main-processor/ChibiOS//os/rt/ports/ARMCMx/chcore_v7m.h"
 2545              		.file 14 "../../lib/e-puck2_main-processor/ChibiOS//os/rt/include/chdebug.h"
 2546              		.file 15 "../../lib/e-puck2_main-processor/ChibiOS//os/rt/include/chtm.h"
 2547              		.file 16 "../../lib/e-puck2_main-processor/ChibiOS//os/rt/include/chstats.h"
 2548              		.file 17 "../../lib/e-puck2_main-processor/ChibiOS//os/rt/include/chsem.h"
 2549              		.file 18 "../../lib/e-puck2_main-processor/ChibiOS//os/rt/include/chmtx.h"
 2550              		.file 19 "../../lib/e-puck2_main-processor/ChibiOS//os/rt/include/chevents.h"
 2551              		.file 20 "../../lib/e-puck2_main-processor/ChibiOS//os/rt/include/chqueues.h"
 2552              		.file 21 "../../lib/e-puck2_main-processor/ChibiOS//os/hal/ports/STM32/STM32F4xx/stm32_dma.h"
 2553              		.file 22 "../../lib/e-puck2_main-processor/ChibiOS//os/hal/include/hal_ioblock.h"
 2554              		.file 23 "../../lib/e-puck2_main-processor/ChibiOS//os/hal/ports/STM32/LLD/GPIOv2/pal_lld.h"
 2555              		.file 24 "../../lib/e-puck2_main-processor/ChibiOS//os/hal/include/adc.h"
ARM GAS  /tmp/cc7Scbes.s 			page 46


 2556              		.file 25 "../../lib/e-puck2_main-processor/ChibiOS//os/hal/ports/STM32/STM32F4xx/adc_lld.h"
 2557              		.file 26 "../../lib/e-puck2_main-processor/ChibiOS//os/hal/include/can.h"
 2558              		.file 27 "../../lib/e-puck2_main-processor/ChibiOS//os/hal/ports/STM32/LLD/can_lld.h"
 2559              		.file 28 "../../lib/e-puck2_main-processor/ChibiOS//os/hal/include/dac.h"
 2560              		.file 29 "../../lib/e-puck2_main-processor/ChibiOS//os/hal/ports/STM32/LLD/DACv1/dac_lld.h"
 2561              		.file 30 "../../lib/e-puck2_main-processor/ChibiOS//os/hal/include/ext.h"
 2562              		.file 31 "../../lib/e-puck2_main-processor/ChibiOS//os/hal/ports/STM32/LLD/ext_lld.h"
 2563              		.file 32 "../../lib/e-puck2_main-processor/ChibiOS//os/hal/include/gpt.h"
 2564              		.file 33 "../../lib/e-puck2_main-processor/ChibiOS//os/hal/ports/STM32/LLD/TIMv1/gpt_lld.h"
 2565              		.file 34 "../../lib/e-puck2_main-processor/ChibiOS//os/hal/ports/STM32/LLD/TIMv1/stm32_tim.h"
 2566              		.file 35 "../../lib/e-puck2_main-processor/ChibiOS//os/hal/include/i2c.h"
 2567              		.file 36 "../../lib/e-puck2_main-processor/ChibiOS//os/hal/ports/STM32/LLD/I2Cv1/i2c_lld.h"
 2568              		.file 37 "../../lib/e-puck2_main-processor/ChibiOS//os/hal/include/i2s.h"
 2569              		.file 38 "../../lib/e-puck2_main-processor/ChibiOS//os/hal/ports/STM32/LLD/SPIv1/i2s_lld.h"
 2570              		.file 39 "../../lib/e-puck2_main-processor/ChibiOS//os/hal/include/pwm.h"
 2571              		.file 40 "../../lib/e-puck2_main-processor/ChibiOS//os/hal/ports/STM32/LLD/TIMv1/pwm_lld.h"
 2572              		.file 41 "../../lib/e-puck2_main-processor/ChibiOS//os/hal/include/serial.h"
 2573              		.file 42 "../../lib/e-puck2_main-processor/ChibiOS//os/hal/ports/STM32/LLD/USARTv1/serial_lld.h"
 2574              		.file 43 "../../lib/e-puck2_main-processor/ChibiOS//os/hal/include/sdc.h"
 2575              		.file 44 "../../lib/e-puck2_main-processor/ChibiOS//os/hal/ports/STM32/LLD/sdc_lld.h"
 2576              		.file 45 "../../lib/e-puck2_main-processor/ChibiOS//os/hal/include/spi.h"
 2577              		.file 46 "../../lib/e-puck2_main-processor/ChibiOS//os/hal/ports/STM32/LLD/SPIv1/spi_lld.h"
 2578              		.file 47 "../../lib/e-puck2_main-processor/ChibiOS//os/hal/include/usb.h"
 2579              		.file 48 "../../lib/e-puck2_main-processor/ChibiOS//os/hal/ports/STM32/LLD/OTGv1/usb_lld.h"
 2580              		.file 49 "../../lib/e-puck2_main-processor/ChibiOS//os/hal/ports/STM32/LLD/OTGv1/stm32_otg.h"
 2581              		.file 50 "../../lib/e-puck2_main-processor/ChibiOS//os/hal/include/serial_usb.h"
 2582              		.file 51 "/home/taras/Documents/EPFL/Robotique/TP/eclipse/Eclipse_e-puck2/Tools/gcc-arm-none-eabi-
 2583              		.file 52 "/home/taras/Documents/EPFL/Robotique/TP/eclipse/Eclipse_e-puck2/Tools/gcc-arm-none-eabi-
 2584              		.file 53 "/home/taras/Documents/EPFL/Robotique/TP/eclipse/Eclipse_e-puck2/Tools/gcc-arm-none-eabi-
 2585              		.file 54 "/home/taras/Documents/EPFL/Robotique/TP/eclipse/Eclipse_e-puck2/Tools/gcc-arm-none-eabi-
 2586              		.file 55 "../../lib/e-puck2_main-processor/src/usbcfg.h"
 2587              		.file 56 "/home/taras/Documents/EPFL/Robotique/TP/eclipse/Eclipse_e-puck2/Tools/gcc-arm-none-eabi-
 2588              		.file 57 "../../lib/e-puck2_main-processor/ChibiOS//os/rt/include/chthreads.h"
 2589              		.file 58 "../../lib/e-puck2_main-processor/src/motors.h"