ARM GAS  /tmp/ccHWprLt.s 			page 1


   1              		.cpu cortex-m4
   2              		.eabi_attribute 27, 1
   3              		.eabi_attribute 28, 1
   4              		.eabi_attribute 20, 1
   5              		.eabi_attribute 21, 1
   6              		.eabi_attribute 23, 3
   7              		.eabi_attribute 24, 1
   8              		.eabi_attribute 25, 1
   9              		.eabi_attribute 26, 1
  10              		.eabi_attribute 30, 2
  11              		.eabi_attribute 34, 1
  12              		.eabi_attribute 18, 4
  13              		.file	"position_calibrator.c"
  14              		.text
  15              	.Ltext0:
  16              		.cfi_sections	.debug_frame
  17              		.section	.text.position_calibrator,"ax",%progbits
  18              		.align	1
  19              		.p2align 4,,15
  20              		.syntax unified
  21              		.thumb
  22              		.thumb_func
  23              		.fpu fpv4-sp-d16
  24              		.type	position_calibrator, %function
  25              	position_calibrator:
  26              	.LFB260:
  27              		.file 1 "position_calibrator.c"
  28              		.loc 1 39 0
  29              		.cfi_startproc
  30              		@ args = 0, pretend = 0, frame = 16
  31              		@ frame_needed = 0, uses_anonymous_args = 0
  32              	.LVL0:
  33 0000 2DE9F043 		push	{r4, r5, r6, r7, r8, r9, lr}
  34              		.cfi_def_cfa_offset 28
  35              		.cfi_offset 4, -28
  36              		.cfi_offset 5, -24
  37              		.cfi_offset 6, -20
  38              		.cfi_offset 7, -16
  39              		.cfi_offset 8, -12
  40              		.cfi_offset 9, -8
  41              		.cfi_offset 14, -4
  42              	.LBB10:
  43              	.LBB11:
  44              		.file 2 "../../lib/e-puck2_main-processor/ChibiOS//os/rt/include/chregistry.h"
  45              		.loc 2 135 0
  46 0004 664D     		ldr	r5, .L38
  47              	.LBE11:
  48              	.LBE10:
  49              		.loc 1 39 0
  50 0006 674F     		ldr	r7, .L38+4
  51              	.LBB15:
  52              	.LBB12:
  53              		.loc 2 135 0
  54 0008 AB69     		ldr	r3, [r5, #24]
  55              	.LBE12:
  56              	.LBE15:
  57              		.loc 1 56 0
ARM GAS  /tmp/ccHWprLt.s 			page 2


  58 000a 674E     		ldr	r6, .L38+8
  59              	.LBB16:
  60              	.LBB13:
  61              		.loc 2 135 0
  62 000c 674A     		ldr	r2, .L38+12
  63              	.LBE13:
  64              	.LBE16:
  65              		.loc 1 39 0
  66 000e 2DED068B 		vpush.64	{d8, d9, d10}
  67              		.cfi_def_cfa_offset 52
  68              		.cfi_offset 80, -52
  69              		.cfi_offset 81, -48
  70              		.cfi_offset 82, -44
  71              		.cfi_offset 83, -40
  72              		.cfi_offset 84, -36
  73              		.cfi_offset 85, -32
  74 0012 85B0     		sub	sp, sp, #20
  75              		.cfi_def_cfa_offset 72
  76              	.LBB17:
  77              	.LBB14:
  78              		.loc 2 135 0
  79 0014 9A61     		str	r2, [r3, #24]
  80              	.LBE14:
  81              	.LBE17:
  82              		.loc 1 39 0
  83 0016 3B68     		ldr	r3, [r7]
  84 0018 0393     		str	r3, [sp, #12]
  85              	.LVL1:
  86              		.loc 1 58 0
  87 001a 3046     		mov	r0, r6
  88              	.LVL2:
  89              		.loc 1 56 0
  90 001c 5223     		movs	r3, #82
  91 001e 86F8BF31 		strb	r3, [r6, #447]
  92              		.loc 1 58 0
  93 0022 FFF7FEFF 		bl	VL53L0X_init
  94              	.LVL3:
  95              		.loc 1 60 0
  96 0026 50B9     		cbnz	r0, .L2
  97              		.loc 1 61 0
  98 0028 0121     		movs	r1, #1
  99 002a 3046     		mov	r0, r6
 100              	.LVL4:
 101 002c FFF7FEFF 		bl	VL53L0X_configAccuracy
 102              	.LVL5:
 103              		.loc 1 64 0
 104 0030 0121     		movs	r1, #1
 105 0032 3046     		mov	r0, r6
 106 0034 FFF7FEFF 		bl	VL53L0X_startMeasure
 107              	.LVL6:
 108              		.loc 1 67 0
 109 0038 5D4B     		ldr	r3, .L38+16
 110 003a 0122     		movs	r2, #1
 111 003c 1A70     		strb	r2, [r3]
 112              	.L2:
 113              		.loc 1 115 0
 114 003e DFED5D9A 		vldr.32	s19, .L38+20
ARM GAS  /tmp/ccHWprLt.s 			page 3


 115 0042 9FED5D8A 		vldr.32	s16, .L38+24
 116              		.loc 1 76 0
 117 0046 9FED5D9A 		vldr.32	s18, .L38+28
 118 004a DFED5D8A 		vldr.32	s17, .L38+32
 119              		.loc 1 108 0
 120 004e B0EE69AA 		vmov.f32	s20, s19
 121              		.loc 1 115 0
 122 0052 4FF00008 		mov	r8, #0
 123              	.LVL7:
 124              	.L3:
 125              	.LBB18:
 126              	.LBB19:
 127              		.file 3 "../../lib/e-puck2_main-processor/ChibiOS//os/rt/include/chthreads.h"
 128              		.loc 3 233 0
 129 0056 AB69     		ldr	r3, [r5, #24]
 130              	.LBE19:
 131              	.LBE18:
 132              		.loc 1 71 0
 133 0058 93F82130 		ldrb	r3, [r3, #33]	@ zero_extendqisi2
 134 005c 5B07     		lsls	r3, r3, #29
 135 005e 2ED4     		bmi	.L34
 136              	.L17:
 137              		.loc 1 72 0
 138 0060 534B     		ldr	r3, .L38+16
 139 0062 1B78     		ldrb	r3, [r3]	@ zero_extendqisi2
 140 0064 002B     		cmp	r3, #0
 141 0066 40F08180 		bne	.L4
 142 006a 564B     		ldr	r3, .L38+36
 143 006c 1B88     		ldrh	r3, [r3]
 144              	.L5:
 145              		.loc 1 77 0
 146 006e 564C     		ldr	r4, .L38+40
 147              		.loc 1 76 0
 148 0070 07EE903A 		vmov	s15, r3	@ int
 149 0074 F8EEE77A 		vcvt.f32.s32	s15, s15
 150              		.loc 1 77 0
 151 0078 2378     		ldrb	r3, [r4]	@ zero_extendqisi2
 152              		.loc 1 76 0
 153 007a 67EE897A 		vmul.f32	s15, s15, s18
 154 007e E8EE287A 		vfma.f32	s15, s16, s17
 155 0082 B0EE678A 		vmov.f32	s16, s15
 156              	.LVL8:
 157              		.loc 1 77 0
 158 0086 002B     		cmp	r3, #0
 159 0088 6BD0     		beq	.L6
 160              		.loc 1 78 0
 161 008a DFF84091 		ldr	r9, .L38+44
 162 008e 99F80030 		ldrb	r3, [r9]	@ zero_extendqisi2
 163 0092 042B     		cmp	r3, #4
 164 0094 0BD8     		bhi	.L7
 165 0096 DFE803F0 		tbb	[pc, r3]
 166              	.L9:
 167 009a 3C       		.byte	(.L8-.L9)/2
 168 009b 28       		.byte	(.L10-.L9)/2
 169 009c 4A       		.byte	(.L11-.L9)/2
 170 009d 1B       		.byte	(.L12-.L9)/2
 171 009e 03       		.byte	(.L13-.L9)/2
ARM GAS  /tmp/ccHWprLt.s 			page 4


 172 009f 00       		.p2align 1
 173              	.L13:
 174              		.loc 1 114 0
 175 00a0 F4EEE79A 		vcmpe.f32	s19, s15
 176 00a4 F1EE10FA 		vmrs	APSR_nzcv, FPSCR
 177 00a8 68DD     		ble	.L35
 178              	.L20:
 179              		.loc 1 115 0
 180 00aa F0EE489A 		vmov.f32	s19, s16
 181              	.LVL9:
 182              	.L7:
 183              		.loc 1 124 0
 184 00ae 0520     		movs	r0, #5
 185 00b0 FFF7FEFF 		bl	chThdSleep
 186              	.LVL10:
 187              	.L37:
 188              	.LBB21:
 189              	.LBB20:
 190              		.loc 3 233 0
 191 00b4 AB69     		ldr	r3, [r5, #24]
 192              	.LBE20:
 193              	.LBE21:
 194              		.loc 1 71 0
 195 00b6 93F82130 		ldrb	r3, [r3, #33]	@ zero_extendqisi2
 196 00ba 5B07     		lsls	r3, r3, #29
 197 00bc D0D5     		bpl	.L17
 198              	.L34:
 199              		.loc 1 129 0
 200 00be 039A     		ldr	r2, [sp, #12]
 201 00c0 3B68     		ldr	r3, [r7]
 202 00c2 9A42     		cmp	r2, r3
 203 00c4 6AD1     		bne	.L36
 204 00c6 05B0     		add	sp, sp, #20
 205              		.cfi_remember_state
 206              		.cfi_def_cfa_offset 52
 207              		@ sp needed
 208 00c8 BDEC068B 		vldm	sp!, {d8-d10}
 209              		.cfi_restore 84
 210              		.cfi_restore 85
 211              		.cfi_restore 82
 212              		.cfi_restore 83
 213              		.cfi_restore 80
 214              		.cfi_restore 81
 215              		.cfi_def_cfa_offset 28
 216              	.LVL11:
 217 00cc BDE8F083 		pop	{r4, r5, r6, r7, r8, r9, pc}
 218              	.LVL12:
 219              	.L12:
 220              		.cfi_restore_state
 221              		.loc 1 107 0
 222 00d0 FFF7FEFF 		bl	get_angle_achieved
 223              	.LVL13:
 224 00d4 0028     		cmp	r0, #0
 225 00d6 EAD0     		beq	.L7
 226              	.LVL14:
 227              		.loc 1 109 0
 228 00d8 0423     		movs	r3, #4
ARM GAS  /tmp/ccHWprLt.s 			page 5


 229              		.loc 1 124 0
 230 00da 0520     		movs	r0, #5
 231              		.loc 1 109 0
 232 00dc 89F80030 		strb	r3, [r9]
 233              		.loc 1 108 0
 234 00e0 F0EE4A9A 		vmov.f32	s19, s20
 235              	.LVL15:
 236              		.loc 1 124 0
 237 00e4 FFF7FEFF 		bl	chThdSleep
 238              	.LVL16:
 239 00e8 E4E7     		b	.L37
 240              	.LVL17:
 241              	.L10:
 242              		.loc 1 87 0
 243 00ea FFF7FEFF 		bl	get_angle_achieved
 244              	.LVL18:
 245 00ee 0028     		cmp	r0, #0
 246 00f0 DDD0     		beq	.L7
 247              		.loc 1 88 0
 248 00f2 1420     		movs	r0, #20
 249 00f4 FFF7FEFF 		bl	right_motor_set_speed
 250              	.LVL19:
 251              		.loc 1 89 0
 252 00f8 6FF01300 		mvn	r0, #19
 253 00fc FFF7FEFF 		bl	left_motor_set_speed
 254              	.LVL20:
 255              		.loc 1 91 0
 256 0100 0223     		movs	r3, #2
 257              		.loc 1 124 0
 258 0102 0520     		movs	r0, #5
 259              		.loc 1 91 0
 260 0104 89F80030 		strb	r3, [r9]
 261              		.loc 1 90 0
 262 0108 F0EE4A9A 		vmov.f32	s19, s20
 263              	.LVL21:
 264              		.loc 1 124 0
 265 010c FFF7FEFF 		bl	chThdSleep
 266              	.LVL22:
 267 0110 D0E7     		b	.L37
 268              	.LVL23:
 269              	.L8:
 270              		.loc 1 80 0
 271 0112 FFF7FEFF 		bl	get_position_achieved
 272              	.LVL24:
 273 0116 0028     		cmp	r0, #0
 274 0118 C9D0     		beq	.L7
 275              		.loc 1 81 0
 276 011a A020     		movs	r0, #160
 277 011c FFF7FEFF 		bl	set_angle_obj
 278              	.LVL25:
 279              		.loc 1 82 0
 280 0120 0123     		movs	r3, #1
 281              		.loc 1 124 0
 282 0122 0520     		movs	r0, #5
 283              		.loc 1 82 0
 284 0124 89F80030 		strb	r3, [r9]
 285              		.loc 1 124 0
ARM GAS  /tmp/ccHWprLt.s 			page 6


 286 0128 FFF7FEFF 		bl	chThdSleep
 287              	.LVL26:
 288 012c C2E7     		b	.L37
 289              	.LVL27:
 290              	.L11:
 291              		.loc 1 96 0
 292 012e F4EEE79A 		vcmpe.f32	s19, s15
 293 0132 F1EE10FA 		vmrs	APSR_nzcv, FPSCR
 294 0136 B8DC     		bgt	.L20
 295              		.loc 1 98 0
 296 0138 B9D5     		bpl	.L7
 297              		.loc 1 99 0
 298 013a FDEEE97A 		vcvt.s32.f32	s15, s19
 299              	.LVL28:
 300              		.loc 1 100 0
 301 013e B420     		movs	r0, #180
 302              		.loc 1 99 0
 303 0140 CDED017A 		vstr.32	s15, [sp, #4]	@ int
 304 0144 BDF90480 		ldrsh	r8, [sp, #4]
 305              	.LVL29:
 306              		.loc 1 100 0
 307 0148 FFF7FEFF 		bl	set_angle_calib
 308              	.LVL30:
 309              		.loc 1 101 0
 310 014c 4FF48770 		mov	r0, #270
 311 0150 FFF7FEFF 		bl	set_angle_obj
 312              	.LVL31:
 313              		.loc 1 102 0
 314 0154 0323     		movs	r3, #3
 315              		.loc 1 124 0
 316 0156 0520     		movs	r0, #5
 317              		.loc 1 102 0
 318 0158 89F80030 		strb	r3, [r9]
 319              		.loc 1 124 0
 320 015c FFF7FEFF 		bl	chThdSleep
 321              	.LVL32:
 322 0160 A8E7     		b	.L37
 323              	.LVL33:
 324              	.L6:
 325              		.loc 1 126 0
 326 0162 4FF4FA70 		mov	r0, #500
 327 0166 FFF7FEFF 		bl	chThdSleep
 328              	.LVL34:
 329 016a 74E7     		b	.L3
 330              	.L4:
 331              		.loc 1 73 0
 332 016c 0E48     		ldr	r0, .L38+8
 333 016e FFF7FEFF 		bl	VL53L0X_getLastMeasure
 334              	.LVL35:
 335              		.loc 1 74 0
 336 0172 144A     		ldr	r2, .L38+36
 337 0174 B6F85830 		ldrh	r3, [r6, #88]
 338 0178 1380     		strh	r3, [r2]	@ movhi
 339 017a 78E7     		b	.L5
 340              	.LVL36:
 341              	.L35:
 342              		.loc 1 116 0
ARM GAS  /tmp/ccHWprLt.s 			page 7


 343 017c 97D5     		bpl	.L7
 344              	.LVL37:
 345              		.loc 1 118 0
 346 017e FDEEE97A 		vcvt.s32.f32	s15, s19
 347              	.LVL38:
 348 0182 4046     		mov	r0, r8
 349 0184 CDED017A 		vstr.32	s15, [sp, #4]	@ int
 350 0188 BDF90410 		ldrsh	r1, [sp, #4]
 351 018c FFF7FEFF 		bl	set_position_calib
 352              	.LVL39:
 353              		.loc 1 119 0
 354 0190 0023     		movs	r3, #0
 355              		.loc 1 124 0
 356 0192 0520     		movs	r0, #5
 357              		.loc 1 119 0
 358 0194 2370     		strb	r3, [r4]
 359              		.loc 1 124 0
 360 0196 FFF7FEFF 		bl	chThdSleep
 361              	.LVL40:
 362 019a 8BE7     		b	.L37
 363              	.LVL41:
 364              	.L36:
 365              		.loc 1 129 0
 366 019c FFF7FEFF 		bl	__stack_chk_fail
 367              	.LVL42:
 368              	.L39:
 369              		.align	2
 370              	.L38:
 371 01a0 00000000 		.word	ch
 372 01a4 00000000 		.word	__stack_chk_guard
 373 01a8 00000000 		.word	.LANCHOR0
 374 01ac 00000000 		.word	.LC1
 375 01b0 00000000 		.word	.LANCHOR1
 376 01b4 0050C347 		.word	1203982336
 377 01b8 00000000 		.word	0
 378 01bc 0AD7233C 		.word	1008981770
 379 01c0 A4707D3F 		.word	1065185444
 380 01c4 00000000 		.word	.LANCHOR2
 381 01c8 00000000 		.word	.LANCHOR3
 382 01cc 00000000 		.word	.LANCHOR4
 383              		.cfi_endproc
 384              	.LFE260:
 385              		.size	position_calibrator, .-position_calibrator
 386              		.section	.text.position_calibrator_start,"ax",%progbits
 387              		.align	1
 388              		.p2align 4,,15
 389              		.global	position_calibrator_start
 390              		.syntax unified
 391              		.thumb
 392              		.thumb_func
 393              		.fpu fpv4-sp-d16
 394              		.type	position_calibrator_start, %function
 395              	position_calibrator_start:
 396              	.LFB261:
 397              		.loc 1 131 0
 398              		.cfi_startproc
 399              		@ args = 0, pretend = 0, frame = 8
ARM GAS  /tmp/ccHWprLt.s 			page 8


 400              		@ frame_needed = 0, uses_anonymous_args = 0
 401 0000 30B5     		push	{r4, r5, lr}
 402              		.cfi_def_cfa_offset 12
 403              		.cfi_offset 4, -12
 404              		.cfi_offset 5, -8
 405              		.cfi_offset 14, -4
 406              		.loc 1 132 0
 407 0002 0C4B     		ldr	r3, .L45
 408              		.loc 1 131 0
 409 0004 0C4C     		ldr	r4, .L45+4
 410              		.loc 1 132 0
 411 0006 1D78     		ldrb	r5, [r3]	@ zero_extendqisi2
 412              		.loc 1 131 0
 413 0008 2368     		ldr	r3, [r4]
 414 000a 85B0     		sub	sp, sp, #20
 415              		.cfi_def_cfa_offset 32
 416              		.loc 1 131 0
 417 000c 0393     		str	r3, [sp, #12]
 418              		.loc 1 132 0
 419 000e 4DB9     		cbnz	r5, .L40
 420              		.loc 1 136 0
 421 0010 FFF7FEFF 		bl	i2c_start
 422              	.LVL43:
 423              		.loc 1 138 0
 424 0014 0095     		str	r5, [sp]
 425 0016 094B     		ldr	r3, .L45+8
 426 0018 0948     		ldr	r0, .L45+12
 427 001a 4A22     		movs	r2, #74
 428 001c 4FF45E71 		mov	r1, #888
 429 0020 FFF7FEFF 		bl	chThdCreateStatic
 430              	.LVL44:
 431              	.L40:
 432              		.loc 1 143 0
 433 0024 039A     		ldr	r2, [sp, #12]
 434 0026 2368     		ldr	r3, [r4]
 435 0028 9A42     		cmp	r2, r3
 436 002a 01D1     		bne	.L44
 437 002c 05B0     		add	sp, sp, #20
 438              		.cfi_remember_state
 439              		.cfi_def_cfa_offset 12
 440              		@ sp needed
 441 002e 30BD     		pop	{r4, r5, pc}
 442              	.L44:
 443              		.cfi_restore_state
 444 0030 FFF7FEFF 		bl	__stack_chk_fail
 445              	.LVL45:
 446              	.L46:
 447              		.align	2
 448              	.L45:
 449 0034 00000000 		.word	.LANCHOR1
 450 0038 00000000 		.word	__stack_chk_guard
 451 003c 00000000 		.word	position_calibrator
 452 0040 00000000 		.word	.LANCHOR5
 453              		.cfi_endproc
 454              	.LFE261:
 455              		.size	position_calibrator_start, .-position_calibrator_start
 456              		.section	.text.calibrate,"ax",%progbits
ARM GAS  /tmp/ccHWprLt.s 			page 9


 457              		.align	1
 458              		.p2align 4,,15
 459              		.global	calibrate
 460              		.syntax unified
 461              		.thumb
 462              		.thumb_func
 463              		.fpu fpv4-sp-d16
 464              		.type	calibrate, %function
 465              	calibrate:
 466              	.LFB262:
 467              		.loc 1 145 0
 468              		.cfi_startproc
 469              		@ args = 0, pretend = 0, frame = 8
 470              		@ frame_needed = 0, uses_anonymous_args = 0
 471 0000 30B5     		push	{r4, r5, lr}
 472              		.cfi_def_cfa_offset 12
 473              		.cfi_offset 4, -12
 474              		.cfi_offset 5, -8
 475              		.cfi_offset 14, -4
 476              		.loc 1 146 0
 477 0002 0C4B     		ldr	r3, .L51
 478              		.loc 1 145 0
 479 0004 0C4C     		ldr	r4, .L51+4
 480              		.loc 1 146 0
 481 0006 1B68     		ldr	r3, [r3]
 482              		.loc 1 145 0
 483 0008 2268     		ldr	r2, [r4]
 484              		.loc 1 148 0
 485 000a 0C4D     		ldr	r5, .L51+8
 486              		.loc 1 145 0
 487 000c 83B0     		sub	sp, sp, #12
 488              		.cfi_def_cfa_offset 24
 489              		.loc 1 146 0
 490 000e 02A8     		add	r0, sp, #8
 491              		.loc 1 145 0
 492 0010 0192     		str	r2, [sp, #4]
 493              		.loc 1 146 0
 494 0012 40F8083D 		str	r3, [r0, #-8]!
 495              		.loc 1 147 0
 496 0016 FFF7FEFF 		bl	set_position_obj
 497              	.LVL46:
 498              		.loc 1 150 0
 499 001a 019A     		ldr	r2, [sp, #4]
 500 001c 2368     		ldr	r3, [r4]
 501              		.loc 1 149 0
 502 001e 0849     		ldr	r1, .L51+12
 503              		.loc 1 148 0
 504 0020 0124     		movs	r4, #1
 505              		.loc 1 149 0
 506 0022 0020     		movs	r0, #0
 507              		.loc 1 150 0
 508 0024 9A42     		cmp	r2, r3
 509              		.loc 1 148 0
 510 0026 2C70     		strb	r4, [r5]
 511              		.loc 1 149 0
 512 0028 0870     		strb	r0, [r1]
 513              		.loc 1 150 0
ARM GAS  /tmp/ccHWprLt.s 			page 10


 514 002a 01D1     		bne	.L50
 515 002c 03B0     		add	sp, sp, #12
 516              		.cfi_remember_state
 517              		.cfi_def_cfa_offset 12
 518              		@ sp needed
 519 002e 30BD     		pop	{r4, r5, pc}
 520              	.L50:
 521              		.cfi_restore_state
 522 0030 FFF7FEFF 		bl	__stack_chk_fail
 523              	.LVL47:
 524              	.L52:
 525              		.align	2
 526              	.L51:
 527 0034 00000000 		.word	.LANCHOR6
 528 0038 00000000 		.word	__stack_chk_guard
 529 003c 00000000 		.word	.LANCHOR3
 530 0040 00000000 		.word	.LANCHOR4
 531              		.cfi_endproc
 532              	.LFE262:
 533              		.size	calibrate, .-calibrate
 534              		.section	.rodata
 535              		.align	2
 536              		.set	.LANCHOR6,. + 0
 537              	.LC0:
 538 0000 9600     		.short	150
 539 0002 9600     		.short	150
 540              		.section	.bss.VL53L0X_configured,"aw",%nobits
 541              		.set	.LANCHOR1,. + 0
 542              		.type	VL53L0X_configured, %object
 543              		.size	VL53L0X_configured, 1
 544              	VL53L0X_configured:
 545 0000 00       		.space	1
 546              		.section	.bss.calibration_in_progress,"aw",%nobits
 547              		.set	.LANCHOR3,. + 0
 548              		.type	calibration_in_progress, %object
 549              		.size	calibration_in_progress, 1
 550              	calibration_in_progress:
 551 0000 00       		.space	1
 552              		.section	.bss.calibration_state,"aw",%nobits
 553              		.set	.LANCHOR4,. + 0
 554              		.type	calibration_state, %object
 555              		.size	calibration_state, 1
 556              	calibration_state:
 557 0000 00       		.space	1
 558              		.section	.bss.device.11795,"aw",%nobits
 559              		.align	2
 560              		.set	.LANCHOR0,. + 0
 561              		.type	device.11795, %object
 562              		.size	device.11795, 448
 563              	device.11795:
 564 0000 00000000 		.space	448
 564      00000000 
 564      00000000 
 564      00000000 
 564      00000000 
 565              		.section	.bss.dist_mm,"aw",%nobits
 566              		.align	1
ARM GAS  /tmp/ccHWprLt.s 			page 11


 567              		.set	.LANCHOR2,. + 0
 568              		.type	dist_mm, %object
 569              		.size	dist_mm, 2
 570              	dist_mm:
 571 0000 0000     		.space	2
 572              		.section	.bss.waposition_calibrator,"aw",%nobits
 573              		.align	3
 574              		.set	.LANCHOR5,. + 0
 575              		.type	waposition_calibrator, %object
 576              		.size	waposition_calibrator, 888
 577              	waposition_calibrator:
 578 0000 00000000 		.space	888
 578      00000000 
 578      00000000 
 578      00000000 
 578      00000000 
 579              		.section	.rodata.position_calibrator.str1.4,"aMS",%progbits,1
 580              		.align	2
 581              	.LC1:
 582 0000 564C3533 		.ascii	"VL53L0x Thd\000"
 582      4C307820 
 582      54686400 
 583              		.text
 584              	.Letext0:
 585              		.file 4 "/home/taras/Documents/EPFL/Robotique/TP/eclipse/Eclipse_e-puck2/Tools/gcc-arm-none-eabi-7
 586              		.file 5 "/home/taras/Documents/EPFL/Robotique/TP/eclipse/Eclipse_e-puck2/Tools/gcc-arm-none-eabi-7
 587              		.file 6 "/home/taras/Documents/EPFL/Robotique/TP/eclipse/Eclipse_e-puck2/Tools/gcc-arm-none-eabi-7
 588              		.file 7 "../../lib/e-puck2_main-processor/ChibiOS//os/rt/ports/ARMCMx/compilers/GCC/chtypes.h"
 589              		.file 8 "../../lib/e-puck2_main-processor/ChibiOS//os/rt/include/chsystypes.h"
 590              		.file 9 "../../lib/e-puck2_main-processor/ChibiOS//os/rt/include/chschd.h"
 591              		.file 10 "../../lib/e-puck2_main-processor/ChibiOS//os/ext/CMSIS/include/core_cm4.h"
 592              		.file 11 "../../lib/e-puck2_main-processor/ChibiOS//os/ext/CMSIS/ST/system_stm32f4xx.h"
 593              		.file 12 "../../lib/e-puck2_main-processor/ChibiOS//os/ext/CMSIS/ST/stm32f407xx.h"
 594              		.file 13 "../../lib/e-puck2_main-processor/ChibiOS//os/rt/ports/ARMCMx/chcore.h"
 595              		.file 14 "../../lib/e-puck2_main-processor/ChibiOS//os/rt/ports/ARMCMx/chcore_v7m.h"
 596              		.file 15 "../../lib/e-puck2_main-processor/ChibiOS//os/rt/include/chdebug.h"
 597              		.file 16 "../../lib/e-puck2_main-processor/ChibiOS//os/rt/include/chtm.h"
 598              		.file 17 "../../lib/e-puck2_main-processor/ChibiOS//os/rt/include/chstats.h"
 599              		.file 18 "../../lib/e-puck2_main-processor/ChibiOS//os/rt/include/chsem.h"
 600              		.file 19 "../../lib/e-puck2_main-processor/ChibiOS//os/rt/include/chmtx.h"
 601              		.file 20 "../../lib/e-puck2_main-processor/ChibiOS//os/rt/include/chevents.h"
 602              		.file 21 "../../lib/e-puck2_main-processor/ChibiOS//os/rt/include/chqueues.h"
 603              		.file 22 "../../lib/e-puck2_main-processor/ChibiOS//os/hal/ports/STM32/STM32F4xx/stm32_dma.h"
 604              		.file 23 "../../lib/e-puck2_main-processor/ChibiOS//os/hal/include/hal_ioblock.h"
 605              		.file 24 "../../lib/e-puck2_main-processor/ChibiOS//os/hal/ports/STM32/LLD/GPIOv2/pal_lld.h"
 606              		.file 25 "../../lib/e-puck2_main-processor/ChibiOS//os/hal/include/adc.h"
 607              		.file 26 "../../lib/e-puck2_main-processor/ChibiOS//os/hal/ports/STM32/STM32F4xx/adc_lld.h"
 608              		.file 27 "../../lib/e-puck2_main-processor/ChibiOS//os/hal/include/can.h"
 609              		.file 28 "../../lib/e-puck2_main-processor/ChibiOS//os/hal/ports/STM32/LLD/can_lld.h"
 610              		.file 29 "../../lib/e-puck2_main-processor/ChibiOS//os/hal/include/dac.h"
 611              		.file 30 "../../lib/e-puck2_main-processor/ChibiOS//os/hal/ports/STM32/LLD/DACv1/dac_lld.h"
 612              		.file 31 "../../lib/e-puck2_main-processor/ChibiOS//os/hal/include/ext.h"
 613              		.file 32 "../../lib/e-puck2_main-processor/ChibiOS//os/hal/ports/STM32/LLD/ext_lld.h"
 614              		.file 33 "../../lib/e-puck2_main-processor/ChibiOS//os/hal/include/gpt.h"
 615              		.file 34 "../../lib/e-puck2_main-processor/ChibiOS//os/hal/ports/STM32/LLD/TIMv1/gpt_lld.h"
 616              		.file 35 "../../lib/e-puck2_main-processor/ChibiOS//os/hal/ports/STM32/LLD/TIMv1/stm32_tim.h"
 617              		.file 36 "../../lib/e-puck2_main-processor/ChibiOS//os/hal/include/i2c.h"
ARM GAS  /tmp/ccHWprLt.s 			page 12


 618              		.file 37 "../../lib/e-puck2_main-processor/ChibiOS//os/hal/ports/STM32/LLD/I2Cv1/i2c_lld.h"
 619              		.file 38 "../../lib/e-puck2_main-processor/ChibiOS//os/hal/include/i2s.h"
 620              		.file 39 "../../lib/e-puck2_main-processor/ChibiOS//os/hal/ports/STM32/LLD/SPIv1/i2s_lld.h"
 621              		.file 40 "../../lib/e-puck2_main-processor/ChibiOS//os/hal/include/pwm.h"
 622              		.file 41 "../../lib/e-puck2_main-processor/ChibiOS//os/hal/ports/STM32/LLD/TIMv1/pwm_lld.h"
 623              		.file 42 "../../lib/e-puck2_main-processor/ChibiOS//os/hal/include/serial.h"
 624              		.file 43 "../../lib/e-puck2_main-processor/ChibiOS//os/hal/ports/STM32/LLD/USARTv1/serial_lld.h"
 625              		.file 44 "../../lib/e-puck2_main-processor/ChibiOS//os/hal/include/sdc.h"
 626              		.file 45 "../../lib/e-puck2_main-processor/ChibiOS//os/hal/ports/STM32/LLD/sdc_lld.h"
 627              		.file 46 "../../lib/e-puck2_main-processor/ChibiOS//os/hal/include/spi.h"
 628              		.file 47 "../../lib/e-puck2_main-processor/ChibiOS//os/hal/ports/STM32/LLD/SPIv1/spi_lld.h"
 629              		.file 48 "../../lib/e-puck2_main-processor/ChibiOS//os/hal/include/usb.h"
 630              		.file 49 "../../lib/e-puck2_main-processor/ChibiOS//os/hal/ports/STM32/LLD/OTGv1/usb_lld.h"
 631              		.file 50 "../../lib/e-puck2_main-processor/ChibiOS//os/hal/ports/STM32/LLD/OTGv1/stm32_otg.h"
 632              		.file 51 "../../lib/e-puck2_main-processor/ChibiOS//os/hal/include/serial_usb.h"
 633              		.file 52 "../../lib/e-puck2_main-processor/src/sensors/VL53L0X/Api/core/inc/vl53l0x_types.h"
 634              		.file 53 "../../lib/e-puck2_main-processor/src/sensors/VL53L0X/Api/core/inc/vl53l0x_device.h"
 635              		.file 54 "../../lib/e-puck2_main-processor/src/sensors/VL53L0X/Api/core/inc/vl53l0x_def.h"
 636              		.file 55 "/home/taras/Documents/EPFL/Robotique/TP/eclipse/Eclipse_e-puck2/Tools/gcc-arm-none-eabi-
 637              		.file 56 "/home/taras/Documents/EPFL/Robotique/TP/eclipse/Eclipse_e-puck2/Tools/gcc-arm-none-eabi-
 638              		.file 57 "/home/taras/Documents/EPFL/Robotique/TP/eclipse/Eclipse_e-puck2/Tools/gcc-arm-none-eabi-
 639              		.file 58 "../../lib/e-puck2_main-processor/src/sensors/VL53L0X/Api/core/inc/../../platform/inc/vl5
 640              		.file 59 "../../lib/e-puck2_main-processor/ChibiOS//os/various/shell.h"
 641              		.file 60 "../../lib/e-puck2_main-processor/src/usbcfg.h"
 642              		.file 61 "motors_controller.h"
 643              		.file 62 "../../lib/e-puck2_main-processor/src/i2c_bus.h"
 644              		.file 63 "../../lib/e-puck2_main-processor/src/sensors/VL53L0X/VL53L0X.h"
 645              		.file 64 "../../lib/e-puck2_main-processor/src/motors.h"