ARM GAS  /tmp/cce6IYxz.s 			page 1


   1              		.cpu cortex-m4
   2              		.eabi_attribute 27, 1
   3              		.eabi_attribute 28, 1
   4              		.eabi_attribute 20, 1
   5              		.eabi_attribute 21, 1
   6              		.eabi_attribute 23, 3
   7              		.eabi_attribute 24, 1
   8              		.eabi_attribute 25, 1
   9              		.eabi_attribute 26, 1
  10              		.eabi_attribute 30, 2
  11              		.eabi_attribute 34, 1
  12              		.eabi_attribute 18, 4
  13              		.file	"process_image.c"
  14              		.text
  15              	.Ltext0:
  16              		.cfi_sections	.debug_frame
  17              		.section	.text.ProcessImage,"ax",%progbits
  18              		.align	1
  19              		.p2align 4,,15
  20              		.syntax unified
  21              		.thumb
  22              		.thumb_func
  23              		.fpu fpv4-sp-d16
  24              		.type	ProcessImage, %function
  25              	ProcessImage:
  26              	.LFB258:
  27              		.file 1 "process_image.c"
  28              		.loc 1 53 0
  29              		.cfi_startproc
  30              		@ args = 0, pretend = 0, frame = 8
  31              		@ frame_needed = 0, uses_anonymous_args = 0
  32              	.LVL0:
  33 0000 70B5     		push	{r4, r5, r6, lr}
  34              		.cfi_def_cfa_offset 16
  35              		.cfi_offset 4, -16
  36              		.cfi_offset 5, -12
  37              		.cfi_offset 6, -8
  38              		.cfi_offset 14, -4
  39              	.LBB40:
  40              	.LBB41:
  41              		.file 2 "../../lib/e-puck2_main-processor/ChibiOS//os/rt/include/chregistry.h"
  42              		.loc 2 135 0
  43 0002 144A     		ldr	r2, .L8
  44              	.LBE41:
  45              	.LBE40:
  46              		.loc 1 53 0
  47 0004 144B     		ldr	r3, .L8+4
  48              	.LBB44:
  49              	.LBB42:
  50              		.loc 2 135 0
  51 0006 9269     		ldr	r2, [r2, #24]
  52 0008 1449     		ldr	r1, .L8+8
  53              	.LBE42:
  54              	.LBE44:
  55              		.loc 1 53 0
  56 000a 1B68     		ldr	r3, [r3]
  57              	.LBB45:
ARM GAS  /tmp/cce6IYxz.s 			page 2


  58              	.LBB43:
  59              		.loc 2 135 0
  60 000c 9161     		str	r1, [r2, #24]
  61              	.LBE43:
  62              	.LBE45:
  63              		.loc 1 53 0
  64 000e 82B0     		sub	sp, sp, #8
  65              		.cfi_def_cfa_offset 24
  66              		.loc 1 70 0
  67 0010 0020     		movs	r0, #0
  68              	.LVL1:
  69              		.loc 1 53 0
  70 0012 0193     		str	r3, [sp, #4]
  71              	.LVL2:
  72              		.loc 1 70 0
  73 0014 FFF7FEFF 		bl	left_motor_set_pos
  74              	.LVL3:
  75              		.loc 1 71 0
  76 0018 0020     		movs	r0, #0
  77 001a FFF7FEFF 		bl	right_motor_set_pos
  78              	.LVL4:
  79 001e 104E     		ldr	r6, .L8+12
  80              	.LBB46:
  81              	.LBB47:
  82              		.loc 1 84 0
  83 0020 0024     		movs	r4, #0
  84              	.LVL5:
  85              	.L3:
  86              	.LBE47:
  87              	.LBE46:
  88              		.loc 1 77 0
  89 0022 FFF7FEFF 		bl	dcmi_get_last_image_ptr
  90              	.LVL6:
  91 0026 0F4B     		ldr	r3, .L8+16
  92              	.LVL7:
  93              	.L2:
  94              	.LBB49:
  95              	.LBB48:
  96              		.loc 1 84 0
  97 0028 1C80     		strh	r4, [r3]	@ movhi
  98              		.loc 1 85 0
  99 002a 5C80     		strh	r4, [r3, #2]	@ movhi
 100              		.loc 1 86 0
 101 002c 9C80     		strh	r4, [r3, #4]	@ movhi
 102              	.LVL8:
 103              		.loc 1 89 0
 104 002e 0578     		ldrb	r5, [r0]	@ zero_extendqisi2
 105 0030 EA08     		lsrs	r2, r5, #3
 106 0032 1A80     		strh	r2, [r3]	@ movhi
 107              		.loc 1 90 0
 108 0034 4178     		ldrb	r1, [r0, #1]	@ zero_extendqisi2
 109 0036 4A09     		lsrs	r2, r1, #5
 110 0038 02EBC502 		add	r2, r2, r5, lsl #3
 111 003c 02F03F02 		and	r2, r2, #63
 112              		.loc 1 91 0
 113 0040 01F01F01 		and	r1, r1, #31
 114              		.loc 1 90 0
ARM GAS  /tmp/cce6IYxz.s 			page 3


 115 0044 5A80     		strh	r2, [r3, #2]	@ movhi
 116              		.loc 1 91 0
 117 0046 9980     		strh	r1, [r3, #4]	@ movhi
 118 0048 0633     		adds	r3, r3, #6
 119              	.LBE48:
 120              		.loc 1 83 0
 121 004a 9E42     		cmp	r6, r3
 122 004c 00F10200 		add	r0, r0, #2
 123 0050 EAD1     		bne	.L2
 124 0052 E6E7     		b	.L3
 125              	.L9:
 126              		.align	2
 127              	.L8:
 128 0054 00000000 		.word	ch
 129 0058 00000000 		.word	__stack_chk_guard
 130 005c 00000000 		.word	.LANCHOR0
 131 0060 000F0000 		.word	.LANCHOR1+3840
 132 0064 00000000 		.word	.LANCHOR1
 133              	.LBE49:
 134              		.cfi_endproc
 135              	.LFE258:
 136              		.size	ProcessImage, .-ProcessImage
 137              		.section	.text.CaptureImage,"ax",%progbits
 138              		.align	1
 139              		.p2align 4,,15
 140              		.syntax unified
 141              		.thumb
 142              		.thumb_func
 143              		.fpu fpv4-sp-d16
 144              		.type	CaptureImage, %function
 145              	CaptureImage:
 146              	.LFB257:
 147              		.loc 1 19 0
 148              		.cfi_startproc
 149              		@ Volatile: function does not return.
 150              		@ args = 0, pretend = 0, frame = 8
 151              		@ frame_needed = 0, uses_anonymous_args = 0
 152              	.LVL9:
 153 0000 80B5     		push	{r7, lr}
 154              		.cfi_def_cfa_offset 8
 155              		.cfi_offset 7, -8
 156              		.cfi_offset 14, -4
 157              	.LBB66:
 158              	.LBB67:
 159              		.loc 2 135 0
 160 0002 274C     		ldr	r4, .L16
 161              	.LBE67:
 162              	.LBE66:
 163              		.loc 1 19 0
 164 0004 274A     		ldr	r2, .L16+4
 165              	.LBB69:
 166              	.LBB68:
 167              		.loc 2 135 0
 168 0006 A369     		ldr	r3, [r4, #24]
 169 0008 2749     		ldr	r1, .L16+8
 170 000a 9961     		str	r1, [r3, #24]
 171              	.LBE68:
ARM GAS  /tmp/cce6IYxz.s 			page 4


 172              	.LBE69:
 173              		.loc 1 19 0
 174 000c 86B0     		sub	sp, sp, #24
 175              		.cfi_def_cfa_offset 32
 176              		.loc 1 27 0
 177 000e 0523     		movs	r3, #5
 178 0010 2025     		movs	r5, #32
 179 0012 0021     		movs	r1, #0
 180              		.loc 1 19 0
 181 0014 1668     		ldr	r6, [r2]
 182              		.loc 1 27 0
 183 0016 0093     		str	r3, [sp]
 184 0018 EE22     		movs	r2, #238
 185 001a 4FF42073 		mov	r3, #640
 186 001e CDE90155 		strd	r5, r5, [sp, #4]
 187 0022 3020     		movs	r0, #48
 188              	.LVL10:
 189              		.loc 1 19 0
 190 0024 0596     		str	r6, [sp, #20]
 191              		.loc 1 27 0
 192 0026 FFF7FEFF 		bl	po8030_advanced_config
 193              	.LVL11:
 194              		.loc 1 29 0
 195 002a 0F20     		movs	r0, #15
 196 002c FFF7FEFF 		bl	po8030_set_contrast
 197              	.LVL12:
 198              		.loc 1 30 0
 199 0030 0020     		movs	r0, #0
 200 0032 FFF7FEFF 		bl	po8030_set_ae
 201              	.LVL13:
 202 0036 1D4E     		ldr	r6, .L16+12
 203              	.LBB70:
 204              	.LBB71:
 205              	.LBB72:
 206              	.LBB73:
 207              		.file 3 "../../lib/e-puck2_main-processor/ChibiOS//os/rt/include/chsys.h"
 208              		.loc 3 367 0
 209 0038 1D4F     		ldr	r7, .L16+16
 210              	.LBE73:
 211              	.LBE72:
 212              	.LBE71:
 213              	.LBE70:
 214              		.loc 1 31 0
 215 003a 0120     		movs	r0, #1
 216 003c FFF7FEFF 		bl	po8030_set_awb
 217              	.LVL14:
 218              		.loc 1 32 0
 219 0040 FFF7FEFF 		bl	dcmi_enable_double_buffering
 220              	.LVL15:
 221              		.loc 1 33 0
 222 0044 0020     		movs	r0, #0
 223 0046 FFF7FEFF 		bl	dcmi_set_capture_mode
 224              	.LVL16:
 225              	.LBB91:
 226              	.LBB88:
 227              	.LBB78:
 228              	.LBB79:
ARM GAS  /tmp/cce6IYxz.s 			page 5


 229              		.file 4 "../../lib/e-puck2_main-processor/ChibiOS//os/rt/include/chbsem.h"
 230              		.loc 4 271 0
 231 004a B046     		mov	r8, r6
 232              	.LBE79:
 233              	.LBE78:
 234              	.LBE88:
 235              	.LBE91:
 236              		.loc 1 34 0
 237 004c FFF7FEFF 		bl	dcmi_prepare
 238              	.LVL17:
 239 0050 13E0     		b	.L13
 240              	.LVL18:
 241              	.L11:
 242              	.LBB92:
 243              	.LBB89:
 244              		.loc 4 286 0
 245 0052 FFF7FEFF 		bl	chSchRescheduleS
 246              	.LVL19:
 247              	.LBB81:
 248              	.LBB77:
 249              		.loc 3 360 0
 250 0056 FFF7FEFF 		bl	_dbg_check_unlock
 251              	.LVL20:
 252              		.loc 3 361 0
 253 005a FFF7FEFF 		bl	_stats_stop_measure_crit_thd
 254              	.LVL21:
 255              		.loc 3 367 0
 256 005e 2368     		ldr	r3, [r4]
 257 0060 A342     		cmp	r3, r4
 258 0062 07D0     		beq	.L12
 259 0064 A269     		ldr	r2, [r4, #24]
 260 0066 9B68     		ldr	r3, [r3, #8]
 261 0068 9268     		ldr	r2, [r2, #8]
 262 006a 9A42     		cmp	r2, r3
 263 006c 02D2     		bcs	.L12
 264 006e 3846     		mov	r0, r7
 265 0070 FFF7FEFF 		bl	chSysHalt
 266              	.LVL22:
 267              	.L12:
 268              	.LBB74:
 269              	.LBB75:
 270              	.LBB76:
 271              		.file 5 "../../lib/e-puck2_main-processor/ChibiOS//os/ext/CMSIS/include/core_cmFunc.h"
 272              		.loc 5 546 0
 273 0074 0023     		movs	r3, #0
 274              		.syntax unified
 275              	@ 546 "../../lib/e-puck2_main-processor/ChibiOS//os/ext/CMSIS/include/core_cmFunc.h" 1
 276 0076 83F31188 		MSR basepri, r3
 277              	@ 0 "" 2
 278              	.LVL23:
 279              		.thumb
 280              		.syntax unified
 281              	.L13:
 282              	.LBE76:
 283              	.LBE75:
 284              	.LBE74:
 285              	.LBE77:
ARM GAS  /tmp/cce6IYxz.s 			page 6


 286              	.LBE81:
 287              	.LBE89:
 288              	.LBE92:
 289              		.loc 1 43 0 discriminator 1
 290 007a FFF7FEFF 		bl	dcmi_capture_start
 291              	.LVL24:
 292              		.loc 1 45 0 discriminator 1
 293 007e FFF7FEFF 		bl	wait_image_ready
 294              	.LVL25:
 295              	.LBB93:
 296              	.LBB90:
 297              	.LBB82:
 298              	.LBB83:
 299              	.LBB84:
 300              	.LBB85:
 301              	.LBB86:
 302              		.loc 5 546 0 discriminator 1
 303              		.syntax unified
 304              	@ 546 "../../lib/e-puck2_main-processor/ChibiOS//os/ext/CMSIS/include/core_cmFunc.h" 1
 305 0082 85F31188 		MSR basepri, r5
 306              	@ 0 "" 2
 307              	.LVL26:
 308              		.thumb
 309              		.syntax unified
 310              	.LBE86:
 311              	.LBE85:
 312              	.LBE84:
 313              		.loc 3 349 0 discriminator 1
 314 0086 FFF7FEFF 		bl	_stats_start_measure_crit_thd
 315              	.LVL27:
 316              		.loc 3 350 0 discriminator 1
 317 008a FFF7FEFF 		bl	_dbg_check_lock
 318              	.LVL28:
 319              	.LBE83:
 320              	.LBE82:
 321              	.LBB87:
 322              	.LBB80:
 323              		.loc 4 268 0 discriminator 1
 324 008e FFF7FEFF 		bl	chDbgCheckClassI
 325              	.LVL29:
 326              		.loc 4 270 0 discriminator 1
 327 0092 B368     		ldr	r3, [r6, #8]
 328 0094 002B     		cmp	r3, #0
 329 0096 DCDC     		bgt	.L11
 330              		.loc 4 271 0
 331 0098 4046     		mov	r0, r8
 332 009a FFF7FEFF 		bl	chSemSignalI
 333              	.LVL30:
 334 009e D8E7     		b	.L11
 335              	.L17:
 336              		.align	2
 337              	.L16:
 338 00a0 00000000 		.word	ch
 339 00a4 00000000 		.word	__stack_chk_guard
 340 00a8 00000000 		.word	.LANCHOR2
 341 00ac 00000000 		.word	.LANCHOR3
 342 00b0 00000000 		.word	.LANCHOR4
ARM GAS  /tmp/cce6IYxz.s 			page 7


 343              	.LBE80:
 344              	.LBE87:
 345              	.LBE90:
 346              	.LBE93:
 347              		.cfi_endproc
 348              	.LFE257:
 349              		.size	CaptureImage, .-CaptureImage
 350              		.section	.text.is_green,"ax",%progbits
 351              		.align	1
 352              		.p2align 4,,15
 353              		.global	is_green
 354              		.syntax unified
 355              		.thumb
 356              		.thumb_func
 357              		.fpu fpv4-sp-d16
 358              		.type	is_green, %function
 359              	is_green:
 360              	.LFB259:
 361              		.loc 1 148 0
 362              		.cfi_startproc
 363              		@ args = 0, pretend = 0, frame = 8
 364              		@ frame_needed = 0, uses_anonymous_args = 0
 365              	.LVL31:
 366 0000 10B5     		push	{r4, lr}
 367              		.cfi_def_cfa_offset 8
 368              		.cfi_offset 4, -8
 369              		.cfi_offset 14, -4
 370              		.loc 1 149 0
 371 0002 0278     		ldrb	r2, [r0]	@ zero_extendqisi2
 372              		.loc 1 148 0
 373 0004 0D49     		ldr	r1, .L26
 374              		.loc 1 149 0
 375 0006 4378     		ldrb	r3, [r0, #1]	@ zero_extendqisi2
 376              		.loc 1 148 0
 377 0008 0C68     		ldr	r4, [r1]
 378 000a 82B0     		sub	sp, sp, #8
 379              		.cfi_def_cfa_offset 16
 380              		.loc 1 149 0
 381 000c 0132     		adds	r2, r2, #1
 382 000e B3EB420F 		cmp	r3, r2, lsl #1
 383              		.loc 1 148 0
 384 0012 0194     		str	r4, [sp, #4]
 385              		.loc 1 149 0
 386 0014 03DD     		ble	.L22
 387              		.loc 1 149 0 is_stmt 0 discriminator 1
 388 0016 8278     		ldrb	r2, [r0, #2]	@ zero_extendqisi2
 389 0018 B3EB420F 		cmp	r3, r2, lsl #1
 390 001c 06DA     		bge	.L24
 391              	.L22:
 392              		.loc 1 152 0 is_stmt 1
 393 001e 0020     		movs	r0, #0
 394              	.LVL32:
 395              	.L19:
 396              		.loc 1 154 0
 397 0020 019A     		ldr	r2, [sp, #4]
 398 0022 0B68     		ldr	r3, [r1]
 399 0024 9A42     		cmp	r2, r3
ARM GAS  /tmp/cce6IYxz.s 			page 8


 400 0026 06D1     		bne	.L25
 401 0028 02B0     		add	sp, sp, #8
 402              		.cfi_remember_state
 403              		.cfi_def_cfa_offset 8
 404              		@ sp needed
 405 002a 10BD     		pop	{r4, pc}
 406              	.LVL33:
 407              	.L24:
 408              		.cfi_restore_state
 409              		.loc 1 149 0 discriminator 2
 410 002c 0A2B     		cmp	r3, #10
 411 002e 94BF     		ite	ls
 412 0030 0020     		movls	r0, #0
 413              	.LVL34:
 414 0032 0120     		movhi	r0, #1
 415 0034 F4E7     		b	.L19
 416              	.L25:
 417              		.loc 1 154 0
 418 0036 FFF7FEFF 		bl	__stack_chk_fail
 419              	.LVL35:
 420              	.L27:
 421 003a 00BF     		.align	2
 422              	.L26:
 423 003c 00000000 		.word	__stack_chk_guard
 424              		.cfi_endproc
 425              	.LFE259:
 426              		.size	is_green, .-is_green
 427              		.section	.text.is_orange,"ax",%progbits
 428              		.align	1
 429              		.p2align 4,,15
 430              		.global	is_orange
 431              		.syntax unified
 432              		.thumb
 433              		.thumb_func
 434              		.fpu fpv4-sp-d16
 435              		.type	is_orange, %function
 436              	is_orange:
 437              	.LFB260:
 438              		.loc 1 156 0
 439              		.cfi_startproc
 440              		@ args = 0, pretend = 0, frame = 8
 441              		@ frame_needed = 0, uses_anonymous_args = 0
 442              	.LVL36:
 443 0000 30B5     		push	{r4, r5, lr}
 444              		.cfi_def_cfa_offset 12
 445              		.cfi_offset 4, -12
 446              		.cfi_offset 5, -8
 447              		.cfi_offset 14, -4
 448 0002 0E49     		ldr	r1, .L34
 449              		.loc 1 158 0
 450 0004 0388     		ldrh	r3, [r0]
 451              		.loc 1 156 0
 452 0006 0A68     		ldr	r2, [r1]
 453 0008 83B0     		sub	sp, sp, #12
 454              		.cfi_def_cfa_offset 24
 455              		.loc 1 158 0
 456 000a 032B     		cmp	r3, #3
ARM GAS  /tmp/cce6IYxz.s 			page 9


 457              		.loc 1 156 0
 458 000c 0192     		str	r2, [sp, #4]
 459              		.loc 1 158 0
 460 000e 11D9     		bls	.L31
 461              		.loc 1 158 0 is_stmt 0 discriminator 1
 462 0010 0B4D     		ldr	r5, .L34+4
 463 0012 4288     		ldrh	r2, [r0, #2]
 464 0014 8488     		ldrh	r4, [r0, #4]
 465 0016 A5FB0330 		umull	r3, r0, r5, r3
 466              	.LVL37:
 467 001a 8008     		lsrs	r0, r0, #2
 468 001c 0130     		adds	r0, r0, #1
 469 001e 1319     		adds	r3, r2, r4
 470 0020 8342     		cmp	r3, r0
 471 0022 CCBF     		ite	gt
 472 0024 0020     		movgt	r0, #0
 473 0026 0120     		movle	r0, #1
 474              	.L29:
 475              		.loc 1 163 0 is_stmt 1
 476 0028 019A     		ldr	r2, [sp, #4]
 477 002a 0B68     		ldr	r3, [r1]
 478 002c 9A42     		cmp	r2, r3
 479 002e 03D1     		bne	.L33
 480 0030 03B0     		add	sp, sp, #12
 481              		.cfi_remember_state
 482              		.cfi_def_cfa_offset 12
 483              		@ sp needed
 484 0032 30BD     		pop	{r4, r5, pc}
 485              	.LVL38:
 486              	.L31:
 487              		.cfi_restore_state
 488              		.loc 1 161 0
 489 0034 0020     		movs	r0, #0
 490              	.LVL39:
 491 0036 F7E7     		b	.L29
 492              	.L33:
 493              		.loc 1 163 0
 494 0038 FFF7FEFF 		bl	__stack_chk_fail
 495              	.LVL40:
 496              	.L35:
 497              		.align	2
 498              	.L34:
 499 003c 00000000 		.word	__stack_chk_guard
 500 0040 ABAAAAAA 		.word	-1431655765
 501              		.cfi_endproc
 502              	.LFE260:
 503              		.size	is_orange, .-is_orange
 504              		.section	.text.process_image_start,"ax",%progbits
 505              		.align	1
 506              		.p2align 4,,15
 507              		.global	process_image_start
 508              		.syntax unified
 509              		.thumb
 510              		.thumb_func
 511              		.fpu fpv4-sp-d16
 512              		.type	process_image_start, %function
 513              	process_image_start:
ARM GAS  /tmp/cce6IYxz.s 			page 10


 514              	.LFB261:
 515              		.loc 1 165 0
 516              		.cfi_startproc
 517              		@ args = 0, pretend = 0, frame = 8
 518              		@ frame_needed = 0, uses_anonymous_args = 0
 519 0000 30B5     		push	{r4, r5, lr}
 520              		.cfi_def_cfa_offset 12
 521              		.cfi_offset 4, -12
 522              		.cfi_offset 5, -8
 523              		.cfi_offset 14, -4
 524 0002 0E4C     		ldr	r4, .L40
 525              		.loc 1 166 0
 526 0004 0E4B     		ldr	r3, .L40+4
 527              		.loc 1 165 0
 528 0006 2268     		ldr	r2, [r4]
 529              		.loc 1 166 0
 530 0008 0E48     		ldr	r0, .L40+8
 531              		.loc 1 165 0
 532 000a 85B0     		sub	sp, sp, #20
 533              		.cfi_def_cfa_offset 32
 534              		.loc 1 166 0
 535 000c 0025     		movs	r5, #0
 536              		.loc 1 165 0
 537 000e 0392     		str	r2, [sp, #12]
 538              		.loc 1 166 0
 539 0010 42F27811 		movw	r1, #8568
 540 0014 4022     		movs	r2, #64
 541 0016 0095     		str	r5, [sp]
 542 0018 FFF7FEFF 		bl	chThdCreateStatic
 543              	.LVL41:
 544              		.loc 1 167 0
 545 001c 0A4B     		ldr	r3, .L40+12
 546 001e 0095     		str	r5, [sp]
 547 0020 4022     		movs	r2, #64
 548 0022 0A48     		ldr	r0, .L40+16
 549 0024 41F27811 		movw	r1, #4472
 550 0028 FFF7FEFF 		bl	chThdCreateStatic
 551              	.LVL42:
 552              		.loc 1 168 0
 553 002c 039A     		ldr	r2, [sp, #12]
 554 002e 2368     		ldr	r3, [r4]
 555 0030 9A42     		cmp	r2, r3
 556 0032 01D1     		bne	.L39
 557 0034 05B0     		add	sp, sp, #20
 558              		.cfi_remember_state
 559              		.cfi_def_cfa_offset 12
 560              		@ sp needed
 561 0036 30BD     		pop	{r4, r5, pc}
 562              	.L39:
 563              		.cfi_restore_state
 564 0038 FFF7FEFF 		bl	__stack_chk_fail
 565              	.LVL43:
 566              	.L41:
 567              		.align	2
 568              	.L40:
 569 003c 00000000 		.word	__stack_chk_guard
 570 0040 00000000 		.word	ProcessImage
ARM GAS  /tmp/cce6IYxz.s 			page 11


 571 0044 00000000 		.word	waProcessImage
 572 0048 00000000 		.word	CaptureImage
 573 004c 00000000 		.word	waCaptureImage
 574              		.cfi_endproc
 575              	.LFE261:
 576              		.size	process_image_start, .-process_image_start
 577              		.section	.bss.main_lines.11898,"aw",%nobits
 578              		.align	2
 579              		.set	.LANCHOR1,. + 0
 580              		.type	main_lines.11898, %object
 581              		.size	main_lines.11898, 3840
 582              	main_lines.11898:
 583 0000 00000000 		.space	3840
 583      00000000 
 583      00000000 
 583      00000000 
 583      00000000 
 584              		.section	.bss.waCaptureImage,"aw",%nobits
 585              		.align	3
 586              		.type	waCaptureImage, %object
 587              		.size	waCaptureImage, 4472
 588              	waCaptureImage:
 589 0000 00000000 		.space	4472
 589      00000000 
 589      00000000 
 589      00000000 
 589      00000000 
 590              		.section	.bss.waProcessImage,"aw",%nobits
 591              		.align	3
 592              		.type	waProcessImage, %object
 593              		.size	waProcessImage, 8568
 594              	waProcessImage:
 595 0000 00000000 		.space	8568
 595      00000000 
 595      00000000 
 595      00000000 
 595      00000000 
 596              		.section	.data.image_ready_sem,"aw",%progbits
 597              		.align	2
 598              		.set	.LANCHOR3,. + 0
 599              		.type	image_ready_sem, %object
 600              		.size	image_ready_sem, 12
 601              	image_ready_sem:
 602 0000 00000000 		.word	image_ready_sem
 603 0004 00000000 		.word	image_ready_sem
 604 0008 00000000 		.word	0
 605              		.section	.rodata.__FUNCTION__.11890,"a",%progbits
 606              		.align	2
 607              		.set	.LANCHOR2,. + 0
 608              		.type	__FUNCTION__.11890, %object
 609              		.size	__FUNCTION__.11890, 13
 610              	__FUNCTION__.11890:
 611 0000 43617074 		.ascii	"CaptureImage\000"
 611      75726549 
 611      6D616765 
 611      00
 612              		.section	.rodata.__FUNCTION__.11896,"a",%progbits
ARM GAS  /tmp/cce6IYxz.s 			page 12


 613              		.align	2
 614              		.set	.LANCHOR0,. + 0
 615              		.type	__FUNCTION__.11896, %object
 616              		.size	__FUNCTION__.11896, 13
 617              	__FUNCTION__.11896:
 618 0000 50726F63 		.ascii	"ProcessImage\000"
 618      65737349 
 618      6D616765 
 618      00
 619              		.section	.rodata.__func__.7153,"a",%progbits
 620              		.align	2
 621              		.set	.LANCHOR4,. + 0
 622              		.type	__func__.7153, %object
 623              		.size	__func__.7153, 12
 624              	__func__.7153:
 625 0000 63685379 		.ascii	"chSysUnlock\000"
 625      73556E6C 
 625      6F636B00 
 626              		.text
 627              	.Letext0:
 628              		.file 6 "/home/taras/Documents/EPFL/Robotique/TP/eclipse/Eclipse_e-puck2/Tools/gcc-arm-none-eabi-7
 629              		.file 7 "/home/taras/Documents/EPFL/Robotique/TP/eclipse/Eclipse_e-puck2/Tools/gcc-arm-none-eabi-7
 630              		.file 8 "/home/taras/Documents/EPFL/Robotique/TP/eclipse/Eclipse_e-puck2/Tools/gcc-arm-none-eabi-7
 631              		.file 9 "../../lib/e-puck2_main-processor/ChibiOS//os/rt/ports/ARMCMx/compilers/GCC/chtypes.h"
 632              		.file 10 "../../lib/e-puck2_main-processor/ChibiOS//os/rt/include/chsystypes.h"
 633              		.file 11 "../../lib/e-puck2_main-processor/ChibiOS//os/rt/include/chschd.h"
 634              		.file 12 "../../lib/e-puck2_main-processor/ChibiOS//os/ext/CMSIS/include/core_cm4.h"
 635              		.file 13 "../../lib/e-puck2_main-processor/ChibiOS//os/ext/CMSIS/ST/system_stm32f4xx.h"
 636              		.file 14 "../../lib/e-puck2_main-processor/ChibiOS//os/ext/CMSIS/ST/stm32f407xx.h"
 637              		.file 15 "../../lib/e-puck2_main-processor/ChibiOS//os/rt/ports/ARMCMx/chcore.h"
 638              		.file 16 "../../lib/e-puck2_main-processor/ChibiOS//os/rt/ports/ARMCMx/chcore_v7m.h"
 639              		.file 17 "../../lib/e-puck2_main-processor/ChibiOS//os/rt/include/chdebug.h"
 640              		.file 18 "../../lib/e-puck2_main-processor/ChibiOS//os/rt/include/chtm.h"
 641              		.file 19 "../../lib/e-puck2_main-processor/ChibiOS//os/rt/include/chstats.h"
 642              		.file 20 "../../lib/e-puck2_main-processor/ChibiOS//os/rt/include/chsem.h"
 643              		.file 21 "../../lib/e-puck2_main-processor/ChibiOS//os/rt/include/chmtx.h"
 644              		.file 22 "../../lib/e-puck2_main-processor/ChibiOS//os/rt/include/chevents.h"
 645              		.file 23 "../../lib/e-puck2_main-processor/ChibiOS//os/rt/include/chqueues.h"
 646              		.file 24 "../../lib/e-puck2_main-processor/ChibiOS//os/hal/ports/STM32/STM32F4xx/stm32_dma.h"
 647              		.file 25 "../../lib/e-puck2_main-processor/ChibiOS//os/hal/include/hal_ioblock.h"
 648              		.file 26 "../../lib/e-puck2_main-processor/ChibiOS//os/hal/ports/STM32/LLD/GPIOv2/pal_lld.h"
 649              		.file 27 "../../lib/e-puck2_main-processor/ChibiOS//os/hal/include/adc.h"
 650              		.file 28 "../../lib/e-puck2_main-processor/ChibiOS//os/hal/ports/STM32/STM32F4xx/adc_lld.h"
 651              		.file 29 "../../lib/e-puck2_main-processor/ChibiOS//os/hal/include/can.h"
 652              		.file 30 "../../lib/e-puck2_main-processor/ChibiOS//os/hal/ports/STM32/LLD/can_lld.h"
 653              		.file 31 "../../lib/e-puck2_main-processor/ChibiOS//os/hal/include/dac.h"
 654              		.file 32 "../../lib/e-puck2_main-processor/ChibiOS//os/hal/ports/STM32/LLD/DACv1/dac_lld.h"
 655              		.file 33 "../../lib/e-puck2_main-processor/ChibiOS//os/hal/include/ext.h"
 656              		.file 34 "../../lib/e-puck2_main-processor/ChibiOS//os/hal/ports/STM32/LLD/ext_lld.h"
 657              		.file 35 "../../lib/e-puck2_main-processor/ChibiOS//os/hal/include/gpt.h"
 658              		.file 36 "../../lib/e-puck2_main-processor/ChibiOS//os/hal/ports/STM32/LLD/TIMv1/gpt_lld.h"
 659              		.file 37 "../../lib/e-puck2_main-processor/ChibiOS//os/hal/ports/STM32/LLD/TIMv1/stm32_tim.h"
 660              		.file 38 "../../lib/e-puck2_main-processor/ChibiOS//os/hal/include/i2c.h"
 661              		.file 39 "../../lib/e-puck2_main-processor/ChibiOS//os/hal/ports/STM32/LLD/I2Cv1/i2c_lld.h"
 662              		.file 40 "../../lib/e-puck2_main-processor/ChibiOS//os/hal/include/i2s.h"
 663              		.file 41 "../../lib/e-puck2_main-processor/ChibiOS//os/hal/ports/STM32/LLD/SPIv1/i2s_lld.h"
 664              		.file 42 "../../lib/e-puck2_main-processor/ChibiOS//os/hal/include/pwm.h"
ARM GAS  /tmp/cce6IYxz.s 			page 13


 665              		.file 43 "../../lib/e-puck2_main-processor/ChibiOS//os/hal/ports/STM32/LLD/TIMv1/pwm_lld.h"
 666              		.file 44 "../../lib/e-puck2_main-processor/ChibiOS//os/hal/include/serial.h"
 667              		.file 45 "../../lib/e-puck2_main-processor/ChibiOS//os/hal/ports/STM32/LLD/USARTv1/serial_lld.h"
 668              		.file 46 "../../lib/e-puck2_main-processor/ChibiOS//os/hal/include/sdc.h"
 669              		.file 47 "../../lib/e-puck2_main-processor/ChibiOS//os/hal/ports/STM32/LLD/sdc_lld.h"
 670              		.file 48 "../../lib/e-puck2_main-processor/ChibiOS//os/hal/include/spi.h"
 671              		.file 49 "../../lib/e-puck2_main-processor/ChibiOS//os/hal/ports/STM32/LLD/SPIv1/spi_lld.h"
 672              		.file 50 "../../lib/e-puck2_main-processor/ChibiOS//os/hal/include/usb.h"
 673              		.file 51 "../../lib/e-puck2_main-processor/ChibiOS//os/hal/ports/STM32/LLD/OTGv1/usb_lld.h"
 674              		.file 52 "../../lib/e-puck2_main-processor/ChibiOS//os/hal/ports/STM32/LLD/OTGv1/stm32_otg.h"
 675              		.file 53 "../../lib/e-puck2_main-processor/ChibiOS//os/hal/include/serial_usb.h"
 676              		.file 54 "../../lib/e-puck2_main-processor/src/usbcfg.h"
 677              		.file 55 "../../lib/e-puck2_main-processor/ChibiOS_ext/os/hal/include/../ports/STM32/STM32F4xx/dcm
 678              		.file 56 "../../lib/e-puck2_main-processor/src/camera/po8030.h"
 679              		.file 57 "../../lib/e-puck2_main-processor/src/camera/dcmi_camera.h"
 680              		.file 58 "/home/taras/Documents/EPFL/Robotique/TP/eclipse/Eclipse_e-puck2/Tools/gcc-arm-none-eabi-
 681              		.file 59 "/home/taras/Documents/EPFL/Robotique/TP/eclipse/Eclipse_e-puck2/Tools/gcc-arm-none-eabi-
 682              		.file 60 "/home/taras/Documents/EPFL/Robotique/TP/eclipse/Eclipse_e-puck2/Tools/gcc-arm-none-eabi-
 683              		.file 61 "../../lib/e-puck2_main-processor/src/msgbus/messagebus.h"
 684              		.file 62 "/home/taras/Documents/EPFL/Robotique/TP/eclipse/Eclipse_e-puck2/Tools/gcc-arm-none-eabi-
 685              		.file 63 "/home/taras/Documents/EPFL/Robotique/TP/eclipse/Eclipse_e-puck2/Tools/gcc-arm-none-eabi-
 686              		.file 64 "../../lib/e-puck2_main-processor/src/parameter/parameter.h"
 687              		.file 65 "./main.h"
 688              		.file 66 "/home/taras/Documents/EPFL/Robotique/TP/eclipse/Eclipse_e-puck2/Tools/gcc-arm-none-eabi-
 689              		.file 67 "../../lib/e-puck2_main-processor/ChibiOS//os/rt/include/chthreads.h"
 690              		.file 68 "../../lib/e-puck2_main-processor/src/motors.h"