ARM GAS  /tmp/ccaYOSny.s 			page 1


   1              		.cpu cortex-m4
   2              		.eabi_attribute 27, 1
   3              		.eabi_attribute 28, 1
   4              		.eabi_attribute 20, 1
   5              		.eabi_attribute 21, 1
   6              		.eabi_attribute 23, 3
   7              		.eabi_attribute 24, 1
   8              		.eabi_attribute 25, 1
   9              		.eabi_attribute 26, 1
  10              		.eabi_attribute 30, 2
  11              		.eabi_attribute 34, 1
  12              		.eabi_attribute 18, 4
  13              		.file	"spi_comm.c"
  14              		.text
  15              	.Ltext0:
  16              		.cfi_sections	.debug_frame
  17              		.section	.text.spi_thread,"ax",%progbits
  18              		.align	1
  19              		.p2align 4,,15
  20              		.syntax unified
  21              		.thumb
  22              		.thumb_func
  23              		.fpu fpv4-sp-d16
  24              		.type	spi_thread, %function
  25              	spi_thread:
  26              	.LFB257:
  27              		.file 1 "../../lib/e-puck2_main-processor/src/spi_comm.c"
  28              		.loc 1 27 0
  29              		.cfi_startproc
  30              		@ Volatile: function does not return.
  31              		@ args = 0, pretend = 0, frame = 8
  32              		@ frame_needed = 0, uses_anonymous_args = 0
  33              	.LVL0:
  34 0000 80B5     		push	{r7, lr}
  35              		.cfi_def_cfa_offset 8
  36              		.cfi_offset 7, -8
  37              		.cfi_offset 14, -4
  38              	.LBB4:
  39              	.LBB5:
  40              		.file 2 "../../lib/e-puck2_main-processor/ChibiOS//os/rt/include/chregistry.h"
  41              		.loc 2 135 0
  42 0002 164A     		ldr	r2, .L9
  43              	.LBE5:
  44              	.LBE4:
  45              		.loc 1 27 0
  46 0004 164B     		ldr	r3, .L9+4
  47              	.LBB8:
  48              	.LBB6:
  49              		.loc 2 135 0
  50 0006 9269     		ldr	r2, [r2, #24]
  51 0008 164E     		ldr	r6, .L9+8
  52 000a 1749     		ldr	r1, .L9+12
  53              	.LBE6:
  54              	.LBE8:
  55              		.loc 1 27 0
  56 000c 1B68     		ldr	r3, [r3]
  57 000e DFF86480 		ldr	r8, .L9+24
ARM GAS  /tmp/ccaYOSny.s 			page 2


  58              		.loc 1 78 0
  59 0012 164D     		ldr	r5, .L9+16
  60              		.loc 1 85 0
  61 0014 164C     		ldr	r4, .L9+20
  62              	.LBB9:
  63              	.LBB7:
  64              		.loc 2 135 0
  65 0016 9161     		str	r1, [r2, #24]
  66              	.LBE7:
  67              	.LBE9:
  68              		.loc 1 27 0
  69 0018 82B0     		sub	sp, sp, #8
  70              		.cfi_def_cfa_offset 16
  71              		.loc 1 89 0
  72 001a 3746     		mov	r7, r6
  73              		.loc 1 27 0
  74 001c 0193     		str	r3, [sp, #4]
  75              	.LVL1:
  76              	.L2:
  77              		.loc 1 78 0
  78 001e 2846     		mov	r0, r5
  79 0020 FFF7FEFF 		bl	get_all_rgb_state
  80              	.LVL2:
  81              		.loc 1 85 0
  82 0024 2046     		mov	r0, r4
  83 0026 FFF7FEFF 		bl	spiSelect
  84              	.LVL3:
  85              		.loc 1 89 0
  86 002a 3B46     		mov	r3, r7
  87 002c 2A46     		mov	r2, r5
  88 002e 0C21     		movs	r1, #12
  89 0030 2046     		mov	r0, r4
  90 0032 FFF7FEFF 		bl	spiExchange
  91              	.LVL4:
  92              		.loc 1 93 0
  93 0036 2046     		mov	r0, r4
  94 0038 FFF7FEFF 		bl	spiUnselect
  95              	.LVL5:
  96              		.loc 1 101 0
  97 003c 3078     		ldrb	r0, [r6]	@ zero_extendqisi2
  98 003e FFF7FEFF 		bl	button_set_state
  99              	.LVL6:
 100              		.loc 1 106 0
 101 0042 98F80030 		ldrb	r3, [r8]	@ zero_extendqisi2
 102 0046 033B     		subs	r3, r3, #3
 103 0048 012B     		cmp	r3, #1
 104              		.loc 1 112 0
 105 004a 4FF01400 		mov	r0, #20
 106              		.loc 1 106 0
 107 004e 02D9     		bls	.L8
 108              		.loc 1 112 0
 109 0050 FFF7FEFF 		bl	chThdSleep
 110              	.LVL7:
 111 0054 E3E7     		b	.L2
 112              	.L8:
 113              		.loc 1 108 0
 114 0056 FFF7FEFF 		bl	wait_image_ready
ARM GAS  /tmp/ccaYOSny.s 			page 3


 115              	.LVL8:
 116 005a E0E7     		b	.L2
 117              	.L10:
 118              		.align	2
 119              	.L9:
 120 005c 00000000 		.word	ch
 121 0060 00000000 		.word	__stack_chk_guard
 122 0064 00000000 		.word	.LANCHOR1
 123 0068 00000000 		.word	.LC0
 124 006c 00000000 		.word	.LANCHOR0
 125 0070 00000000 		.word	SPID1
 126 0074 00000000 		.word	DCMID
 127              		.cfi_endproc
 128              	.LFE257:
 129              		.size	spi_thread, .-spi_thread
 130              		.section	.text.get_rx_buff,"ax",%progbits
 131              		.align	1
 132              		.p2align 4,,15
 133              		.global	get_rx_buff
 134              		.syntax unified
 135              		.thumb
 136              		.thumb_func
 137              		.fpu fpv4-sp-d16
 138              		.type	get_rx_buff, %function
 139              	get_rx_buff:
 140              	.LFB256:
 141              		.loc 1 19 0
 142              		.cfi_startproc
 143              		@ args = 0, pretend = 0, frame = 8
 144              		@ frame_needed = 0, uses_anonymous_args = 0
 145 0000 00B5     		push	{lr}
 146              		.cfi_def_cfa_offset 4
 147              		.cfi_offset 14, -4
 148 0002 074B     		ldr	r3, .L15
 149 0004 83B0     		sub	sp, sp, #12
 150              		.cfi_def_cfa_offset 16
 151              		.loc 1 19 0
 152 0006 1A68     		ldr	r2, [r3]
 153 0008 0192     		str	r2, [sp, #4]
 154              		.loc 1 21 0
 155 000a 019A     		ldr	r2, [sp, #4]
 156 000c 1B68     		ldr	r3, [r3]
 157 000e 9A42     		cmp	r2, r3
 158 0010 03D1     		bne	.L14
 159 0012 0448     		ldr	r0, .L15+4
 160 0014 03B0     		add	sp, sp, #12
 161              		.cfi_remember_state
 162              		.cfi_def_cfa_offset 4
 163              		@ sp needed
 164 0016 5DF804FB 		ldr	pc, [sp], #4
 165              	.L14:
 166              		.cfi_restore_state
 167 001a FFF7FEFF 		bl	__stack_chk_fail
 168              	.LVL9:
 169              	.L16:
 170 001e 00BF     		.align	2
 171              	.L15:
ARM GAS  /tmp/ccaYOSny.s 			page 4


 172 0020 00000000 		.word	__stack_chk_guard
 173 0024 00000000 		.word	.LANCHOR0
 174              		.cfi_endproc
 175              	.LFE256:
 176              		.size	get_rx_buff, .-get_rx_buff
 177              		.section	.text.spi_comm_start,"ax",%progbits
 178              		.align	1
 179              		.p2align 4,,15
 180              		.global	spi_comm_start
 181              		.syntax unified
 182              		.thumb
 183              		.thumb_func
 184              		.fpu fpv4-sp-d16
 185              		.type	spi_comm_start, %function
 186              	spi_comm_start:
 187              	.LFB258:
 188              		.loc 1 272 0
 189              		.cfi_startproc
 190              		@ args = 0, pretend = 0, frame = 8
 191              		@ frame_needed = 0, uses_anonymous_args = 0
 192 0000 10B5     		push	{r4, lr}
 193              		.cfi_def_cfa_offset 8
 194              		.cfi_offset 4, -8
 195              		.cfi_offset 14, -4
 196 0002 0C4C     		ldr	r4, .L21
 197              		.loc 1 284 0
 198 0004 0C49     		ldr	r1, .L21+4
 199              		.loc 1 272 0
 200 0006 2368     		ldr	r3, [r4]
 201              		.loc 1 284 0
 202 0008 0C48     		ldr	r0, .L21+8
 203              		.loc 1 272 0
 204 000a 84B0     		sub	sp, sp, #16
 205              		.cfi_def_cfa_offset 24
 206              		.loc 1 272 0
 207 000c 0393     		str	r3, [sp, #12]
 208              		.loc 1 284 0
 209 000e FFF7FEFF 		bl	spiStart
 210              	.LVL10:
 211              		.loc 1 285 0
 212 0012 0023     		movs	r3, #0
 213 0014 0093     		str	r3, [sp]
 214 0016 4122     		movs	r2, #65
 215 0018 094B     		ldr	r3, .L21+12
 216 001a 0A48     		ldr	r0, .L21+16
 217 001c 4FF4AF61 		mov	r1, #1400
 218 0020 FFF7FEFF 		bl	chThdCreateStatic
 219              	.LVL11:
 220              		.loc 1 287 0
 221 0024 039A     		ldr	r2, [sp, #12]
 222 0026 2368     		ldr	r3, [r4]
 223 0028 9A42     		cmp	r2, r3
 224 002a 01D1     		bne	.L20
 225 002c 04B0     		add	sp, sp, #16
 226              		.cfi_remember_state
 227              		.cfi_def_cfa_offset 8
 228              		@ sp needed
ARM GAS  /tmp/ccaYOSny.s 			page 5


 229 002e 10BD     		pop	{r4, pc}
 230              	.L20:
 231              		.cfi_restore_state
 232 0030 FFF7FEFF 		bl	__stack_chk_fail
 233              	.LVL12:
 234              	.L22:
 235              		.align	2
 236              	.L21:
 237 0034 00000000 		.word	__stack_chk_guard
 238 0038 00000000 		.word	.LANCHOR2
 239 003c 00000000 		.word	SPID1
 240 0040 00000000 		.word	spi_thread
 241 0044 00000000 		.word	.LANCHOR3
 242              		.cfi_endproc
 243              	.LFE258:
 244              		.size	spi_comm_start, .-spi_comm_start
 245              		.global	ss_event
 246              		.global	spi_tx_buff
 247              		.global	spi_rx_buff
 248              		.section	.bss.spi_rx_buff,"aw",%nobits
 249              		.align	2
 250              		.set	.LANCHOR1,. + 0
 251              		.type	spi_rx_buff, %object
 252              		.size	spi_rx_buff, 4092
 253              	spi_rx_buff:
 254 0000 00000000 		.space	4092
 254      00000000 
 254      00000000 
 254      00000000 
 254      00000000 
 255              		.section	.bss.spi_thread_wa,"aw",%nobits
 256              		.align	3
 257              		.set	.LANCHOR3,. + 0
 258              		.type	spi_thread_wa, %object
 259              		.size	spi_thread_wa, 1400
 260              	spi_thread_wa:
 261 0000 00000000 		.space	1400
 261      00000000 
 261      00000000 
 261      00000000 
 261      00000000 
 262              		.section	.bss.spi_tx_buff,"aw",%nobits
 263              		.align	2
 264              		.set	.LANCHOR0,. + 0
 265              		.type	spi_tx_buff, %object
 266              		.size	spi_tx_buff, 4092
 267              	spi_tx_buff:
 268 0000 00000000 		.space	4092
 268      00000000 
 268      00000000 
 268      00000000 
 268      00000000 
 269              		.section	.bss.ss_event,"aw",%nobits
 270              		.align	2
 271              		.type	ss_event, %object
 272              		.size	ss_event, 4
 273              	ss_event:
ARM GAS  /tmp/ccaYOSny.s 			page 6


 274 0000 00000000 		.space	4
 275              		.section	.rodata.hs_spicfg.10884,"a",%progbits
 276              		.align	2
 277              		.set	.LANCHOR2,. + 0
 278              		.type	hs_spicfg.10884, %object
 279              		.size	hs_spicfg.10884, 12
 280              	hs_spicfg.10884:
 281 0000 00000000 		.word	0
 282 0004 00000240 		.word	1073872896
 283 0008 0F00     		.short	15
 284 000a 1000     		.short	16
 285              		.section	.rodata.spi_thread.str1.4,"aMS",%progbits,1
 286              		.align	2
 287              	.LC0:
 288 0000 53504920 		.ascii	"SPI thread\000"
 288      74687265 
 288      616400
 289              		.text
 290              	.Letext0:
 291              		.file 3 "/home/taras/Documents/EPFL/Robotique/TP/eclipse/Eclipse_e-puck2/Tools/gcc-arm-none-eabi-7
 292              		.file 4 "/home/taras/Documents/EPFL/Robotique/TP/eclipse/Eclipse_e-puck2/Tools/gcc-arm-none-eabi-7
 293              		.file 5 "/home/taras/Documents/EPFL/Robotique/TP/eclipse/Eclipse_e-puck2/Tools/gcc-arm-none-eabi-7
 294              		.file 6 "/home/taras/Documents/EPFL/Robotique/TP/eclipse/Eclipse_e-puck2/Tools/gcc-arm-none-eabi-7
 295              		.file 7 "/home/taras/Documents/EPFL/Robotique/TP/eclipse/Eclipse_e-puck2/Tools/gcc-arm-none-eabi-7
 296              		.file 8 "/home/taras/Documents/EPFL/Robotique/TP/eclipse/Eclipse_e-puck2/Tools/gcc-arm-none-eabi-7
 297              		.file 9 "/home/taras/Documents/EPFL/Robotique/TP/eclipse/Eclipse_e-puck2/Tools/gcc-arm-none-eabi-7
 298              		.file 10 "../../lib/e-puck2_main-processor/ChibiOS//os/rt/ports/ARMCMx/compilers/GCC/chtypes.h"
 299              		.file 11 "../../lib/e-puck2_main-processor/ChibiOS//os/rt/include/chsystypes.h"
 300              		.file 12 "../../lib/e-puck2_main-processor/ChibiOS//os/rt/include/chschd.h"
 301              		.file 13 "../../lib/e-puck2_main-processor/ChibiOS//os/ext/CMSIS/include/core_cm4.h"
 302              		.file 14 "../../lib/e-puck2_main-processor/ChibiOS//os/ext/CMSIS/ST/system_stm32f4xx.h"
 303              		.file 15 "../../lib/e-puck2_main-processor/ChibiOS//os/ext/CMSIS/ST/stm32f407xx.h"
 304              		.file 16 "../../lib/e-puck2_main-processor/ChibiOS//os/rt/ports/ARMCMx/chcore.h"
 305              		.file 17 "../../lib/e-puck2_main-processor/ChibiOS//os/rt/ports/ARMCMx/chcore_v7m.h"
 306              		.file 18 "../../lib/e-puck2_main-processor/ChibiOS//os/rt/include/chdebug.h"
 307              		.file 19 "../../lib/e-puck2_main-processor/ChibiOS//os/rt/include/chtm.h"
 308              		.file 20 "../../lib/e-puck2_main-processor/ChibiOS//os/rt/include/chstats.h"
 309              		.file 21 "../../lib/e-puck2_main-processor/ChibiOS//os/rt/include/chsem.h"
 310              		.file 22 "../../lib/e-puck2_main-processor/ChibiOS//os/rt/include/chmtx.h"
 311              		.file 23 "../../lib/e-puck2_main-processor/ChibiOS//os/rt/include/chevents.h"
 312              		.file 24 "../../lib/e-puck2_main-processor/ChibiOS//os/rt/include/chqueues.h"
 313              		.file 25 "../../lib/e-puck2_main-processor/ChibiOS//os/hal/ports/STM32/STM32F4xx/stm32_dma.h"
 314              		.file 26 "../../lib/e-puck2_main-processor/ChibiOS//os/hal/include/hal_ioblock.h"
 315              		.file 27 "../../lib/e-puck2_main-processor/ChibiOS//os/hal/ports/STM32/LLD/GPIOv2/pal_lld.h"
 316              		.file 28 "../../lib/e-puck2_main-processor/ChibiOS//os/hal/include/adc.h"
 317              		.file 29 "../../lib/e-puck2_main-processor/ChibiOS//os/hal/ports/STM32/STM32F4xx/adc_lld.h"
 318              		.file 30 "../../lib/e-puck2_main-processor/ChibiOS//os/hal/include/can.h"
 319              		.file 31 "../../lib/e-puck2_main-processor/ChibiOS//os/hal/ports/STM32/LLD/can_lld.h"
 320              		.file 32 "../../lib/e-puck2_main-processor/ChibiOS//os/hal/include/dac.h"
 321              		.file 33 "../../lib/e-puck2_main-processor/ChibiOS//os/hal/ports/STM32/LLD/DACv1/dac_lld.h"
 322              		.file 34 "../../lib/e-puck2_main-processor/ChibiOS//os/hal/include/ext.h"
 323              		.file 35 "../../lib/e-puck2_main-processor/ChibiOS//os/hal/ports/STM32/LLD/ext_lld.h"
 324              		.file 36 "../../lib/e-puck2_main-processor/ChibiOS//os/hal/include/gpt.h"
 325              		.file 37 "../../lib/e-puck2_main-processor/ChibiOS//os/hal/ports/STM32/LLD/TIMv1/gpt_lld.h"
 326              		.file 38 "../../lib/e-puck2_main-processor/ChibiOS//os/hal/ports/STM32/LLD/TIMv1/stm32_tim.h"
 327              		.file 39 "../../lib/e-puck2_main-processor/ChibiOS//os/hal/include/i2c.h"
 328              		.file 40 "../../lib/e-puck2_main-processor/ChibiOS//os/hal/ports/STM32/LLD/I2Cv1/i2c_lld.h"
ARM GAS  /tmp/ccaYOSny.s 			page 7


 329              		.file 41 "../../lib/e-puck2_main-processor/ChibiOS//os/hal/include/i2s.h"
 330              		.file 42 "../../lib/e-puck2_main-processor/ChibiOS//os/hal/ports/STM32/LLD/SPIv1/i2s_lld.h"
 331              		.file 43 "../../lib/e-puck2_main-processor/ChibiOS//os/hal/include/pwm.h"
 332              		.file 44 "../../lib/e-puck2_main-processor/ChibiOS//os/hal/ports/STM32/LLD/TIMv1/pwm_lld.h"
 333              		.file 45 "../../lib/e-puck2_main-processor/ChibiOS//os/hal/include/serial.h"
 334              		.file 46 "../../lib/e-puck2_main-processor/ChibiOS//os/hal/ports/STM32/LLD/USARTv1/serial_lld.h"
 335              		.file 47 "../../lib/e-puck2_main-processor/ChibiOS//os/hal/include/sdc.h"
 336              		.file 48 "../../lib/e-puck2_main-processor/ChibiOS//os/hal/ports/STM32/LLD/sdc_lld.h"
 337              		.file 49 "../../lib/e-puck2_main-processor/ChibiOS//os/hal/include/spi.h"
 338              		.file 50 "../../lib/e-puck2_main-processor/ChibiOS//os/hal/ports/STM32/LLD/SPIv1/spi_lld.h"
 339              		.file 51 "../../lib/e-puck2_main-processor/ChibiOS//os/hal/include/usb.h"
 340              		.file 52 "../../lib/e-puck2_main-processor/ChibiOS//os/hal/ports/STM32/LLD/OTGv1/usb_lld.h"
 341              		.file 53 "../../lib/e-puck2_main-processor/ChibiOS//os/hal/ports/STM32/LLD/OTGv1/stm32_otg.h"
 342              		.file 54 "../../lib/e-puck2_main-processor/ChibiOS_ext/os/hal/include/../ports/STM32/STM32F4xx/dcm
 343              		.file 55 "../../lib/e-puck2_main-processor/ChibiOS//os/rt/include/chthreads.h"
 344              		.file 56 "../../lib/e-puck2_main-processor/src/leds.h"
 345              		.file 57 "../../lib/e-puck2_main-processor/src/button.h"
 346              		.file 58 "../../lib/e-puck2_main-processor/src/camera/dcmi_camera.h"