ARM GAS  /tmp/cci5m6kK.s 			page 1


   1              		.cpu cortex-m4
   2              		.eabi_attribute 27, 1
   3              		.eabi_attribute 28, 1
   4              		.eabi_attribute 20, 1
   5              		.eabi_attribute 21, 1
   6              		.eabi_attribute 23, 3
   7              		.eabi_attribute 24, 1
   8              		.eabi_attribute 25, 1
   9              		.eabi_attribute 26, 1
  10              		.eabi_attribute 30, 2
  11              		.eabi_attribute 34, 1
  12              		.eabi_attribute 18, 4
  13              		.file	"VL53L0X.c"
  14              		.text
  15              	.Ltext0:
  16              		.cfi_sections	.debug_frame
  17              		.section	.text.invers_speed,"ax",%progbits
  18              		.align	1
  19              		.p2align 4,,15
  20              		.global	invers_speed
  21              		.syntax unified
  22              		.thumb
  23              		.thumb_func
  24              		.fpu fpv4-sp-d16
  25              		.type	invers_speed, %function
  26              	invers_speed:
  27              	.LFB260:
  28              		.file 1 "../../lib/e-puck2_main-processor/src/sensors/VL53L0X/VL53L0X.c"
  29              		.loc 1 22 0
  30              		.cfi_startproc
  31              		@ args = 0, pretend = 0, frame = 8
  32              		@ frame_needed = 0, uses_anonymous_args = 0
  33              	.LVL0:
  34 0000 10B5     		push	{r4, lr}
  35              		.cfi_def_cfa_offset 8
  36              		.cfi_offset 4, -8
  37              		.cfi_offset 14, -4
  38 0002 104C     		ldr	r4, .L11
  39 0004 82B0     		sub	sp, sp, #8
  40              		.cfi_def_cfa_offset 16
  41              		.loc 1 22 0
  42 0006 2368     		ldr	r3, [r4]
  43 0008 0193     		str	r3, [sp, #4]
  44              		.loc 1 23 0
  45 000a 70B1     		cbz	r0, .L10
  46              		.loc 1 28 0
  47 000c 6FF0C700 		mvn	r0, #199
  48              	.LVL1:
  49 0010 FFF7FEFF 		bl	right_motor_set_speed
  50              	.LVL2:
  51              		.loc 1 29 0
  52 0014 019A     		ldr	r2, [sp, #4]
  53 0016 2368     		ldr	r3, [r4]
  54 0018 9A42     		cmp	r2, r3
  55 001a 08BF     		it	eq
  56 001c C820     		moveq	r0, #200
  57 001e 0ED1     		bne	.L8
ARM GAS  /tmp/cci5m6kK.s 			page 2


  58              	.L7:
  59              		.loc 1 31 0
  60 0020 02B0     		add	sp, sp, #8
  61              		.cfi_remember_state
  62              		.cfi_def_cfa_offset 8
  63              		@ sp needed
  64 0022 BDE81040 		pop	{r4, lr}
  65              		.cfi_restore 14
  66              		.cfi_restore 4
  67              		.cfi_def_cfa_offset 0
  68              		.loc 1 29 0
  69 0026 FFF7FEBF 		b	left_motor_set_speed
  70              	.LVL3:
  71              	.L10:
  72              		.cfi_restore_state
  73              	.LBB14:
  74              	.LBB15:
  75              		.loc 1 24 0
  76 002a C820     		movs	r0, #200
  77              	.LVL4:
  78 002c FFF7FEFF 		bl	right_motor_set_speed
  79              	.LVL5:
  80              		.loc 1 25 0
  81 0030 019A     		ldr	r2, [sp, #4]
  82 0032 2368     		ldr	r3, [r4]
  83 0034 9A42     		cmp	r2, r3
  84 0036 08BF     		it	eq
  85 0038 6FF0C700 		mvneq	r0, #199
  86 003c F0D0     		beq	.L7
  87              	.LVL6:
  88              	.L8:
  89              	.LBE15:
  90              	.LBE14:
  91              		.loc 1 29 0
  92 003e FFF7FEFF 		bl	__stack_chk_fail
  93              	.LVL7:
  94              	.L12:
  95 0042 00BF     		.align	2
  96              	.L11:
  97 0044 00000000 		.word	__stack_chk_guard
  98              		.cfi_endproc
  99              	.LFE260:
 100              		.size	invers_speed, .-invers_speed
 101              		.section	.text.VL53L0X_init,"ax",%progbits
 102              		.align	1
 103              		.p2align 4,,15
 104              		.global	VL53L0X_init
 105              		.syntax unified
 106              		.thumb
 107              		.thumb_func
 108              		.fpu fpv4-sp-d16
 109              		.type	VL53L0X_init, %function
 110              	VL53L0X_init:
 111              	.LFB262:
 112              		.loc 1 141 0
 113              		.cfi_startproc
 114              		@ args = 0, pretend = 0, frame = 16
ARM GAS  /tmp/cci5m6kK.s 			page 3


 115              		@ frame_needed = 0, uses_anonymous_args = 0
 116              	.LVL8:
 117 0000 30B5     		push	{r4, r5, lr}
 118              		.cfi_def_cfa_offset 12
 119              		.cfi_offset 4, -12
 120              		.cfi_offset 5, -8
 121              		.cfi_offset 14, -4
 122 0002 164C     		ldr	r4, .L19
 123 0004 85B0     		sub	sp, sp, #20
 124              		.cfi_def_cfa_offset 32
 125              		.loc 1 141 0
 126 0006 2368     		ldr	r3, [r4]
 127 0008 0393     		str	r3, [sp, #12]
 128              	.LVL9:
 129 000a 0546     		mov	r5, r0
 130              		.loc 1 154 0
 131 000c FFF7FEFF 		bl	VL53L0X_DataInit
 132              	.LVL10:
 133              		.loc 1 157 0
 134 0010 28B1     		cbz	r0, .L17
 135              	.LVL11:
 136              	.L14:
 137              		.loc 1 185 0
 138 0012 039A     		ldr	r2, [sp, #12]
 139 0014 2368     		ldr	r3, [r4]
 140 0016 9A42     		cmp	r2, r3
 141 0018 1DD1     		bne	.L18
 142 001a 05B0     		add	sp, sp, #20
 143              		.cfi_remember_state
 144              		.cfi_def_cfa_offset 12
 145              		@ sp needed
 146 001c 30BD     		pop	{r4, r5, pc}
 147              	.LVL12:
 148              	.L17:
 149              		.cfi_restore_state
 150              		.loc 1 160 0
 151 001e 05F5AE71 		add	r1, r5, #348
 152 0022 2846     		mov	r0, r5
 153              	.LVL13:
 154 0024 FFF7FEFF 		bl	VL53L0X_GetDeviceInfo
 155              	.LVL14:
 156              		.loc 1 163 0
 157 0028 0028     		cmp	r0, #0
 158 002a F2D1     		bne	.L14
 159              		.loc 1 166 0
 160 002c 2846     		mov	r0, r5
 161              	.LVL15:
 162 002e FFF7FEFF 		bl	VL53L0X_StaticInit
 163              	.LVL16:
 164              		.loc 1 170 0
 165 0032 0028     		cmp	r0, #0
 166 0034 EDD1     		bne	.L14
 167              		.loc 1 173 0
 168 0036 0DF10502 		add	r2, sp, #5
 169 003a 02A9     		add	r1, sp, #8
 170 003c 2846     		mov	r0, r5
 171              	.LVL17:
ARM GAS  /tmp/cci5m6kK.s 			page 4


 172 003e FFF7FEFF 		bl	VL53L0X_PerformRefSpadManagement
 173              	.LVL18:
 174              		.loc 1 177 0
 175 0042 0028     		cmp	r0, #0
 176 0044 E5D1     		bne	.L14
 177              	.LVL19:
 178              	.LBB18:
 179              	.LBB19:
 180              		.loc 1 180 0
 181 0046 2846     		mov	r0, r5
 182              	.LVL20:
 183 0048 0DF10702 		add	r2, sp, #7
 184 004c 0DF10601 		add	r1, sp, #6
 185 0050 FFF7FEFF 		bl	VL53L0X_PerformRefCalibration
 186              	.LVL21:
 187 0054 DDE7     		b	.L14
 188              	.LVL22:
 189              	.L18:
 190              	.LBE19:
 191              	.LBE18:
 192              		.loc 1 185 0
 193 0056 FFF7FEFF 		bl	__stack_chk_fail
 194              	.LVL23:
 195              	.L20:
 196 005a 00BF     		.align	2
 197              	.L19:
 198 005c 00000000 		.word	__stack_chk_guard
 199              		.cfi_endproc
 200              	.LFE262:
 201              		.size	VL53L0X_init, .-VL53L0X_init
 202              		.section	.text.VL53L0X_configAccuracy,"ax",%progbits
 203              		.align	1
 204              		.p2align 4,,15
 205              		.global	VL53L0X_configAccuracy
 206              		.syntax unified
 207              		.thumb
 208              		.thumb_func
 209              		.fpu fpv4-sp-d16
 210              		.type	VL53L0X_configAccuracy, %function
 211              	VL53L0X_configAccuracy:
 212              	.LFB263:
 213              		.loc 1 187 0
 214              		.cfi_startproc
 215              		@ args = 0, pretend = 0, frame = 8
 216              		@ frame_needed = 0, uses_anonymous_args = 0
 217              	.LVL24:
 218 0000 70B5     		push	{r4, r5, r6, lr}
 219              		.cfi_def_cfa_offset 16
 220              		.cfi_offset 4, -16
 221              		.cfi_offset 5, -12
 222              		.cfi_offset 6, -8
 223              		.cfi_offset 14, -4
 224 0002 554D     		ldr	r5, .L40
 225 0004 82B0     		sub	sp, sp, #8
 226              		.cfi_def_cfa_offset 24
 227              		.loc 1 187 0
 228 0006 0C46     		mov	r4, r1
ARM GAS  /tmp/cci5m6kK.s 			page 5


 229 0008 2B68     		ldr	r3, [r5]
 230 000a 0193     		str	r3, [sp, #4]
 231              	.LVL25:
 232              		.loc 1 193 0
 233 000c 0122     		movs	r2, #1
 234 000e 0021     		movs	r1, #0
 235              	.LVL26:
 236              		.loc 1 187 0
 237 0010 0646     		mov	r6, r0
 238              		.loc 1 193 0
 239 0012 FFF7FEFF 		bl	VL53L0X_SetLimitCheckEnable
 240              	.LVL27:
 241              		.loc 1 197 0
 242 0016 0028     		cmp	r0, #0
 243 0018 71D0     		beq	.L39
 244              		.loc 1 204 0
 245 001a 032C     		cmp	r4, #3
 246 001c 03D8     		bhi	.L23
 247 001e DFE804F0 		tbb	[pc, r4]
 248              	.L34:
 249 0022 04       		.byte	(.L29-.L34)/2
 250 0023 51       		.byte	(.L26-.L34)/2
 251 0024 25       		.byte	(.L27-.L34)/2
 252 0025 0B       		.byte	(.L28-.L34)/2
 253              		.p2align 1
 254              	.L23:
 255              		.loc 1 278 0
 256 0026 6FF00300 		mvn	r0, #3
 257              	.LVL28:
 258              	.L29:
 259              		.loc 1 283 0
 260 002a 019A     		ldr	r2, [sp, #4]
 261 002c 2B68     		ldr	r3, [r5]
 262 002e 9A42     		cmp	r2, r3
 263 0030 40F08F80 		bne	.L36
 264 0034 02B0     		add	sp, sp, #8
 265              		.cfi_remember_state
 266              		.cfi_def_cfa_offset 16
 267              		@ sp needed
 268 0036 70BD     		pop	{r4, r5, r6, pc}
 269              	.LVL29:
 270              	.L28:
 271              		.cfi_restore_state
 272              		.loc 1 262 0
 273 0038 0028     		cmp	r0, #0
 274 003a F6D1     		bne	.L29
 275              		.loc 1 263 0
 276 003c 4FF48042 		mov	r2, #16384
 277 0040 0121     		movs	r1, #1
 278 0042 3046     		mov	r0, r6
 279              	.LVL30:
 280 0044 FFF7FEFF 		bl	VL53L0X_SetLimitCheckValue
 281              	.LVL31:
 282              		.loc 1 267 0
 283 0048 0028     		cmp	r0, #0
 284 004a EED1     		bne	.L29
 285              		.loc 1 268 0
ARM GAS  /tmp/cci5m6kK.s 			page 6


 286 004c 0146     		mov	r1, r0
 287 004e 4FF40012 		mov	r2, #2097152
 288 0052 3046     		mov	r0, r6
 289              	.LVL32:
 290 0054 FFF7FEFF 		bl	VL53L0X_SetLimitCheckValue
 291              	.LVL33:
 292              		.loc 1 272 0
 293 0058 0028     		cmp	r0, #0
 294 005a E6D1     		bne	.L29
 295              		.loc 1 273 0
 296 005c 019A     		ldr	r2, [sp, #4]
 297 005e 2B68     		ldr	r3, [r5]
 298 0060 9A42     		cmp	r2, r3
 299 0062 76D1     		bne	.L36
 300 0064 3046     		mov	r0, r6
 301              	.LVL34:
 302 0066 47F23051 		movw	r1, #30000
 303 006a 43E0     		b	.L38
 304              	.LVL35:
 305              	.L27:
 306              		.loc 1 237 0
 307 006c 0028     		cmp	r0, #0
 308 006e DCD1     		bne	.L29
 309              		.loc 1 238 0
 310 0070 41F69912 		movw	r2, #6553
 311 0074 0121     		movs	r1, #1
 312 0076 3046     		mov	r0, r6
 313              	.LVL36:
 314 0078 FFF7FEFF 		bl	VL53L0X_SetLimitCheckValue
 315              	.LVL37:
 316              		.loc 1 242 0
 317 007c 0028     		cmp	r0, #0
 318 007e D4D1     		bne	.L29
 319              		.loc 1 243 0
 320 0080 0146     		mov	r1, r0
 321 0082 4FF47012 		mov	r2, #3932160
 322 0086 3046     		mov	r0, r6
 323              	.LVL38:
 324 0088 FFF7FEFF 		bl	VL53L0X_SetLimitCheckValue
 325              	.LVL39:
 326              		.loc 1 247 0
 327 008c 0028     		cmp	r0, #0
 328 008e CCD1     		bne	.L29
 329              		.loc 1 248 0
 330 0090 48F2E801 		movw	r1, #33000
 331 0094 3046     		mov	r0, r6
 332              	.LVL40:
 333 0096 FFF7FEFF 		bl	VL53L0X_SetMeasurementTimingBudgetMicroSeconds
 334              	.LVL41:
 335              		.loc 1 251 0
 336 009a 0028     		cmp	r0, #0
 337 009c C5D1     		bne	.L29
 338              		.loc 1 252 0
 339 009e 0146     		mov	r1, r0
 340 00a0 1222     		movs	r2, #18
 341 00a2 3046     		mov	r0, r6
 342              	.LVL42:
ARM GAS  /tmp/cci5m6kK.s 			page 7


 343 00a4 FFF7FEFF 		bl	VL53L0X_SetVcselPulsePeriod
 344              	.LVL43:
 345              		.loc 1 255 0
 346 00a8 0028     		cmp	r0, #0
 347 00aa BED1     		bne	.L29
 348              		.loc 1 256 0
 349 00ac 019A     		ldr	r2, [sp, #4]
 350 00ae 2B68     		ldr	r3, [r5]
 351 00b0 9A42     		cmp	r2, r3
 352 00b2 4ED1     		bne	.L36
 353 00b4 3046     		mov	r0, r6
 354              	.LVL44:
 355 00b6 0E22     		movs	r2, #14
 356 00b8 0121     		movs	r1, #1
 357              		.loc 1 283 0
 358 00ba 02B0     		add	sp, sp, #8
 359              		.cfi_remember_state
 360              		.cfi_def_cfa_offset 16
 361              		@ sp needed
 362 00bc BDE87040 		pop	{r4, r5, r6, lr}
 363              		.cfi_restore 14
 364              		.cfi_restore 6
 365              		.cfi_restore 5
 366              		.cfi_restore 4
 367              		.cfi_def_cfa_offset 0
 368              	.LVL45:
 369              		.loc 1 256 0
 370 00c0 FFF7FEBF 		b	VL53L0X_SetVcselPulsePeriod
 371              	.LVL46:
 372              	.L26:
 373              		.cfi_restore_state
 374              		.loc 1 220 0
 375 00c4 0028     		cmp	r0, #0
 376 00c6 B0D1     		bne	.L29
 377              		.loc 1 221 0
 378 00c8 4FF48042 		mov	r2, #16384
 379 00cc 0121     		movs	r1, #1
 380 00ce 3046     		mov	r0, r6
 381              	.LVL47:
 382 00d0 FFF7FEFF 		bl	VL53L0X_SetLimitCheckValue
 383              	.LVL48:
 384              		.loc 1 225 0
 385 00d4 0028     		cmp	r0, #0
 386 00d6 A8D1     		bne	.L29
 387              		.loc 1 226 0
 388 00d8 0146     		mov	r1, r0
 389 00da 4FF49012 		mov	r2, #1179648
 390 00de 3046     		mov	r0, r6
 391              	.LVL49:
 392 00e0 FFF7FEFF 		bl	VL53L0X_SetLimitCheckValue
 393              	.LVL50:
 394              		.loc 1 230 0
 395 00e4 0028     		cmp	r0, #0
 396 00e6 A0D1     		bne	.L29
 397              		.loc 1 231 0
 398 00e8 019A     		ldr	r2, [sp, #4]
 399 00ea 2B68     		ldr	r3, [r5]
ARM GAS  /tmp/cci5m6kK.s 			page 8


 400 00ec 9A42     		cmp	r2, r3
 401 00ee 30D1     		bne	.L36
 402 00f0 1A49     		ldr	r1, .L40+4
 403 00f2 3046     		mov	r0, r6
 404              	.LVL51:
 405              	.L38:
 406              		.loc 1 283 0
 407 00f4 02B0     		add	sp, sp, #8
 408              		.cfi_remember_state
 409              		.cfi_def_cfa_offset 16
 410              		@ sp needed
 411 00f6 BDE87040 		pop	{r4, r5, r6, lr}
 412              		.cfi_restore 14
 413              		.cfi_restore 6
 414              		.cfi_restore 5
 415              		.cfi_restore 4
 416              		.cfi_def_cfa_offset 0
 417              		.loc 1 273 0
 418 00fa FFF7FEBF 		b	VL53L0X_SetMeasurementTimingBudgetMicroSeconds
 419              	.LVL52:
 420              	.L39:
 421              		.cfi_restore_state
 422              		.loc 1 198 0
 423 00fe 0122     		movs	r2, #1
 424 0100 1146     		mov	r1, r2
 425 0102 3046     		mov	r0, r6
 426              	.LVL53:
 427 0104 FFF7FEFF 		bl	VL53L0X_SetLimitCheckEnable
 428              	.LVL54:
 429              		.loc 1 204 0
 430 0108 032C     		cmp	r4, #3
 431 010a 8CD8     		bhi	.L23
 432 010c 01A3     		adr	r3, .L25
 433 010e 53F824F0 		ldr	pc, [r3, r4, lsl #2]
 434 0112 00BF     		.p2align 2
 435              	.L25:
 436 0114 25010000 		.word	.L24+1
 437 0118 C5000000 		.word	.L26+1
 438 011c 6D000000 		.word	.L27+1
 439 0120 39000000 		.word	.L28+1
 440              		.p2align 1
 441              	.L24:
 442              		.loc 1 207 0
 443 0124 0028     		cmp	r0, #0
 444 0126 80D1     		bne	.L29
 445              		.loc 1 208 0
 446 0128 0122     		movs	r2, #1
 447 012a 0321     		movs	r1, #3
 448 012c 3046     		mov	r0, r6
 449              	.LVL55:
 450 012e FFF7FEFF 		bl	VL53L0X_SetLimitCheckEnable
 451              	.LVL56:
 452              		.loc 1 212 0
 453 0132 0028     		cmp	r0, #0
 454 0134 7FF479AF 		bne	.L29
 455              		.loc 1 213 0
 456 0138 019A     		ldr	r2, [sp, #4]
ARM GAS  /tmp/cci5m6kK.s 			page 9


 457 013a 2B68     		ldr	r3, [r5]
 458 013c 9A42     		cmp	r2, r3
 459 013e 08D1     		bne	.L36
 460 0140 3046     		mov	r0, r6
 461              	.LVL57:
 462 0142 40F6D402 		movw	r2, #2260
 463 0146 0321     		movs	r1, #3
 464              		.loc 1 283 0
 465 0148 02B0     		add	sp, sp, #8
 466              		.cfi_remember_state
 467              		.cfi_def_cfa_offset 16
 468              		@ sp needed
 469 014a BDE87040 		pop	{r4, r5, r6, lr}
 470              		.cfi_restore 14
 471              		.cfi_restore 6
 472              		.cfi_restore 5
 473              		.cfi_restore 4
 474              		.cfi_def_cfa_offset 0
 475              	.LVL58:
 476              		.loc 1 213 0
 477 014e FFF7FEBF 		b	VL53L0X_SetLimitCheckValue
 478              	.LVL59:
 479              	.L36:
 480              		.cfi_restore_state
 481              		.loc 1 283 0
 482 0152 FFF7FEFF 		bl	__stack_chk_fail
 483              	.LVL60:
 484              	.L41:
 485 0156 00BF     		.align	2
 486              	.L40:
 487 0158 00000000 		.word	__stack_chk_guard
 488 015c 400D0300 		.word	200000
 489              		.cfi_endproc
 490              	.LFE263:
 491              		.size	VL53L0X_configAccuracy, .-VL53L0X_configAccuracy
 492              		.section	.text.VL53L0X_startMeasure,"ax",%progbits
 493              		.align	1
 494              		.p2align 4,,15
 495              		.global	VL53L0X_startMeasure
 496              		.syntax unified
 497              		.thumb
 498              		.thumb_func
 499              		.fpu fpv4-sp-d16
 500              		.type	VL53L0X_startMeasure, %function
 501              	VL53L0X_startMeasure:
 502              	.LFB264:
 503              		.loc 1 285 0
 504              		.cfi_startproc
 505              		@ args = 0, pretend = 0, frame = 8
 506              		@ frame_needed = 0, uses_anonymous_args = 0
 507              	.LVL61:
 508 0000 30B5     		push	{r4, r5, lr}
 509              		.cfi_def_cfa_offset 12
 510              		.cfi_offset 4, -12
 511              		.cfi_offset 5, -8
 512              		.cfi_offset 14, -4
 513 0002 0C4C     		ldr	r4, .L49
ARM GAS  /tmp/cci5m6kK.s 			page 10


 514 0004 83B0     		sub	sp, sp, #12
 515              		.cfi_def_cfa_offset 24
 516              		.loc 1 285 0
 517 0006 2368     		ldr	r3, [r4]
 518 0008 0193     		str	r3, [sp, #4]
 519              	.LVL62:
 520 000a 0546     		mov	r5, r0
 521              		.loc 1 289 0
 522 000c FFF7FEFF 		bl	VL53L0X_SetDeviceMode
 523              	.LVL63:
 524              		.loc 1 292 0
 525 0010 019A     		ldr	r2, [sp, #4]
 526 0012 2368     		ldr	r3, [r4]
 527              		.loc 1 291 0
 528 0014 18B1     		cbz	r0, .L48
 529              	.LVL64:
 530              		.loc 1 296 0
 531 0016 9A42     		cmp	r2, r3
 532 0018 09D1     		bne	.L47
 533 001a 03B0     		add	sp, sp, #12
 534              		.cfi_remember_state
 535              		.cfi_def_cfa_offset 12
 536              		@ sp needed
 537 001c 30BD     		pop	{r4, r5, pc}
 538              	.LVL65:
 539              	.L48:
 540              		.cfi_restore_state
 541              		.loc 1 292 0
 542 001e 9A42     		cmp	r2, r3
 543 0020 05D1     		bne	.L47
 544 0022 2846     		mov	r0, r5
 545              	.LVL66:
 546              		.loc 1 296 0
 547 0024 03B0     		add	sp, sp, #12
 548              		.cfi_remember_state
 549              		.cfi_def_cfa_offset 12
 550              		@ sp needed
 551 0026 BDE83040 		pop	{r4, r5, lr}
 552              		.cfi_restore 14
 553              		.cfi_restore 5
 554              		.cfi_restore 4
 555              		.cfi_def_cfa_offset 0
 556              	.LVL67:
 557              		.loc 1 292 0
 558 002a FFF7FEBF 		b	VL53L0X_StartMeasurement
 559              	.LVL68:
 560              	.L47:
 561              		.cfi_restore_state
 562              		.loc 1 296 0
 563 002e FFF7FEFF 		bl	__stack_chk_fail
 564              	.LVL69:
 565              	.L50:
 566 0032 00BF     		.align	2
 567              	.L49:
 568 0034 00000000 		.word	__stack_chk_guard
 569              		.cfi_endproc
 570              	.LFE264:
ARM GAS  /tmp/cci5m6kK.s 			page 11


 571              		.size	VL53L0X_startMeasure, .-VL53L0X_startMeasure
 572              		.section	.text.VL53L0XThd,"ax",%progbits
 573              		.align	1
 574              		.p2align 4,,15
 575              		.syntax unified
 576              		.thumb
 577              		.thumb_func
 578              		.fpu fpv4-sp-d16
 579              		.type	VL53L0XThd, %function
 580              	VL53L0XThd:
 581              	.LFB261:
 582              		.loc 1 35 0
 583              		.cfi_startproc
 584              		@ args = 0, pretend = 0, frame = 16
 585              		@ frame_needed = 0, uses_anonymous_args = 0
 586              	.LVL70:
 587 0000 2DE9F04F 		push	{r4, r5, r6, r7, r8, r9, r10, fp, lr}
 588              		.cfi_def_cfa_offset 36
 589              		.cfi_offset 4, -36
 590              		.cfi_offset 5, -32
 591              		.cfi_offset 6, -28
 592              		.cfi_offset 7, -24
 593              		.cfi_offset 8, -20
 594              		.cfi_offset 9, -16
 595              		.cfi_offset 10, -12
 596              		.cfi_offset 11, -8
 597              		.cfi_offset 14, -4
 598 0004 2DED048B 		vpush.64	{d8, d9}
 599              		.cfi_def_cfa_offset 52
 600              		.cfi_offset 80, -52
 601              		.cfi_offset 81, -48
 602              		.cfi_offset 82, -44
 603              		.cfi_offset 83, -40
 604 0008 4E4B     		ldr	r3, .L71
 605              	.LBB20:
 606              	.LBB21:
 607              		.file 2 "../../lib/e-puck2_main-processor/ChibiOS//os/rt/include/chregistry.h"
 608              		.loc 2 135 0
 609 000a 4F4D     		ldr	r5, .L71+4
 610              	.LBE21:
 611              	.LBE20:
 612              		.loc 1 35 0
 613 000c 1B68     		ldr	r3, [r3]
 614              		.loc 1 62 0
 615 000e DFF85491 		ldr	r9, .L71+32
 616              		.loc 1 35 0
 617 0012 85B0     		sub	sp, sp, #20
 618              		.cfi_def_cfa_offset 72
 619              		.loc 1 50 0
 620 0014 C820     		movs	r0, #200
 621              	.LVL71:
 622              		.loc 1 35 0
 623 0016 0393     		str	r3, [sp, #12]
 624              	.LVL72:
 625              		.loc 1 50 0
 626 0018 FFF7FEFF 		bl	right_motor_set_speed
 627              	.LVL73:
ARM GAS  /tmp/cci5m6kK.s 			page 12


 628              		.loc 1 51 0
 629 001c 6FF0C700 		mvn	r0, #199
 630 0020 FFF7FEFF 		bl	left_motor_set_speed
 631              	.LVL74:
 632              	.LBB23:
 633              	.LBB22:
 634              		.loc 2 135 0
 635 0024 AB69     		ldr	r3, [r5, #24]
 636 0026 494A     		ldr	r2, .L71+8
 637 0028 9A61     		str	r2, [r3, #24]
 638              	.LVL75:
 639              	.LBE22:
 640              	.LBE23:
 641              		.loc 1 64 0
 642 002a 4846     		mov	r0, r9
 643              		.loc 1 62 0
 644 002c 5223     		movs	r3, #82
 645 002e 89F8BF31 		strb	r3, [r9, #447]
 646              		.loc 1 64 0
 647 0032 FFF7FEFF 		bl	VL53L0X_init
 648              	.LVL76:
 649              		.loc 1 66 0
 650 0036 50B9     		cbnz	r0, .L52
 651              		.loc 1 67 0
 652 0038 0221     		movs	r1, #2
 653 003a 4846     		mov	r0, r9
 654              	.LVL77:
 655 003c FFF7FEFF 		bl	VL53L0X_configAccuracy
 656              	.LVL78:
 657              		.loc 1 73 0
 658 0040 434E     		ldr	r6, .L71+12
 659              		.loc 1 70 0
 660 0042 0121     		movs	r1, #1
 661 0044 4846     		mov	r0, r9
 662 0046 FFF7FEFF 		bl	VL53L0X_startMeasure
 663              	.LVL79:
 664              		.loc 1 73 0
 665 004a 0123     		movs	r3, #1
 666 004c 3370     		strb	r3, [r6]
 667              	.L52:
 668              	.LVL80:
 669              	.LBB24:
 670              	.LBB25:
 671              		.file 3 "../../lib/e-puck2_main-processor/ChibiOS//os/rt/include/chthreads.h"
 672              		.loc 3 233 0
 673 004e AB69     		ldr	r3, [r5, #24]
 674              	.LBE25:
 675              	.LBE24:
 676              		.loc 1 77 0
 677 0050 93F82140 		ldrb	r4, [r3, #33]	@ zero_extendqisi2
 678 0054 14F00404 		ands	r4, r4, #4
 679 0058 4AD1     		bne	.L51
 680 005a 3D4E     		ldr	r6, .L71+12
 681 005c 3D4F     		ldr	r7, .L71+16
 682              		.loc 1 85 0
 683 005e 9FED3E9A 		vldr.32	s18, .L71+20
 684 0062 DFED3E8A 		vldr.32	s17, .L71+24
ARM GAS  /tmp/cci5m6kK.s 			page 13


 685              		.loc 1 77 0
 686 0066 CDE90044 		strd	r4, r4, [sp]
 687 006a A346     		mov	fp, r4
 688 006c 12E0     		b	.L59
 689              	.LVL81:
 690              	.L56:
 691              		.loc 1 114 0
 692 006e 009B     		ldr	r3, [sp]
 693 0070 002B     		cmp	r3, #0
 694 0072 51D0     		beq	.L68
 695              	.LVL82:
 696              	.L58:
 697              		.loc 1 123 0
 698 0074 FFF7FEFF 		bl	left_motor_get_pos
 699              	.LVL83:
 700 0078 B0F57A7F 		cmp	r0, #1000
 701 007c 42DA     		bge	.L69
 702 007e CDF80080 		str	r8, [sp]
 703              	.LVL84:
 704              	.L57:
 705              		.loc 1 136 0
 706 0082 1420     		movs	r0, #20
 707 0084 FFF7FEFF 		bl	chThdSleep
 708              	.LVL85:
 709              	.LBB27:
 710              	.LBB26:
 711              		.loc 3 233 0
 712 0088 AB69     		ldr	r3, [r5, #24]
 713              	.LBE26:
 714              	.LBE27:
 715              		.loc 1 77 0
 716 008a 93F82130 		ldrb	r3, [r3, #33]	@ zero_extendqisi2
 717 008e 5B07     		lsls	r3, r3, #29
 718              		.loc 1 85 0
 719 0090 D346     		mov	fp, r10
 720              		.loc 1 77 0
 721 0092 2DD4     		bmi	.L51
 722              	.LVL86:
 723              	.L59:
 724              		.loc 1 78 0
 725 0094 3378     		ldrb	r3, [r6]	@ zero_extendqisi2
 726 0096 13BB     		cbnz	r3, .L54
 727 0098 3B88     		ldrh	r3, [r7]
 728              	.L55:
 729              		.loc 1 85 0
 730 009a 07EE90BA 		vmov	s15, fp	@ int
 731 009e B8EEE78A 		vcvt.f32.s32	s16, s15
 732 00a2 07EE903A 		vmov	s15, r3	@ int
 733 00a6 28EE098A 		vmul.f32	s16, s16, s18
 734 00aa F8EEE77A 		vcvt.f32.s32	s15, s15
 735              		.loc 1 87 0
 736 00ae 34F00208 		bics	r8, r4, #2
 737              		.loc 1 85 0
 738 00b2 A7EEA88A 		vfma.f32	s16, s15, s17
 739 00b6 FDEEC87A 		vcvt.s32.f32	s15, s16
 740 00ba 17EE90AA 		vmov	r10, s15	@ int
 741              	.LVL87:
ARM GAS  /tmp/cci5m6kK.s 			page 14


 742              		.loc 1 87 0
 743 00be D6D1     		bne	.L56
 744              		.loc 1 88 0
 745 00c0 DA45     		cmp	r10, fp
 746 00c2 DEDD     		ble	.L57
 747              		.loc 1 92 0
 748 00c4 0120     		movs	r0, #1
 749 00c6 FFF7FEFF 		bl	invers_speed
 750              	.LVL88:
 751              		.loc 1 93 0
 752 00ca 019B     		ldr	r3, [sp, #4]
 753 00cc 012B     		cmp	r3, #1
 754 00ce 32D0     		beq	.L61
 755              		.loc 1 98 0
 756 00d0 022B     		cmp	r3, #2
 757 00d2 33D0     		beq	.L62
 758              	.LVL89:
 759              		.loc 1 108 0
 760 00d4 002B     		cmp	r3, #0
 761 00d6 08BF     		it	eq
 762 00d8 0123     		moveq	r3, #1
 763              	.LVL90:
 764 00da 0193     		str	r3, [sp, #4]
 765              	.LVL91:
 766 00dc D1E7     		b	.L57
 767              	.LVL92:
 768              	.L54:
 769              	.LBB28:
 770              	.LBB29:
 771              		.loc 1 299 0
 772 00de 2049     		ldr	r1, .L71+28
 773 00e0 A1F15000 		sub	r0, r1, #80
 774 00e4 FFF7FEFF 		bl	VL53L0X_GetRangingMeasurementData
 775              	.LVL93:
 776              	.LBE29:
 777              	.LBE28:
 778              		.loc 1 80 0
 779 00e8 B9F85830 		ldrh	r3, [r9, #88]
 780 00ec 3B80     		strh	r3, [r7]	@ movhi
 781 00ee D4E7     		b	.L55
 782              	.LVL94:
 783              	.L51:
 784              		.loc 1 138 0
 785 00f0 144B     		ldr	r3, .L71
 786 00f2 039A     		ldr	r2, [sp, #12]
 787 00f4 1B68     		ldr	r3, [r3]
 788 00f6 9A42     		cmp	r2, r3
 789 00f8 22D1     		bne	.L70
 790 00fa 05B0     		add	sp, sp, #20
 791              		.cfi_remember_state
 792              		.cfi_def_cfa_offset 52
 793              		@ sp needed
 794 00fc BDEC048B 		vldm	sp!, {d8-d9}
 795              		.cfi_restore 82
 796              		.cfi_restore 83
 797              		.cfi_restore 80
 798              		.cfi_restore 81
ARM GAS  /tmp/cci5m6kK.s 			page 15


 799              		.cfi_def_cfa_offset 36
 800 0100 BDE8F08F 		pop	{r4, r5, r6, r7, r8, r9, r10, fp, pc}
 801              	.LVL95:
 802              	.L69:
 803              		.cfi_restore_state
 804              		.loc 1 128 0
 805 0104 0020     		movs	r0, #0
 806 0106 FFF7FEFF 		bl	right_motor_set_speed
 807              	.LVL96:
 808              		.loc 1 129 0
 809 010a 0020     		movs	r0, #0
 810              		.loc 1 123 0
 811 010c CDF80080 		str	r8, [sp]
 812              		.loc 1 130 0
 813 0110 0224     		movs	r4, #2
 814              	.LVL97:
 815              		.loc 1 129 0
 816 0112 FFF7FEFF 		bl	left_motor_set_speed
 817              	.LVL98:
 818 0116 B4E7     		b	.L57
 819              	.LVL99:
 820              	.L68:
 821              		.loc 1 116 0
 822 0118 9B46     		mov	fp, r3
 823              	.LVL100:
 824 011a 1846     		mov	r0, r3
 825 011c FFF7FEFF 		bl	left_motor_set_pos
 826              	.LVL101:
 827              		.loc 1 117 0
 828 0120 5846     		mov	r0, fp
 829 0122 FFF7FEFF 		bl	right_motor_set_pos
 830              	.LVL102:
 831              		.loc 1 118 0
 832 0126 C820     		movs	r0, #200
 833 0128 FFF7FEFF 		bl	right_motor_set_speed
 834              	.LVL103:
 835              		.loc 1 119 0
 836 012c 6FF0C700 		mvn	r0, #199
 837 0130 FFF7FEFF 		bl	left_motor_set_speed
 838              	.LVL104:
 839 0134 9EE7     		b	.L58
 840              	.LVL105:
 841              	.L61:
 842              		.loc 1 95 0
 843 0136 0223     		movs	r3, #2
 844 0138 0193     		str	r3, [sp, #4]
 845              	.LVL106:
 846 013a A2E7     		b	.L57
 847              	.LVL107:
 848              	.L62:
 849              		.loc 1 104 0
 850 013c 0124     		movs	r4, #1
 851              	.LVL108:
 852 013e A0E7     		b	.L57
 853              	.LVL109:
 854              	.L70:
 855              		.loc 1 138 0
ARM GAS  /tmp/cci5m6kK.s 			page 16


 856 0140 FFF7FEFF 		bl	__stack_chk_fail
 857              	.LVL110:
 858              	.L72:
 859              		.align	2
 860              	.L71:
 861 0144 00000000 		.word	__stack_chk_guard
 862 0148 00000000 		.word	ch
 863 014c 00000000 		.word	.LC0
 864 0150 00000000 		.word	.LANCHOR1
 865 0154 00000000 		.word	.LANCHOR2
 866 0158 6666663F 		.word	1063675494
 867 015c CDCCCC3D 		.word	1036831949
 868 0160 50000000 		.word	.LANCHOR0+80
 869 0164 00000000 		.word	.LANCHOR0
 870              		.cfi_endproc
 871              	.LFE261:
 872              		.size	VL53L0XThd, .-VL53L0XThd
 873              		.section	.text.VL53L0X_getLastMeasure,"ax",%progbits
 874              		.align	1
 875              		.p2align 4,,15
 876              		.global	VL53L0X_getLastMeasure
 877              		.syntax unified
 878              		.thumb
 879              		.thumb_func
 880              		.fpu fpv4-sp-d16
 881              		.type	VL53L0X_getLastMeasure, %function
 882              	VL53L0X_getLastMeasure:
 883              	.LFB265:
 884              		.loc 1 298 0
 885              		.cfi_startproc
 886              		@ args = 0, pretend = 0, frame = 8
 887              		@ frame_needed = 0, uses_anonymous_args = 0
 888              	.LVL111:
 889 0000 00B5     		push	{lr}
 890              		.cfi_def_cfa_offset 4
 891              		.cfi_offset 14, -4
 892 0002 084B     		ldr	r3, .L78
 893 0004 83B0     		sub	sp, sp, #12
 894              		.cfi_def_cfa_offset 16
 895              		.loc 1 298 0
 896 0006 1A68     		ldr	r2, [r3]
 897 0008 0192     		str	r2, [sp, #4]
 898              		.loc 1 299 0
 899 000a 019A     		ldr	r2, [sp, #4]
 900 000c 1B68     		ldr	r3, [r3]
 901 000e 9A42     		cmp	r2, r3
 902 0010 06D1     		bne	.L77
 903 0012 0146     		mov	r1, r0
 904 0014 5031     		adds	r1, r1, #80
 905              		.loc 1 301 0
 906 0016 03B0     		add	sp, sp, #12
 907              		.cfi_remember_state
 908              		.cfi_def_cfa_offset 4
 909              		@ sp needed
 910 0018 5DF804EB 		ldr	lr, [sp], #4
 911              		.cfi_restore 14
 912              		.cfi_def_cfa_offset 0
ARM GAS  /tmp/cci5m6kK.s 			page 17


 913              		.loc 1 299 0
 914 001c FFF7FEBF 		b	VL53L0X_GetRangingMeasurementData
 915              	.LVL112:
 916              	.L77:
 917              		.cfi_restore_state
 918 0020 FFF7FEFF 		bl	__stack_chk_fail
 919              	.LVL113:
 920              	.L79:
 921              		.align	2
 922              	.L78:
 923 0024 00000000 		.word	__stack_chk_guard
 924              		.cfi_endproc
 925              	.LFE265:
 926              		.size	VL53L0X_getLastMeasure, .-VL53L0X_getLastMeasure
 927              		.section	.text.VL53L0X_stopMeasure,"ax",%progbits
 928              		.align	1
 929              		.p2align 4,,15
 930              		.global	VL53L0X_stopMeasure
 931              		.syntax unified
 932              		.thumb
 933              		.thumb_func
 934              		.fpu fpv4-sp-d16
 935              		.type	VL53L0X_stopMeasure, %function
 936              	VL53L0X_stopMeasure:
 937              	.LFB266:
 938              		.loc 1 303 0
 939              		.cfi_startproc
 940              		@ args = 0, pretend = 0, frame = 8
 941              		@ frame_needed = 0, uses_anonymous_args = 0
 942              	.LVL114:
 943 0000 00B5     		push	{lr}
 944              		.cfi_def_cfa_offset 4
 945              		.cfi_offset 14, -4
 946 0002 074B     		ldr	r3, .L85
 947 0004 83B0     		sub	sp, sp, #12
 948              		.cfi_def_cfa_offset 16
 949              		.loc 1 303 0
 950 0006 1A68     		ldr	r2, [r3]
 951 0008 0192     		str	r2, [sp, #4]
 952              		.loc 1 304 0
 953 000a 019A     		ldr	r2, [sp, #4]
 954 000c 1B68     		ldr	r3, [r3]
 955 000e 9A42     		cmp	r2, r3
 956 0010 04D1     		bne	.L84
 957              		.loc 1 305 0
 958 0012 03B0     		add	sp, sp, #12
 959              		.cfi_remember_state
 960              		.cfi_def_cfa_offset 4
 961              		@ sp needed
 962 0014 5DF804EB 		ldr	lr, [sp], #4
 963              		.cfi_restore 14
 964              		.cfi_def_cfa_offset 0
 965              		.loc 1 304 0
 966 0018 FFF7FEBF 		b	VL53L0X_StopMeasurement
 967              	.LVL115:
 968              	.L84:
 969              		.cfi_restore_state
ARM GAS  /tmp/cci5m6kK.s 			page 18


 970 001c FFF7FEFF 		bl	__stack_chk_fail
 971              	.LVL116:
 972              	.L86:
 973              		.align	2
 974              	.L85:
 975 0020 00000000 		.word	__stack_chk_guard
 976              		.cfi_endproc
 977              	.LFE266:
 978              		.size	VL53L0X_stopMeasure, .-VL53L0X_stopMeasure
 979              		.section	.text.VL53L0X_start,"ax",%progbits
 980              		.align	1
 981              		.p2align 4,,15
 982              		.global	VL53L0X_start
 983              		.syntax unified
 984              		.thumb
 985              		.thumb_func
 986              		.fpu fpv4-sp-d16
 987              		.type	VL53L0X_start, %function
 988              	VL53L0X_start:
 989              	.LFB267:
 990              		.loc 1 307 0
 991              		.cfi_startproc
 992              		@ args = 0, pretend = 0, frame = 8
 993              		@ frame_needed = 0, uses_anonymous_args = 0
 994 0000 30B5     		push	{r4, r5, lr}
 995              		.cfi_def_cfa_offset 12
 996              		.cfi_offset 4, -12
 997              		.cfi_offset 5, -8
 998              		.cfi_offset 14, -4
 999              		.loc 1 309 0
 1000 0002 0D4B     		ldr	r3, .L92
 1001              		.loc 1 307 0
 1002 0004 0D4C     		ldr	r4, .L92+4
 1003              		.loc 1 309 0
 1004 0006 1D78     		ldrb	r5, [r3]	@ zero_extendqisi2
 1005              		.loc 1 307 0
 1006 0008 2368     		ldr	r3, [r4]
 1007 000a 85B0     		sub	sp, sp, #20
 1008              		.cfi_def_cfa_offset 32
 1009              		.loc 1 307 0
 1010 000c 0393     		str	r3, [sp, #12]
 1011              		.loc 1 309 0
 1012 000e 5DB9     		cbnz	r5, .L87
 1013              		.loc 1 313 0
 1014 0010 FFF7FEFF 		bl	i2c_start
 1015              	.LVL117:
 1016              		.loc 1 315 0
 1017 0014 0A4B     		ldr	r3, .L92+8
 1018 0016 0095     		str	r5, [sp]
 1019 0018 0A48     		ldr	r0, .L92+12
 1020 001a 4A22     		movs	r2, #74
 1021 001c 4FF45E71 		mov	r1, #888
 1022 0020 FFF7FEFF 		bl	chThdCreateStatic
 1023              	.LVL118:
 1024 0024 084B     		ldr	r3, .L92+16
 1025 0026 1860     		str	r0, [r3]
 1026              	.L87:
ARM GAS  /tmp/cci5m6kK.s 			page 19


 1027              		.loc 1 320 0
 1028 0028 039A     		ldr	r2, [sp, #12]
 1029 002a 2368     		ldr	r3, [r4]
 1030 002c 9A42     		cmp	r2, r3
 1031 002e 01D1     		bne	.L91
 1032 0030 05B0     		add	sp, sp, #20
 1033              		.cfi_remember_state
 1034              		.cfi_def_cfa_offset 12
 1035              		@ sp needed
 1036 0032 30BD     		pop	{r4, r5, pc}
 1037              	.L91:
 1038              		.cfi_restore_state
 1039 0034 FFF7FEFF 		bl	__stack_chk_fail
 1040              	.LVL119:
 1041              	.L93:
 1042              		.align	2
 1043              	.L92:
 1044 0038 00000000 		.word	.LANCHOR1
 1045 003c 00000000 		.word	__stack_chk_guard
 1046 0040 00000000 		.word	VL53L0XThd
 1047 0044 00000000 		.word	.LANCHOR3
 1048 0048 00000000 		.word	.LANCHOR4
 1049              		.cfi_endproc
 1050              	.LFE267:
 1051              		.size	VL53L0X_start, .-VL53L0X_start
 1052              		.section	.text.VL53L0X_stop,"ax",%progbits
 1053              		.align	1
 1054              		.p2align 4,,15
 1055              		.global	VL53L0X_stop
 1056              		.syntax unified
 1057              		.thumb
 1058              		.thumb_func
 1059              		.fpu fpv4-sp-d16
 1060              		.type	VL53L0X_stop, %function
 1061              	VL53L0X_stop:
 1062              	.LFB268:
 1063              		.loc 1 322 0
 1064              		.cfi_startproc
 1065              		@ args = 0, pretend = 0, frame = 8
 1066              		@ frame_needed = 0, uses_anonymous_args = 0
 1067 0000 30B5     		push	{r4, r5, lr}
 1068              		.cfi_def_cfa_offset 12
 1069              		.cfi_offset 4, -12
 1070              		.cfi_offset 5, -8
 1071              		.cfi_offset 14, -4
 1072              		.loc 1 323 0
 1073 0002 0B4C     		ldr	r4, .L98
 1074              		.loc 1 322 0
 1075 0004 0B4D     		ldr	r5, .L98+4
 1076              		.loc 1 323 0
 1077 0006 2068     		ldr	r0, [r4]
 1078              		.loc 1 322 0
 1079 0008 2B68     		ldr	r3, [r5]
 1080 000a 83B0     		sub	sp, sp, #12
 1081              		.cfi_def_cfa_offset 24
 1082              		.loc 1 322 0
 1083 000c 0193     		str	r3, [sp, #4]
ARM GAS  /tmp/cci5m6kK.s 			page 20


 1084              		.loc 1 323 0
 1085 000e FFF7FEFF 		bl	chThdTerminate
 1086              	.LVL120:
 1087              		.loc 1 324 0
 1088 0012 2068     		ldr	r0, [r4]
 1089 0014 FFF7FEFF 		bl	chThdWait
 1090              	.LVL121:
 1091              		.loc 1 327 0
 1092 0018 0199     		ldr	r1, [sp, #4]
 1093 001a 2A68     		ldr	r2, [r5]
 1094              		.loc 1 326 0
 1095 001c 0648     		ldr	r0, .L98+8
 1096              		.loc 1 325 0
 1097 001e 0023     		movs	r3, #0
 1098              		.loc 1 327 0
 1099 0020 9142     		cmp	r1, r2
 1100              		.loc 1 325 0
 1101 0022 2360     		str	r3, [r4]
 1102              		.loc 1 326 0
 1103 0024 0370     		strb	r3, [r0]
 1104              		.loc 1 327 0
 1105 0026 01D1     		bne	.L97
 1106 0028 03B0     		add	sp, sp, #12
 1107              		.cfi_remember_state
 1108              		.cfi_def_cfa_offset 12
 1109              		@ sp needed
 1110 002a 30BD     		pop	{r4, r5, pc}
 1111              	.L97:
 1112              		.cfi_restore_state
 1113 002c FFF7FEFF 		bl	__stack_chk_fail
 1114              	.LVL122:
 1115              	.L99:
 1116              		.align	2
 1117              	.L98:
 1118 0030 00000000 		.word	.LANCHOR4
 1119 0034 00000000 		.word	__stack_chk_guard
 1120 0038 00000000 		.word	.LANCHOR1
 1121              		.cfi_endproc
 1122              	.LFE268:
 1123              		.size	VL53L0X_stop, .-VL53L0X_stop
 1124              		.section	.text.VL53L0X_get_dist_mm,"ax",%progbits
 1125              		.align	1
 1126              		.p2align 4,,15
 1127              		.global	VL53L0X_get_dist_mm
 1128              		.syntax unified
 1129              		.thumb
 1130              		.thumb_func
 1131              		.fpu fpv4-sp-d16
 1132              		.type	VL53L0X_get_dist_mm, %function
 1133              	VL53L0X_get_dist_mm:
 1134              	.LFB269:
 1135              		.loc 1 329 0
 1136              		.cfi_startproc
 1137              		@ args = 0, pretend = 0, frame = 8
 1138              		@ frame_needed = 0, uses_anonymous_args = 0
 1139 0000 00B5     		push	{lr}
 1140              		.cfi_def_cfa_offset 4
ARM GAS  /tmp/cci5m6kK.s 			page 21


 1141              		.cfi_offset 14, -4
 1142 0002 074B     		ldr	r3, .L104
 1143              		.loc 1 330 0
 1144 0004 0749     		ldr	r1, .L104+4
 1145              		.loc 1 329 0
 1146 0006 1A68     		ldr	r2, [r3]
 1147              		.loc 1 331 0
 1148 0008 0888     		ldrh	r0, [r1]
 1149              		.loc 1 329 0
 1150 000a 83B0     		sub	sp, sp, #12
 1151              		.cfi_def_cfa_offset 16
 1152              		.loc 1 329 0
 1153 000c 0192     		str	r2, [sp, #4]
 1154              		.loc 1 331 0
 1155 000e 019A     		ldr	r2, [sp, #4]
 1156 0010 1B68     		ldr	r3, [r3]
 1157 0012 9A42     		cmp	r2, r3
 1158 0014 02D1     		bne	.L103
 1159 0016 03B0     		add	sp, sp, #12
 1160              		.cfi_remember_state
 1161              		.cfi_def_cfa_offset 4
 1162              		@ sp needed
 1163 0018 5DF804FB 		ldr	pc, [sp], #4
 1164              	.L103:
 1165              		.cfi_restore_state
 1166 001c FFF7FEFF 		bl	__stack_chk_fail
 1167              	.LVL123:
 1168              	.L105:
 1169              		.align	2
 1170              	.L104:
 1171 0020 00000000 		.word	__stack_chk_guard
 1172 0024 00000000 		.word	.LANCHOR2
 1173              		.cfi_endproc
 1174              	.LFE269:
 1175              		.size	VL53L0X_get_dist_mm, .-VL53L0X_get_dist_mm
 1176              		.section	.bss.VL53L0X_configured,"aw",%nobits
 1177              		.set	.LANCHOR1,. + 0
 1178              		.type	VL53L0X_configured, %object
 1179              		.size	VL53L0X_configured, 1
 1180              	VL53L0X_configured:
 1181 0000 00       		.space	1
 1182              		.section	.bss.device.11751,"aw",%nobits
 1183              		.align	2
 1184              		.set	.LANCHOR0,. + 0
 1185              		.type	device.11751, %object
 1186              		.size	device.11751, 448
 1187              	device.11751:
 1188 0000 00000000 		.space	448
 1188      00000000 
 1188      00000000 
 1188      00000000 
 1188      00000000 
 1189              		.section	.bss.distThd,"aw",%nobits
 1190              		.align	2
 1191              		.set	.LANCHOR4,. + 0
 1192              		.type	distThd, %object
 1193              		.size	distThd, 4
ARM GAS  /tmp/cci5m6kK.s 			page 22


 1194              	distThd:
 1195 0000 00000000 		.space	4
 1196              		.section	.bss.dist_mm,"aw",%nobits
 1197              		.align	1
 1198              		.set	.LANCHOR2,. + 0
 1199              		.type	dist_mm, %object
 1200              		.size	dist_mm, 2
 1201              	dist_mm:
 1202 0000 0000     		.space	2
 1203              		.section	.bss.waVL53L0XThd,"aw",%nobits
 1204              		.align	3
 1205              		.set	.LANCHOR3,. + 0
 1206              		.type	waVL53L0XThd, %object
 1207              		.size	waVL53L0XThd, 888
 1208              	waVL53L0XThd:
 1209 0000 00000000 		.space	888
 1209      00000000 
 1209      00000000 
 1209      00000000 
 1209      00000000 
 1210              		.section	.rodata.VL53L0XThd.str1.4,"aMS",%progbits,1
 1211              		.align	2
 1212              	.LC0:
 1213 0000 564C3533 		.ascii	"VL53L0x Thd\000"
 1213      4C307820 
 1213      54686400 
 1214              		.text
 1215              	.Letext0:
 1216              		.file 4 "/home/taras/Documents/EPFL/Robotique/TP/eclipse/Eclipse_e-puck2/Tools/gcc-arm-none-eabi-7
 1217              		.file 5 "/home/taras/Documents/EPFL/Robotique/TP/eclipse/Eclipse_e-puck2/Tools/gcc-arm-none-eabi-7
 1218              		.file 6 "/home/taras/Documents/EPFL/Robotique/TP/eclipse/Eclipse_e-puck2/Tools/gcc-arm-none-eabi-7
 1219              		.file 7 "../../lib/e-puck2_main-processor/ChibiOS//os/rt/ports/ARMCMx/compilers/GCC/chtypes.h"
 1220              		.file 8 "../../lib/e-puck2_main-processor/ChibiOS//os/rt/include/chsystypes.h"
 1221              		.file 9 "../../lib/e-puck2_main-processor/ChibiOS//os/rt/include/chschd.h"
 1222              		.file 10 "../../lib/e-puck2_main-processor/ChibiOS//os/ext/CMSIS/include/core_cm4.h"
 1223              		.file 11 "../../lib/e-puck2_main-processor/ChibiOS//os/ext/CMSIS/ST/system_stm32f4xx.h"
 1224              		.file 12 "../../lib/e-puck2_main-processor/ChibiOS//os/ext/CMSIS/ST/stm32f407xx.h"
 1225              		.file 13 "../../lib/e-puck2_main-processor/ChibiOS//os/rt/ports/ARMCMx/chcore.h"
 1226              		.file 14 "../../lib/e-puck2_main-processor/ChibiOS//os/rt/ports/ARMCMx/chcore_v7m.h"
 1227              		.file 15 "../../lib/e-puck2_main-processor/ChibiOS//os/rt/include/chdebug.h"
 1228              		.file 16 "../../lib/e-puck2_main-processor/ChibiOS//os/rt/include/chtm.h"
 1229              		.file 17 "../../lib/e-puck2_main-processor/ChibiOS//os/rt/include/chstats.h"
 1230              		.file 18 "../../lib/e-puck2_main-processor/ChibiOS//os/rt/include/chsem.h"
 1231              		.file 19 "../../lib/e-puck2_main-processor/ChibiOS//os/rt/include/chmtx.h"
 1232              		.file 20 "../../lib/e-puck2_main-processor/ChibiOS//os/rt/include/chevents.h"
 1233              		.file 21 "../../lib/e-puck2_main-processor/ChibiOS//os/rt/include/chqueues.h"
 1234              		.file 22 "../../lib/e-puck2_main-processor/ChibiOS//os/hal/ports/STM32/STM32F4xx/stm32_dma.h"
 1235              		.file 23 "../../lib/e-puck2_main-processor/ChibiOS//os/hal/include/hal_ioblock.h"
 1236              		.file 24 "../../lib/e-puck2_main-processor/ChibiOS//os/hal/ports/STM32/LLD/GPIOv2/pal_lld.h"
 1237              		.file 25 "../../lib/e-puck2_main-processor/ChibiOS//os/hal/include/adc.h"
 1238              		.file 26 "../../lib/e-puck2_main-processor/ChibiOS//os/hal/ports/STM32/STM32F4xx/adc_lld.h"
 1239              		.file 27 "../../lib/e-puck2_main-processor/ChibiOS//os/hal/include/can.h"
 1240              		.file 28 "../../lib/e-puck2_main-processor/ChibiOS//os/hal/ports/STM32/LLD/can_lld.h"
 1241              		.file 29 "../../lib/e-puck2_main-processor/ChibiOS//os/hal/include/dac.h"
 1242              		.file 30 "../../lib/e-puck2_main-processor/ChibiOS//os/hal/ports/STM32/LLD/DACv1/dac_lld.h"
 1243              		.file 31 "../../lib/e-puck2_main-processor/ChibiOS//os/hal/include/ext.h"
 1244              		.file 32 "../../lib/e-puck2_main-processor/ChibiOS//os/hal/ports/STM32/LLD/ext_lld.h"
ARM GAS  /tmp/cci5m6kK.s 			page 23


 1245              		.file 33 "../../lib/e-puck2_main-processor/ChibiOS//os/hal/include/gpt.h"
 1246              		.file 34 "../../lib/e-puck2_main-processor/ChibiOS//os/hal/ports/STM32/LLD/TIMv1/gpt_lld.h"
 1247              		.file 35 "../../lib/e-puck2_main-processor/ChibiOS//os/hal/ports/STM32/LLD/TIMv1/stm32_tim.h"
 1248              		.file 36 "../../lib/e-puck2_main-processor/ChibiOS//os/hal/include/i2c.h"
 1249              		.file 37 "../../lib/e-puck2_main-processor/ChibiOS//os/hal/ports/STM32/LLD/I2Cv1/i2c_lld.h"
 1250              		.file 38 "../../lib/e-puck2_main-processor/ChibiOS//os/hal/include/i2s.h"
 1251              		.file 39 "../../lib/e-puck2_main-processor/ChibiOS//os/hal/ports/STM32/LLD/SPIv1/i2s_lld.h"
 1252              		.file 40 "../../lib/e-puck2_main-processor/ChibiOS//os/hal/include/pwm.h"
 1253              		.file 41 "../../lib/e-puck2_main-processor/ChibiOS//os/hal/ports/STM32/LLD/TIMv1/pwm_lld.h"
 1254              		.file 42 "../../lib/e-puck2_main-processor/ChibiOS//os/hal/include/serial.h"
 1255              		.file 43 "../../lib/e-puck2_main-processor/ChibiOS//os/hal/ports/STM32/LLD/USARTv1/serial_lld.h"
 1256              		.file 44 "../../lib/e-puck2_main-processor/ChibiOS//os/hal/include/sdc.h"
 1257              		.file 45 "../../lib/e-puck2_main-processor/ChibiOS//os/hal/ports/STM32/LLD/sdc_lld.h"
 1258              		.file 46 "../../lib/e-puck2_main-processor/ChibiOS//os/hal/include/spi.h"
 1259              		.file 47 "../../lib/e-puck2_main-processor/ChibiOS//os/hal/ports/STM32/LLD/SPIv1/spi_lld.h"
 1260              		.file 48 "../../lib/e-puck2_main-processor/ChibiOS//os/hal/include/usb.h"
 1261              		.file 49 "../../lib/e-puck2_main-processor/ChibiOS//os/hal/ports/STM32/LLD/OTGv1/usb_lld.h"
 1262              		.file 50 "../../lib/e-puck2_main-processor/ChibiOS//os/hal/ports/STM32/LLD/OTGv1/stm32_otg.h"
 1263              		.file 51 "../../lib/e-puck2_main-processor/ChibiOS//os/hal/include/serial_usb.h"
 1264              		.file 52 "../../lib/e-puck2_main-processor/src/sensors/VL53L0X/Api/core/inc/vl53l0x_types.h"
 1265              		.file 53 "../../lib/e-puck2_main-processor/src/sensors/VL53L0X/Api/core/inc/vl53l0x_device.h"
 1266              		.file 54 "../../lib/e-puck2_main-processor/src/sensors/VL53L0X/Api/core/inc/vl53l0x_def.h"
 1267              		.file 55 "/home/taras/Documents/EPFL/Robotique/TP/eclipse/Eclipse_e-puck2/Tools/gcc-arm-none-eabi-
 1268              		.file 56 "/home/taras/Documents/EPFL/Robotique/TP/eclipse/Eclipse_e-puck2/Tools/gcc-arm-none-eabi-
 1269              		.file 57 "/home/taras/Documents/EPFL/Robotique/TP/eclipse/Eclipse_e-puck2/Tools/gcc-arm-none-eabi-
 1270              		.file 58 "../../lib/e-puck2_main-processor/src/sensors/VL53L0X/Api/core/inc/../../platform/inc/vl5
 1271              		.file 59 "../../lib/e-puck2_main-processor/ChibiOS//os/various/shell.h"
 1272              		.file 60 "../../lib/e-puck2_main-processor/src/usbcfg.h"
 1273              		.file 61 "../../lib/e-puck2_main-processor/src/i2c_bus.h"
 1274              		.file 62 "../../lib/e-puck2_main-processor/src/sensors/VL53L0X/Api/core/inc/vl53l0x_api.h"
 1275              		.file 63 "../../lib/e-puck2_main-processor/src/motors.h"